
Smart-pen-drive.elf:     file format elf32-littlearm

Sections:
Idx Name          Size      VMA       LMA       File off  Algn
  0 .text         0000cca8  00400000  00400000  00010000  2**6
                  CONTENTS, ALLOC, LOAD, READONLY, CODE
  1 .ARM.exidx    00000008  0040cca8  0040cca8  0001cca8  2**2
                  CONTENTS, ALLOC, LOAD, READONLY, DATA
  2 .relocate     000008e4  20400000  0040ccb0  00020000  2**3
                  CONTENTS, ALLOC, LOAD, CODE
  3 .bss          00000d60  204008e4  0040d594  000208e4  2**2
                  ALLOC
  4 .stack        00002004  20401644  0040e2f4  000208e4  2**0
                  ALLOC
  5 .heap         00000200  20403648  004102f8  000208e4  2**0
                  ALLOC
  6 .ARM.attributes 0000002e  00000000  00000000  000208e4  2**0
                  CONTENTS, READONLY
  7 .comment      00000059  00000000  00000000  00020912  2**0
                  CONTENTS, READONLY
  8 .debug_info   00021840  00000000  00000000  0002096b  2**0
                  CONTENTS, READONLY, DEBUGGING
  9 .debug_abbrev 00004ce7  00000000  00000000  000421ab  2**0
                  CONTENTS, READONLY, DEBUGGING
 10 .debug_loc    00010d95  00000000  00000000  00046e92  2**0
                  CONTENTS, READONLY, DEBUGGING
 11 .debug_aranges 000012f8  00000000  00000000  00057c27  2**0
                  CONTENTS, READONLY, DEBUGGING
 12 .debug_ranges 000013c0  00000000  00000000  00058f1f  2**0
                  CONTENTS, READONLY, DEBUGGING
 13 .debug_macro  00028591  00000000  00000000  0005a2df  2**0
                  CONTENTS, READONLY, DEBUGGING
 14 .debug_line   00019c3c  00000000  00000000  00082870  2**0
                  CONTENTS, READONLY, DEBUGGING
 15 .debug_str    0009946a  00000000  00000000  0009c4ac  2**0
                  CONTENTS, READONLY, DEBUGGING
 16 .debug_frame  00004154  00000000  00000000  00135918  2**2
                  CONTENTS, READONLY, DEBUGGING

Disassembly of section .text:

00400000 <_sfixed>:
  400000:	20403648 	.word	0x20403648
  400004:	004048d9 	.word	0x004048d9
  400008:	004048d5 	.word	0x004048d5
  40000c:	004048d5 	.word	0x004048d5
  400010:	004048d5 	.word	0x004048d5
  400014:	004048d5 	.word	0x004048d5
  400018:	004048d5 	.word	0x004048d5
	...
  40002c:	004048d5 	.word	0x004048d5
  400030:	004048d5 	.word	0x004048d5
  400034:	00000000 	.word	0x00000000
  400038:	004048d5 	.word	0x004048d5
  40003c:	004048d5 	.word	0x004048d5
  400040:	004048d5 	.word	0x004048d5
  400044:	004048d5 	.word	0x004048d5
  400048:	004048d5 	.word	0x004048d5
  40004c:	004048d5 	.word	0x004048d5
  400050:	004048d5 	.word	0x004048d5
  400054:	004048d5 	.word	0x004048d5
  400058:	004048d5 	.word	0x004048d5
  40005c:	004048d5 	.word	0x004048d5
  400060:	004048d5 	.word	0x004048d5
  400064:	00000000 	.word	0x00000000
  400068:	004043c5 	.word	0x004043c5
  40006c:	004043d9 	.word	0x004043d9
  400070:	004043ed 	.word	0x004043ed
  400074:	004048d5 	.word	0x004048d5
  400078:	004048d5 	.word	0x004048d5
  40007c:	004048d5 	.word	0x004048d5
  400080:	00404401 	.word	0x00404401
  400084:	00404415 	.word	0x00404415
  400088:	004048d5 	.word	0x004048d5
  40008c:	004048d5 	.word	0x004048d5
  400090:	004048d5 	.word	0x004048d5
  400094:	004048d5 	.word	0x004048d5
  400098:	004048d5 	.word	0x004048d5
  40009c:	004048d5 	.word	0x004048d5
  4000a0:	004048d5 	.word	0x004048d5
  4000a4:	004048d5 	.word	0x004048d5
  4000a8:	004048d5 	.word	0x004048d5
  4000ac:	004048d5 	.word	0x004048d5
  4000b0:	004048d5 	.word	0x004048d5
  4000b4:	004048d5 	.word	0x004048d5
  4000b8:	004048d5 	.word	0x004048d5
  4000bc:	004048d5 	.word	0x004048d5
  4000c0:	004048d5 	.word	0x004048d5
  4000c4:	004048d5 	.word	0x004048d5
  4000c8:	004048d5 	.word	0x004048d5
  4000cc:	004048d5 	.word	0x004048d5
  4000d0:	00000000 	.word	0x00000000
  4000d4:	004048d5 	.word	0x004048d5
  4000d8:	00000000 	.word	0x00000000
  4000dc:	004048d5 	.word	0x004048d5
  4000e0:	004048d5 	.word	0x004048d5
  4000e4:	004048d5 	.word	0x004048d5
  4000e8:	004048d5 	.word	0x004048d5
  4000ec:	004048d5 	.word	0x004048d5
  4000f0:	004048d5 	.word	0x004048d5
  4000f4:	004048d5 	.word	0x004048d5
  4000f8:	004048d5 	.word	0x004048d5
  4000fc:	004048d5 	.word	0x004048d5
  400100:	004048d5 	.word	0x004048d5
  400104:	004048d5 	.word	0x004048d5
  400108:	004048d5 	.word	0x004048d5
  40010c:	004048d5 	.word	0x004048d5
  400110:	004048d5 	.word	0x004048d5
	...
  400120:	004048d5 	.word	0x004048d5
  400124:	004048d5 	.word	0x004048d5
  400128:	004048d5 	.word	0x004048d5
  40012c:	004048d5 	.word	0x004048d5
  400130:	004048d5 	.word	0x004048d5
  400134:	00000000 	.word	0x00000000
  400138:	004048d5 	.word	0x004048d5
  40013c:	004048d5 	.word	0x004048d5

00400140 <__do_global_dtors_aux>:
  400140:	b510      	push	{r4, lr}
  400142:	4c05      	ldr	r4, [pc, #20]	; (400158 <__do_global_dtors_aux+0x18>)
  400144:	7823      	ldrb	r3, [r4, #0]
  400146:	b933      	cbnz	r3, 400156 <__do_global_dtors_aux+0x16>
  400148:	4b04      	ldr	r3, [pc, #16]	; (40015c <__do_global_dtors_aux+0x1c>)
  40014a:	b113      	cbz	r3, 400152 <__do_global_dtors_aux+0x12>
  40014c:	4804      	ldr	r0, [pc, #16]	; (400160 <__do_global_dtors_aux+0x20>)
  40014e:	f3af 8000 	nop.w
  400152:	2301      	movs	r3, #1
  400154:	7023      	strb	r3, [r4, #0]
  400156:	bd10      	pop	{r4, pc}
  400158:	204008e4 	.word	0x204008e4
  40015c:	00000000 	.word	0x00000000
  400160:	0040ccb0 	.word	0x0040ccb0

00400164 <frame_dummy>:
  400164:	4b08      	ldr	r3, [pc, #32]	; (400188 <frame_dummy+0x24>)
  400166:	b510      	push	{r4, lr}
  400168:	b11b      	cbz	r3, 400172 <frame_dummy+0xe>
  40016a:	4908      	ldr	r1, [pc, #32]	; (40018c <frame_dummy+0x28>)
  40016c:	4808      	ldr	r0, [pc, #32]	; (400190 <frame_dummy+0x2c>)
  40016e:	f3af 8000 	nop.w
  400172:	4808      	ldr	r0, [pc, #32]	; (400194 <frame_dummy+0x30>)
  400174:	6803      	ldr	r3, [r0, #0]
  400176:	b903      	cbnz	r3, 40017a <frame_dummy+0x16>
  400178:	bd10      	pop	{r4, pc}
  40017a:	4b07      	ldr	r3, [pc, #28]	; (400198 <frame_dummy+0x34>)
  40017c:	2b00      	cmp	r3, #0
  40017e:	d0fb      	beq.n	400178 <frame_dummy+0x14>
  400180:	e8bd 4010 	ldmia.w	sp!, {r4, lr}
  400184:	4718      	bx	r3
  400186:	bf00      	nop
  400188:	00000000 	.word	0x00000000
  40018c:	204008e8 	.word	0x204008e8
  400190:	0040ccb0 	.word	0x0040ccb0
  400194:	0040ccb0 	.word	0x0040ccb0
  400198:	00000000 	.word	0x00000000

0040019c <sd_mmc_configure_slot>:
  40019c:	b510      	push	{r4, lr}
  40019e:	4b07      	ldr	r3, [pc, #28]	; (4001bc <sd_mmc_configure_slot+0x20>)
  4001a0:	6819      	ldr	r1, [r3, #0]
  4001a2:	f891 3022 	ldrb.w	r3, [r1, #34]	; 0x22
  4001a6:	3300      	adds	r3, #0
  4001a8:	bf18      	it	ne
  4001aa:	2301      	movne	r3, #1
  4001ac:	7c4a      	ldrb	r2, [r1, #17]
  4001ae:	6809      	ldr	r1, [r1, #0]
  4001b0:	4803      	ldr	r0, [pc, #12]	; (4001c0 <sd_mmc_configure_slot+0x24>)
  4001b2:	7800      	ldrb	r0, [r0, #0]
  4001b4:	4c03      	ldr	r4, [pc, #12]	; (4001c4 <sd_mmc_configure_slot+0x28>)
  4001b6:	47a0      	blx	r4
  4001b8:	bd10      	pop	{r4, pc}
  4001ba:	bf00      	nop
  4001bc:	20400904 	.word	0x20400904
  4001c0:	20400908 	.word	0x20400908
  4001c4:	00400d81 	.word	0x00400d81

004001c8 <sd_mmc_select_slot>:
  4001c8:	b510      	push	{r4, lr}
  4001ca:	2800      	cmp	r0, #0
  4001cc:	d154      	bne.n	400278 <sd_mmc_select_slot+0xb0>
  4001ce:	4b33      	ldr	r3, [pc, #204]	; (40029c <sd_mmc_select_slot+0xd4>)
  4001d0:	689a      	ldr	r2, [r3, #8]
  4001d2:	4b33      	ldr	r3, [pc, #204]	; (4002a0 <sd_mmc_select_slot+0xd8>)
  4001d4:	eb03 1352 	add.w	r3, r3, r2, lsr #5
  4001d8:	025b      	lsls	r3, r3, #9
  4001da:	6bd9      	ldr	r1, [r3, #60]	; 0x3c
  4001dc:	f002 021f 	and.w	r2, r2, #31
  4001e0:	2301      	movs	r3, #1
  4001e2:	fa03 f202 	lsl.w	r2, r3, r2
  4001e6:	420a      	tst	r2, r1
  4001e8:	d00e      	beq.n	400208 <sd_mmc_select_slot+0x40>
  4001ea:	4b2c      	ldr	r3, [pc, #176]	; (40029c <sd_mmc_select_slot+0xd4>)
  4001ec:	7b9b      	ldrb	r3, [r3, #14]
  4001ee:	2b01      	cmp	r3, #1
  4001f0:	d105      	bne.n	4001fe <sd_mmc_select_slot+0x36>
  4001f2:	4b2c      	ldr	r3, [pc, #176]	; (4002a4 <sd_mmc_select_slot+0xdc>)
  4001f4:	781b      	ldrb	r3, [r3, #0]
  4001f6:	b113      	cbz	r3, 4001fe <sd_mmc_select_slot+0x36>
  4001f8:	2200      	movs	r2, #0
  4001fa:	4b2b      	ldr	r3, [pc, #172]	; (4002a8 <sd_mmc_select_slot+0xe0>)
  4001fc:	601a      	str	r2, [r3, #0]
  4001fe:	2204      	movs	r2, #4
  400200:	4b26      	ldr	r3, [pc, #152]	; (40029c <sd_mmc_select_slot+0xd4>)
  400202:	739a      	strb	r2, [r3, #14]
  400204:	2002      	movs	r0, #2
  400206:	bd10      	pop	{r4, pc}
  400208:	4b24      	ldr	r3, [pc, #144]	; (40029c <sd_mmc_select_slot+0xd4>)
  40020a:	7b9b      	ldrb	r3, [r3, #14]
  40020c:	2b04      	cmp	r3, #4
  40020e:	d115      	bne.n	40023c <sd_mmc_select_slot+0x74>
  400210:	2201      	movs	r2, #1
  400212:	4b22      	ldr	r3, [pc, #136]	; (40029c <sd_mmc_select_slot+0xd4>)
  400214:	739a      	strb	r2, [r3, #14]
  400216:	4b24      	ldr	r3, [pc, #144]	; (4002a8 <sd_mmc_select_slot+0xe0>)
  400218:	681b      	ldr	r3, [r3, #0]
  40021a:	b93b      	cbnz	r3, 40022c <sd_mmc_select_slot+0x64>
  40021c:	4b21      	ldr	r3, [pc, #132]	; (4002a4 <sd_mmc_select_slot+0xdc>)
  40021e:	701a      	strb	r2, [r3, #0]
  400220:	4b21      	ldr	r3, [pc, #132]	; (4002a8 <sd_mmc_select_slot+0xe0>)
  400222:	4922      	ldr	r1, [pc, #136]	; (4002ac <sd_mmc_select_slot+0xe4>)
  400224:	6059      	str	r1, [r3, #4]
  400226:	601a      	str	r2, [r3, #0]
  400228:	2002      	movs	r0, #2
  40022a:	bd10      	pop	{r4, pc}
  40022c:	2200      	movs	r2, #0
  40022e:	4b1d      	ldr	r3, [pc, #116]	; (4002a4 <sd_mmc_select_slot+0xdc>)
  400230:	701a      	strb	r2, [r3, #0]
  400232:	481f      	ldr	r0, [pc, #124]	; (4002b0 <sd_mmc_select_slot+0xe8>)
  400234:	4b1f      	ldr	r3, [pc, #124]	; (4002b4 <sd_mmc_select_slot+0xec>)
  400236:	4798      	blx	r3
  400238:	2002      	movs	r0, #2
  40023a:	bd10      	pop	{r4, pc}
  40023c:	2b01      	cmp	r3, #1
  40023e:	d10b      	bne.n	400258 <sd_mmc_select_slot+0x90>
  400240:	4b18      	ldr	r3, [pc, #96]	; (4002a4 <sd_mmc_select_slot+0xdc>)
  400242:	781b      	ldrb	r3, [r3, #0]
  400244:	b1f3      	cbz	r3, 400284 <sd_mmc_select_slot+0xbc>
  400246:	4b18      	ldr	r3, [pc, #96]	; (4002a8 <sd_mmc_select_slot+0xe0>)
  400248:	681b      	ldr	r3, [r3, #0]
  40024a:	f413 3f80 	tst.w	r3, #65536	; 0x10000
  40024e:	d015      	beq.n	40027c <sd_mmc_select_slot+0xb4>
  400250:	2200      	movs	r2, #0
  400252:	4b15      	ldr	r3, [pc, #84]	; (4002a8 <sd_mmc_select_slot+0xe0>)
  400254:	601a      	str	r2, [r3, #0]
  400256:	e015      	b.n	400284 <sd_mmc_select_slot+0xbc>
  400258:	2b03      	cmp	r3, #3
  40025a:	d011      	beq.n	400280 <sd_mmc_select_slot+0xb8>
  40025c:	2200      	movs	r2, #0
  40025e:	4b16      	ldr	r3, [pc, #88]	; (4002b8 <sd_mmc_select_slot+0xf0>)
  400260:	701a      	strb	r2, [r3, #0]
  400262:	4c0e      	ldr	r4, [pc, #56]	; (40029c <sd_mmc_select_slot+0xd4>)
  400264:	4b15      	ldr	r3, [pc, #84]	; (4002bc <sd_mmc_select_slot+0xf4>)
  400266:	601c      	str	r4, [r3, #0]
  400268:	4b15      	ldr	r3, [pc, #84]	; (4002c0 <sd_mmc_select_slot+0xf8>)
  40026a:	4798      	blx	r3
  40026c:	7ba0      	ldrb	r0, [r4, #14]
  40026e:	2802      	cmp	r0, #2
  400270:	bf14      	ite	ne
  400272:	2000      	movne	r0, #0
  400274:	2001      	moveq	r0, #1
  400276:	bd10      	pop	{r4, pc}
  400278:	2004      	movs	r0, #4
  40027a:	bd10      	pop	{r4, pc}
  40027c:	2002      	movs	r0, #2
  40027e:	bd10      	pop	{r4, pc}
  400280:	2003      	movs	r0, #3
  400282:	bd10      	pop	{r4, pc}
  400284:	4b05      	ldr	r3, [pc, #20]	; (40029c <sd_mmc_select_slot+0xd4>)
  400286:	2202      	movs	r2, #2
  400288:	739a      	strb	r2, [r3, #14]
  40028a:	4a0e      	ldr	r2, [pc, #56]	; (4002c4 <sd_mmc_select_slot+0xfc>)
  40028c:	601a      	str	r2, [r3, #0]
  40028e:	2201      	movs	r2, #1
  400290:	745a      	strb	r2, [r3, #17]
  400292:	2200      	movs	r2, #0
  400294:	f883 2022 	strb.w	r2, [r3, #34]	; 0x22
  400298:	e7e0      	b.n	40025c <sd_mmc_select_slot+0x94>
  40029a:	bf00      	nop
  40029c:	2040000c 	.word	0x2040000c
  4002a0:	00200707 	.word	0x00200707
  4002a4:	20400900 	.word	0x20400900
  4002a8:	e000e010 	.word	0xe000e010
  4002ac:	023c3460 	.word	0x023c3460
  4002b0:	0303af6b 	.word	0x0303af6b
  4002b4:	20400001 	.word	0x20400001
  4002b8:	20400908 	.word	0x20400908
  4002bc:	20400904 	.word	0x20400904
  4002c0:	0040019d 	.word	0x0040019d
  4002c4:	00061a80 	.word	0x00061a80

004002c8 <sdio_cmd52>:
  4002c8:	b538      	push	{r3, r4, r5, lr}
  4002ca:	9c04      	ldr	r4, [sp, #16]
  4002cc:	0252      	lsls	r2, r2, #9
  4002ce:	ea42 63c3 	orr.w	r3, r2, r3, lsl #27
  4002d2:	ea43 7101 	orr.w	r1, r3, r1, lsl #28
  4002d6:	ea41 70c0 	orr.w	r0, r1, r0, lsl #31
  4002da:	7821      	ldrb	r1, [r4, #0]
  4002dc:	4301      	orrs	r1, r0
  4002de:	f241 3034 	movw	r0, #4916	; 0x1334
  4002e2:	4b04      	ldr	r3, [pc, #16]	; (4002f4 <sdio_cmd52+0x2c>)
  4002e4:	4798      	blx	r3
  4002e6:	4605      	mov	r5, r0
  4002e8:	b110      	cbz	r0, 4002f0 <sdio_cmd52+0x28>
  4002ea:	4b03      	ldr	r3, [pc, #12]	; (4002f8 <sdio_cmd52+0x30>)
  4002ec:	4798      	blx	r3
  4002ee:	7020      	strb	r0, [r4, #0]
  4002f0:	4628      	mov	r0, r5
  4002f2:	bd38      	pop	{r3, r4, r5, pc}
  4002f4:	00400e4d 	.word	0x00400e4d
  4002f8:	00400e71 	.word	0x00400e71

004002fc <sd_mmc_cmd9_mci>:
  4002fc:	b510      	push	{r4, lr}
  4002fe:	4b08      	ldr	r3, [pc, #32]	; (400320 <sd_mmc_cmd9_mci+0x24>)
  400300:	681b      	ldr	r3, [r3, #0]
  400302:	8999      	ldrh	r1, [r3, #12]
  400304:	0409      	lsls	r1, r1, #16
  400306:	f641 3009 	movw	r0, #6921	; 0x1b09
  40030a:	4b06      	ldr	r3, [pc, #24]	; (400324 <sd_mmc_cmd9_mci+0x28>)
  40030c:	4798      	blx	r3
  40030e:	4604      	mov	r4, r0
  400310:	b120      	cbz	r0, 40031c <sd_mmc_cmd9_mci+0x20>
  400312:	4b03      	ldr	r3, [pc, #12]	; (400320 <sd_mmc_cmd9_mci+0x24>)
  400314:	6818      	ldr	r0, [r3, #0]
  400316:	3012      	adds	r0, #18
  400318:	4b03      	ldr	r3, [pc, #12]	; (400328 <sd_mmc_cmd9_mci+0x2c>)
  40031a:	4798      	blx	r3
  40031c:	4620      	mov	r0, r4
  40031e:	bd10      	pop	{r4, pc}
  400320:	20400904 	.word	0x20400904
  400324:	00400e4d 	.word	0x00400e4d
  400328:	00400e79 	.word	0x00400e79

0040032c <sd_mmc_deselect_slot>:
  40032c:	b508      	push	{r3, lr}
  40032e:	4b03      	ldr	r3, [pc, #12]	; (40033c <sd_mmc_deselect_slot+0x10>)
  400330:	781b      	ldrb	r3, [r3, #0]
  400332:	b913      	cbnz	r3, 40033a <sd_mmc_deselect_slot+0xe>
  400334:	2000      	movs	r0, #0
  400336:	4b02      	ldr	r3, [pc, #8]	; (400340 <sd_mmc_deselect_slot+0x14>)
  400338:	4798      	blx	r3
  40033a:	bd08      	pop	{r3, pc}
  40033c:	20400908 	.word	0x20400908
  400340:	00400e25 	.word	0x00400e25

00400344 <sd_mmc_init>:
  400344:	b508      	push	{r3, lr}
  400346:	2010      	movs	r0, #16
  400348:	4b05      	ldr	r3, [pc, #20]	; (400360 <sd_mmc_init+0x1c>)
  40034a:	4798      	blx	r3
  40034c:	2204      	movs	r2, #4
  40034e:	4b05      	ldr	r3, [pc, #20]	; (400364 <sd_mmc_init+0x20>)
  400350:	739a      	strb	r2, [r3, #14]
  400352:	22ff      	movs	r2, #255	; 0xff
  400354:	4b04      	ldr	r3, [pc, #16]	; (400368 <sd_mmc_init+0x24>)
  400356:	701a      	strb	r2, [r3, #0]
  400358:	4b04      	ldr	r3, [pc, #16]	; (40036c <sd_mmc_init+0x28>)
  40035a:	4798      	blx	r3
  40035c:	bd08      	pop	{r3, pc}
  40035e:	bf00      	nop
  400360:	004045d5 	.word	0x004045d5
  400364:	2040000c 	.word	0x2040000c
  400368:	20400908 	.word	0x20400908
  40036c:	00400d45 	.word	0x00400d45

00400370 <sd_mmc_check>:
  400370:	e92d 41f0 	stmdb	sp!, {r4, r5, r6, r7, r8, lr}
  400374:	b094      	sub	sp, #80	; 0x50
  400376:	4ba8      	ldr	r3, [pc, #672]	; (400618 <sd_mmc_check+0x2a8>)
  400378:	4798      	blx	r3
  40037a:	2801      	cmp	r0, #1
  40037c:	d005      	beq.n	40038a <sd_mmc_check+0x1a>
  40037e:	4604      	mov	r4, r0
  400380:	4ba6      	ldr	r3, [pc, #664]	; (40061c <sd_mmc_check+0x2ac>)
  400382:	4798      	blx	r3
  400384:	4620      	mov	r0, r4
  400386:	f000 bc14 	b.w	400bb2 <sd_mmc_check+0x842>
  40038a:	ad14      	add	r5, sp, #80	; 0x50
  40038c:	2308      	movs	r3, #8
  40038e:	f805 3d45 	strb.w	r3, [r5, #-69]!
  400392:	4ba3      	ldr	r3, [pc, #652]	; (400620 <sd_mmc_check+0x2b0>)
  400394:	681b      	ldr	r3, [r3, #0]
  400396:	2601      	movs	r6, #1
  400398:	73de      	strb	r6, [r3, #15]
  40039a:	2400      	movs	r4, #0
  40039c:	741c      	strb	r4, [r3, #16]
  40039e:	819c      	strh	r4, [r3, #12]
  4003a0:	4ba0      	ldr	r3, [pc, #640]	; (400624 <sd_mmc_check+0x2b4>)
  4003a2:	4798      	blx	r3
  4003a4:	9500      	str	r5, [sp, #0]
  4003a6:	4623      	mov	r3, r4
  4003a8:	2206      	movs	r2, #6
  4003aa:	4621      	mov	r1, r4
  4003ac:	4630      	mov	r0, r6
  4003ae:	4d9e      	ldr	r5, [pc, #632]	; (400628 <sd_mmc_check+0x2b8>)
  4003b0:	47a8      	blx	r5
  4003b2:	4621      	mov	r1, r4
  4003b4:	f44f 4080 	mov.w	r0, #16384	; 0x4000
  4003b8:	4b9c      	ldr	r3, [pc, #624]	; (40062c <sd_mmc_check+0x2bc>)
  4003ba:	4798      	blx	r3
  4003bc:	2800      	cmp	r0, #0
  4003be:	f000 83ab 	beq.w	400b18 <sd_mmc_check+0x7a8>
  4003c2:	f44f 71d5 	mov.w	r1, #426	; 0x1aa
  4003c6:	f245 5008 	movw	r0, #21768	; 0x5508
  4003ca:	4b98      	ldr	r3, [pc, #608]	; (40062c <sd_mmc_check+0x2bc>)
  4003cc:	4798      	blx	r3
  4003ce:	2800      	cmp	r0, #0
  4003d0:	f000 83aa 	beq.w	400b28 <sd_mmc_check+0x7b8>
  4003d4:	4b96      	ldr	r3, [pc, #600]	; (400630 <sd_mmc_check+0x2c0>)
  4003d6:	4798      	blx	r3
  4003d8:	f1b0 3fff 	cmp.w	r0, #4294967295
  4003dc:	f000 83a7 	beq.w	400b2e <sd_mmc_check+0x7be>
  4003e0:	f3c0 000b 	ubfx	r0, r0, #0, #12
  4003e4:	f5b0 7fd5 	cmp.w	r0, #426	; 0x1aa
  4003e8:	f040 8396 	bne.w	400b18 <sd_mmc_check+0x7a8>
  4003ec:	46b0      	mov	r8, r6
  4003ee:	e3a0      	b.n	400b32 <sd_mmc_check+0x7c2>
  4003f0:	4b8f      	ldr	r3, [pc, #572]	; (400630 <sd_mmc_check+0x2c0>)
  4003f2:	4798      	blx	r3
  4003f4:	f010 4fe0 	tst.w	r0, #1879048192	; 0x70000000
  4003f8:	f000 83a3 	beq.w	400b42 <sd_mmc_check+0x7d2>
  4003fc:	f241 3489 	movw	r4, #5001	; 0x1389
  400400:	f244 5605 	movw	r6, #17669	; 0x4505
  400404:	4d89      	ldr	r5, [pc, #548]	; (40062c <sd_mmc_check+0x2bc>)
  400406:	4f8a      	ldr	r7, [pc, #552]	; (400630 <sd_mmc_check+0x2c0>)
  400408:	f400 11fc 	and.w	r1, r0, #2064384	; 0x1f8000
  40040c:	4630      	mov	r0, r6
  40040e:	47a8      	blx	r5
  400410:	2800      	cmp	r0, #0
  400412:	f000 8381 	beq.w	400b18 <sd_mmc_check+0x7a8>
  400416:	47b8      	blx	r7
  400418:	2800      	cmp	r0, #0
  40041a:	db02      	blt.n	400422 <sd_mmc_check+0xb2>
  40041c:	3c01      	subs	r4, #1
  40041e:	d1f3      	bne.n	400408 <sd_mmc_check+0x98>
  400420:	e37a      	b.n	400b18 <sd_mmc_check+0x7a8>
  400422:	f010 6f00 	tst.w	r0, #134217728	; 0x8000000
  400426:	d004      	beq.n	400432 <sd_mmc_check+0xc2>
  400428:	4b7d      	ldr	r3, [pc, #500]	; (400620 <sd_mmc_check+0x2b0>)
  40042a:	681b      	ldr	r3, [r3, #0]
  40042c:	2205      	movs	r2, #5
  40042e:	73da      	strb	r2, [r3, #15]
  400430:	e38e      	b.n	400b50 <sd_mmc_check+0x7e0>
  400432:	4b7b      	ldr	r3, [pc, #492]	; (400620 <sd_mmc_check+0x2b0>)
  400434:	681b      	ldr	r3, [r3, #0]
  400436:	2204      	movs	r2, #4
  400438:	73da      	strb	r2, [r3, #15]
  40043a:	e161      	b.n	400700 <sd_mmc_check+0x390>
  40043c:	4641      	mov	r1, r8
  40043e:	f241 1037 	movw	r0, #4407	; 0x1137
  400442:	47a8      	blx	r5
  400444:	2800      	cmp	r0, #0
  400446:	f000 8390 	beq.w	400b6a <sd_mmc_check+0x7fa>
  40044a:	4631      	mov	r1, r6
  40044c:	f244 5029 	movw	r0, #17705	; 0x4529
  400450:	47a8      	blx	r5
  400452:	2800      	cmp	r0, #0
  400454:	f000 8389 	beq.w	400b6a <sd_mmc_check+0x7fa>
  400458:	47b8      	blx	r7
  40045a:	2800      	cmp	r0, #0
  40045c:	da0a      	bge.n	400474 <sd_mmc_check+0x104>
  40045e:	f010 4f80 	tst.w	r0, #1073741824	; 0x40000000
  400462:	f000 838e 	beq.w	400b82 <sd_mmc_check+0x812>
  400466:	4b6e      	ldr	r3, [pc, #440]	; (400620 <sd_mmc_check+0x2b0>)
  400468:	681a      	ldr	r2, [r3, #0]
  40046a:	7bd3      	ldrb	r3, [r2, #15]
  40046c:	f043 0308 	orr.w	r3, r3, #8
  400470:	73d3      	strb	r3, [r2, #15]
  400472:	e386      	b.n	400b82 <sd_mmc_check+0x812>
  400474:	3c01      	subs	r4, #1
  400476:	d1e1      	bne.n	40043c <sd_mmc_check+0xcc>
  400478:	e377      	b.n	400b6a <sd_mmc_check+0x7fa>
  40047a:	f241 0469 	movw	r4, #4201	; 0x1069
  40047e:	4e6d      	ldr	r6, [pc, #436]	; (400634 <sd_mmc_check+0x2c4>)
  400480:	4d6a      	ldr	r5, [pc, #424]	; (40062c <sd_mmc_check+0x2bc>)
  400482:	4f6b      	ldr	r7, [pc, #428]	; (400630 <sd_mmc_check+0x2c0>)
  400484:	4631      	mov	r1, r6
  400486:	f244 5001 	movw	r0, #17665	; 0x4501
  40048a:	47a8      	blx	r5
  40048c:	2800      	cmp	r0, #0
  40048e:	f000 8343 	beq.w	400b18 <sd_mmc_check+0x7a8>
  400492:	47b8      	blx	r7
  400494:	2800      	cmp	r0, #0
  400496:	da0c      	bge.n	4004b2 <sd_mmc_check+0x142>
  400498:	f000 40c0 	and.w	r0, r0, #1610612736	; 0x60000000
  40049c:	f1b0 4f80 	cmp.w	r0, #1073741824	; 0x40000000
  4004a0:	f040 8377 	bne.w	400b92 <sd_mmc_check+0x822>
  4004a4:	4b5e      	ldr	r3, [pc, #376]	; (400620 <sd_mmc_check+0x2b0>)
  4004a6:	681a      	ldr	r2, [r3, #0]
  4004a8:	7bd3      	ldrb	r3, [r2, #15]
  4004aa:	f043 0308 	orr.w	r3, r3, #8
  4004ae:	73d3      	strb	r3, [r2, #15]
  4004b0:	e36f      	b.n	400b92 <sd_mmc_check+0x822>
  4004b2:	3c01      	subs	r4, #1
  4004b4:	d1e6      	bne.n	400484 <sd_mmc_check+0x114>
  4004b6:	e32f      	b.n	400b18 <sd_mmc_check+0x7a8>
  4004b8:	4b59      	ldr	r3, [pc, #356]	; (400620 <sd_mmc_check+0x2b0>)
  4004ba:	681b      	ldr	r3, [r3, #0]
  4004bc:	2201      	movs	r2, #1
  4004be:	819a      	strh	r2, [r3, #12]
  4004c0:	f44f 3180 	mov.w	r1, #65536	; 0x10000
  4004c4:	f241 1003 	movw	r0, #4355	; 0x1103
  4004c8:	4b58      	ldr	r3, [pc, #352]	; (40062c <sd_mmc_check+0x2bc>)
  4004ca:	4798      	blx	r3
  4004cc:	2800      	cmp	r0, #0
  4004ce:	f000 8323 	beq.w	400b18 <sd_mmc_check+0x7a8>
  4004d2:	4b59      	ldr	r3, [pc, #356]	; (400638 <sd_mmc_check+0x2c8>)
  4004d4:	4798      	blx	r3
  4004d6:	2800      	cmp	r0, #0
  4004d8:	f000 831e 	beq.w	400b18 <sd_mmc_check+0x7a8>
  4004dc:	4b50      	ldr	r3, [pc, #320]	; (400620 <sd_mmc_check+0x2b0>)
  4004de:	6819      	ldr	r1, [r3, #0]
  4004e0:	7c8b      	ldrb	r3, [r1, #18]
  4004e2:	f3c3 0383 	ubfx	r3, r3, #2, #4
  4004e6:	3b01      	subs	r3, #1
  4004e8:	2b03      	cmp	r3, #3
  4004ea:	d803      	bhi.n	4004f4 <sd_mmc_check+0x184>
  4004ec:	e8df f003 	tbb	[pc, r3]
  4004f0:	0e0b0805 	.word	0x0e0b0805
  4004f4:	2312      	movs	r3, #18
  4004f6:	740b      	strb	r3, [r1, #16]
  4004f8:	e00a      	b.n	400510 <sd_mmc_check+0x1a0>
  4004fa:	2314      	movs	r3, #20
  4004fc:	740b      	strb	r3, [r1, #16]
  4004fe:	e007      	b.n	400510 <sd_mmc_check+0x1a0>
  400500:	2322      	movs	r3, #34	; 0x22
  400502:	740b      	strb	r3, [r1, #16]
  400504:	e004      	b.n	400510 <sd_mmc_check+0x1a0>
  400506:	2330      	movs	r3, #48	; 0x30
  400508:	740b      	strb	r3, [r1, #16]
  40050a:	e001      	b.n	400510 <sd_mmc_check+0x1a0>
  40050c:	2340      	movs	r3, #64	; 0x40
  40050e:	740b      	strb	r3, [r1, #16]
  400510:	7d4b      	ldrb	r3, [r1, #21]
  400512:	f3c3 00c3 	ubfx	r0, r3, #3, #4
  400516:	f003 0307 	and.w	r3, r3, #7
  40051a:	4a48      	ldr	r2, [pc, #288]	; (40063c <sd_mmc_check+0x2cc>)
  40051c:	f852 2023 	ldr.w	r2, [r2, r3, lsl #2]
  400520:	f44f 737a 	mov.w	r3, #1000	; 0x3e8
  400524:	fb03 f302 	mul.w	r3, r3, r2
  400528:	4a45      	ldr	r2, [pc, #276]	; (400640 <sd_mmc_check+0x2d0>)
  40052a:	f852 2020 	ldr.w	r2, [r2, r0, lsl #2]
  40052e:	fb03 f302 	mul.w	r3, r3, r2
  400532:	600b      	str	r3, [r1, #0]
  400534:	7e88      	ldrb	r0, [r1, #26]
  400536:	7e4b      	ldrb	r3, [r1, #25]
  400538:	7e0a      	ldrb	r2, [r1, #24]
  40053a:	0292      	lsls	r2, r2, #10
  40053c:	ea42 0383 	orr.w	r3, r2, r3, lsl #2
  400540:	ea43 13a0 	orr.w	r3, r3, r0, asr #6
  400544:	f3c3 030b 	ubfx	r3, r3, #0, #12
  400548:	f640 72ff 	movw	r2, #4095	; 0xfff
  40054c:	4293      	cmp	r3, r2
  40054e:	d00f      	beq.n	400570 <sd_mmc_check+0x200>
  400550:	7f08      	ldrb	r0, [r1, #28]
  400552:	7eca      	ldrb	r2, [r1, #27]
  400554:	0052      	lsls	r2, r2, #1
  400556:	ea42 12e0 	orr.w	r2, r2, r0, asr #7
  40055a:	3301      	adds	r3, #1
  40055c:	f002 0207 	and.w	r2, r2, #7
  400560:	3202      	adds	r2, #2
  400562:	4093      	lsls	r3, r2
  400564:	7dca      	ldrb	r2, [r1, #23]
  400566:	f002 020f 	and.w	r2, r2, #15
  40056a:	4093      	lsls	r3, r2
  40056c:	0a9b      	lsrs	r3, r3, #10
  40056e:	604b      	str	r3, [r1, #4]
  400570:	8989      	ldrh	r1, [r1, #12]
  400572:	0409      	lsls	r1, r1, #16
  400574:	f243 1007 	movw	r0, #12551	; 0x3107
  400578:	4b2c      	ldr	r3, [pc, #176]	; (40062c <sd_mmc_check+0x2bc>)
  40057a:	4798      	blx	r3
  40057c:	2800      	cmp	r0, #0
  40057e:	f000 82cb 	beq.w	400b18 <sd_mmc_check+0x7a8>
  400582:	4b27      	ldr	r3, [pc, #156]	; (400620 <sd_mmc_check+0x2b0>)
  400584:	681b      	ldr	r3, [r3, #0]
  400586:	7c1b      	ldrb	r3, [r3, #16]
  400588:	2b3f      	cmp	r3, #63	; 0x3f
  40058a:	f240 809d 	bls.w	4006c8 <sd_mmc_check+0x358>
  40058e:	2100      	movs	r1, #0
  400590:	9100      	str	r1, [sp, #0]
  400592:	2301      	movs	r3, #1
  400594:	f44f 7200 	mov.w	r2, #512	; 0x200
  400598:	482a      	ldr	r0, [pc, #168]	; (400644 <sd_mmc_check+0x2d4>)
  40059a:	4c2b      	ldr	r4, [pc, #172]	; (400648 <sd_mmc_check+0x2d8>)
  40059c:	47a0      	blx	r4
  40059e:	2800      	cmp	r0, #0
  4005a0:	f000 82ba 	beq.w	400b18 <sd_mmc_check+0x7a8>
  4005a4:	2400      	movs	r4, #0
  4005a6:	4d29      	ldr	r5, [pc, #164]	; (40064c <sd_mmc_check+0x2dc>)
  4005a8:	a803      	add	r0, sp, #12
  4005aa:	47a8      	blx	r5
  4005ac:	2800      	cmp	r0, #0
  4005ae:	f000 82b3 	beq.w	400b18 <sd_mmc_check+0x7a8>
  4005b2:	3401      	adds	r4, #1
  4005b4:	b2a4      	uxth	r4, r4
  4005b6:	2c32      	cmp	r4, #50	; 0x32
  4005b8:	d1f6      	bne.n	4005a8 <sd_mmc_check+0x238>
  4005ba:	9b03      	ldr	r3, [sp, #12]
  4005bc:	f003 0302 	and.w	r3, r3, #2
  4005c0:	b2dd      	uxtb	r5, r3
  4005c2:	4b17      	ldr	r3, [pc, #92]	; (400620 <sd_mmc_check+0x2b0>)
  4005c4:	681a      	ldr	r2, [r3, #0]
  4005c6:	7e91      	ldrb	r1, [r2, #26]
  4005c8:	7e53      	ldrb	r3, [r2, #25]
  4005ca:	7e12      	ldrb	r2, [r2, #24]
  4005cc:	0292      	lsls	r2, r2, #10
  4005ce:	ea42 0383 	orr.w	r3, r2, r3, lsl #2
  4005d2:	ea43 13a1 	orr.w	r3, r3, r1, asr #6
  4005d6:	f3c3 030b 	ubfx	r3, r3, #0, #12
  4005da:	f640 72ff 	movw	r2, #4095	; 0xfff
  4005de:	4293      	cmp	r3, r2
  4005e0:	d10e      	bne.n	400600 <sd_mmc_check+0x290>
  4005e2:	4e1a      	ldr	r6, [pc, #104]	; (40064c <sd_mmc_check+0x2dc>)
  4005e4:	a804      	add	r0, sp, #16
  4005e6:	47b0      	blx	r6
  4005e8:	2800      	cmp	r0, #0
  4005ea:	f000 8295 	beq.w	400b18 <sd_mmc_check+0x7a8>
  4005ee:	3401      	adds	r4, #1
  4005f0:	b2a4      	uxth	r4, r4
  4005f2:	2c35      	cmp	r4, #53	; 0x35
  4005f4:	d9f6      	bls.n	4005e4 <sd_mmc_check+0x274>
  4005f6:	4b0a      	ldr	r3, [pc, #40]	; (400620 <sd_mmc_check+0x2b0>)
  4005f8:	681a      	ldr	r2, [r3, #0]
  4005fa:	9b04      	ldr	r3, [sp, #16]
  4005fc:	085b      	lsrs	r3, r3, #1
  4005fe:	6053      	str	r3, [r2, #4]
  400600:	4e12      	ldr	r6, [pc, #72]	; (40064c <sd_mmc_check+0x2dc>)
  400602:	e006      	b.n	400612 <sd_mmc_check+0x2a2>
  400604:	a804      	add	r0, sp, #16
  400606:	47b0      	blx	r6
  400608:	2800      	cmp	r0, #0
  40060a:	f000 8285 	beq.w	400b18 <sd_mmc_check+0x7a8>
  40060e:	3401      	adds	r4, #1
  400610:	b2a4      	uxth	r4, r4
  400612:	2c7f      	cmp	r4, #127	; 0x7f
  400614:	d9f6      	bls.n	400604 <sd_mmc_check+0x294>
  400616:	e2c4      	b.n	400ba2 <sd_mmc_check+0x832>
  400618:	004001c9 	.word	0x004001c9
  40061c:	0040032d 	.word	0x0040032d
  400620:	20400904 	.word	0x20400904
  400624:	00400e29 	.word	0x00400e29
  400628:	004002c9 	.word	0x004002c9
  40062c:	00400e4d 	.word	0x00400e4d
  400630:	00400e71 	.word	0x00400e71
  400634:	401f8000 	.word	0x401f8000
  400638:	004002fd 	.word	0x004002fd
  40063c:	0040b88c 	.word	0x0040b88c
  400640:	0040b8a8 	.word	0x0040b8a8
  400644:	00081108 	.word	0x00081108
  400648:	00400ea9 	.word	0x00400ea9
  40064c:	00400f71 	.word	0x00400f71
  400650:	4ba4      	ldr	r3, [pc, #656]	; (4008e4 <sd_mmc_check+0x574>)
  400652:	7818      	ldrb	r0, [r3, #0]
  400654:	4ba4      	ldr	r3, [pc, #656]	; (4008e8 <sd_mmc_check+0x578>)
  400656:	4798      	blx	r3
  400658:	4604      	mov	r4, r0
  40065a:	2804      	cmp	r0, #4
  40065c:	d005      	beq.n	40066a <sd_mmc_check+0x2fa>
  40065e:	49a3      	ldr	r1, [pc, #652]	; (4008ec <sd_mmc_check+0x57c>)
  400660:	4ba3      	ldr	r3, [pc, #652]	; (4008f0 <sd_mmc_check+0x580>)
  400662:	2808      	cmp	r0, #8
  400664:	bf08      	it	eq
  400666:	4619      	moveq	r1, r3
  400668:	e000      	b.n	40066c <sd_mmc_check+0x2fc>
  40066a:	49a2      	ldr	r1, [pc, #648]	; (4008f4 <sd_mmc_check+0x584>)
  40066c:	f243 1006 	movw	r0, #12550	; 0x3106
  400670:	4ba1      	ldr	r3, [pc, #644]	; (4008f8 <sd_mmc_check+0x588>)
  400672:	4798      	blx	r3
  400674:	2800      	cmp	r0, #0
  400676:	f000 824f 	beq.w	400b18 <sd_mmc_check+0x7a8>
  40067a:	4ba0      	ldr	r3, [pc, #640]	; (4008fc <sd_mmc_check+0x58c>)
  40067c:	4798      	blx	r3
  40067e:	f010 0f80 	tst.w	r0, #128	; 0x80
  400682:	f040 8249 	bne.w	400b18 <sd_mmc_check+0x7a8>
  400686:	4b9e      	ldr	r3, [pc, #632]	; (400900 <sd_mmc_check+0x590>)
  400688:	681b      	ldr	r3, [r3, #0]
  40068a:	745c      	strb	r4, [r3, #17]
  40068c:	4b9d      	ldr	r3, [pc, #628]	; (400904 <sd_mmc_check+0x594>)
  40068e:	4798      	blx	r3
  400690:	4b9d      	ldr	r3, [pc, #628]	; (400908 <sd_mmc_check+0x598>)
  400692:	4798      	blx	r3
  400694:	b305      	cbz	r5, 4006d8 <sd_mmc_check+0x368>
  400696:	b1f8      	cbz	r0, 4006d8 <sd_mmc_check+0x368>
  400698:	499c      	ldr	r1, [pc, #624]	; (40090c <sd_mmc_check+0x59c>)
  40069a:	f243 1006 	movw	r0, #12550	; 0x3106
  40069e:	4b96      	ldr	r3, [pc, #600]	; (4008f8 <sd_mmc_check+0x588>)
  4006a0:	4798      	blx	r3
  4006a2:	2800      	cmp	r0, #0
  4006a4:	f000 8238 	beq.w	400b18 <sd_mmc_check+0x7a8>
  4006a8:	4b94      	ldr	r3, [pc, #592]	; (4008fc <sd_mmc_check+0x58c>)
  4006aa:	4798      	blx	r3
  4006ac:	f010 0f80 	tst.w	r0, #128	; 0x80
  4006b0:	f040 8232 	bne.w	400b18 <sd_mmc_check+0x7a8>
  4006b4:	4b92      	ldr	r3, [pc, #584]	; (400900 <sd_mmc_check+0x590>)
  4006b6:	681b      	ldr	r3, [r3, #0]
  4006b8:	2201      	movs	r2, #1
  4006ba:	f883 2022 	strb.w	r2, [r3, #34]	; 0x22
  4006be:	4a94      	ldr	r2, [pc, #592]	; (400910 <sd_mmc_check+0x5a0>)
  4006c0:	601a      	str	r2, [r3, #0]
  4006c2:	4b90      	ldr	r3, [pc, #576]	; (400904 <sd_mmc_check+0x594>)
  4006c4:	4798      	blx	r3
  4006c6:	e007      	b.n	4006d8 <sd_mmc_check+0x368>
  4006c8:	4b8e      	ldr	r3, [pc, #568]	; (400904 <sd_mmc_check+0x594>)
  4006ca:	4798      	blx	r3
  4006cc:	e004      	b.n	4006d8 <sd_mmc_check+0x368>
  4006ce:	4639      	mov	r1, r7
  4006d0:	4630      	mov	r0, r6
  4006d2:	47a8      	blx	r5
  4006d4:	b138      	cbz	r0, 4006e6 <sd_mmc_check+0x376>
  4006d6:	e217      	b.n	400b08 <sd_mmc_check+0x798>
  4006d8:	240a      	movs	r4, #10
  4006da:	f44f 7700 	mov.w	r7, #512	; 0x200
  4006de:	f241 1610 	movw	r6, #4368	; 0x1110
  4006e2:	4d85      	ldr	r5, [pc, #532]	; (4008f8 <sd_mmc_check+0x588>)
  4006e4:	e7f3      	b.n	4006ce <sd_mmc_check+0x35e>
  4006e6:	3c01      	subs	r4, #1
  4006e8:	f014 04ff 	ands.w	r4, r4, #255	; 0xff
  4006ec:	d1ef      	bne.n	4006ce <sd_mmc_check+0x35e>
  4006ee:	e213      	b.n	400b18 <sd_mmc_check+0x7a8>
  4006f0:	2100      	movs	r1, #0
  4006f2:	f645 3002 	movw	r0, #23298	; 0x5b02
  4006f6:	4b80      	ldr	r3, [pc, #512]	; (4008f8 <sd_mmc_check+0x588>)
  4006f8:	4798      	blx	r3
  4006fa:	2800      	cmp	r0, #0
  4006fc:	f000 820c 	beq.w	400b18 <sd_mmc_check+0x7a8>
  400700:	2100      	movs	r1, #0
  400702:	f245 1003 	movw	r0, #20739	; 0x5103
  400706:	4b7c      	ldr	r3, [pc, #496]	; (4008f8 <sd_mmc_check+0x588>)
  400708:	4798      	blx	r3
  40070a:	2800      	cmp	r0, #0
  40070c:	f000 8204 	beq.w	400b18 <sd_mmc_check+0x7a8>
  400710:	4c7b      	ldr	r4, [pc, #492]	; (400900 <sd_mmc_check+0x590>)
  400712:	6825      	ldr	r5, [r4, #0]
  400714:	4b79      	ldr	r3, [pc, #484]	; (4008fc <sd_mmc_check+0x58c>)
  400716:	4798      	blx	r3
  400718:	0c00      	lsrs	r0, r0, #16
  40071a:	81a8      	strh	r0, [r5, #12]
  40071c:	6823      	ldr	r3, [r4, #0]
  40071e:	7bdb      	ldrb	r3, [r3, #15]
  400720:	f013 0f01 	tst.w	r3, #1
  400724:	d041      	beq.n	4007aa <sd_mmc_check+0x43a>
  400726:	4b7b      	ldr	r3, [pc, #492]	; (400914 <sd_mmc_check+0x5a4>)
  400728:	4798      	blx	r3
  40072a:	2800      	cmp	r0, #0
  40072c:	f000 81f4 	beq.w	400b18 <sd_mmc_check+0x7a8>
  400730:	6823      	ldr	r3, [r4, #0]
  400732:	7d5a      	ldrb	r2, [r3, #21]
  400734:	f3c2 00c3 	ubfx	r0, r2, #3, #4
  400738:	f002 0207 	and.w	r2, r2, #7
  40073c:	4976      	ldr	r1, [pc, #472]	; (400918 <sd_mmc_check+0x5a8>)
  40073e:	f851 1022 	ldr.w	r1, [r1, r2, lsl #2]
  400742:	f44f 727a 	mov.w	r2, #1000	; 0x3e8
  400746:	fb02 f201 	mul.w	r2, r2, r1
  40074a:	4974      	ldr	r1, [pc, #464]	; (40091c <sd_mmc_check+0x5ac>)
  40074c:	f851 1020 	ldr.w	r1, [r1, r0, lsl #2]
  400750:	fb02 f201 	mul.w	r2, r2, r1
  400754:	601a      	str	r2, [r3, #0]
  400756:	7c9a      	ldrb	r2, [r3, #18]
  400758:	0992      	lsrs	r2, r2, #6
  40075a:	d00c      	beq.n	400776 <sd_mmc_check+0x406>
  40075c:	7eda      	ldrb	r2, [r3, #27]
  40075e:	7e98      	ldrb	r0, [r3, #26]
  400760:	7e59      	ldrb	r1, [r3, #25]
  400762:	0409      	lsls	r1, r1, #16
  400764:	ea41 2100 	orr.w	r1, r1, r0, lsl #8
  400768:	430a      	orrs	r2, r1
  40076a:	f3c2 0215 	ubfx	r2, r2, #0, #22
  40076e:	3201      	adds	r2, #1
  400770:	0252      	lsls	r2, r2, #9
  400772:	605a      	str	r2, [r3, #4]
  400774:	e019      	b.n	4007aa <sd_mmc_check+0x43a>
  400776:	7e98      	ldrb	r0, [r3, #26]
  400778:	7e5a      	ldrb	r2, [r3, #25]
  40077a:	7e19      	ldrb	r1, [r3, #24]
  40077c:	0289      	lsls	r1, r1, #10
  40077e:	ea41 0282 	orr.w	r2, r1, r2, lsl #2
  400782:	ea42 12a0 	orr.w	r2, r2, r0, asr #6
  400786:	7f18      	ldrb	r0, [r3, #28]
  400788:	7ed9      	ldrb	r1, [r3, #27]
  40078a:	0049      	lsls	r1, r1, #1
  40078c:	ea41 11e0 	orr.w	r1, r1, r0, asr #7
  400790:	f3c2 020b 	ubfx	r2, r2, #0, #12
  400794:	3201      	adds	r2, #1
  400796:	f001 0107 	and.w	r1, r1, #7
  40079a:	3102      	adds	r1, #2
  40079c:	408a      	lsls	r2, r1
  40079e:	7dd9      	ldrb	r1, [r3, #23]
  4007a0:	f001 010f 	and.w	r1, r1, #15
  4007a4:	408a      	lsls	r2, r1
  4007a6:	0a92      	lsrs	r2, r2, #10
  4007a8:	605a      	str	r2, [r3, #4]
  4007aa:	4b55      	ldr	r3, [pc, #340]	; (400900 <sd_mmc_check+0x590>)
  4007ac:	681b      	ldr	r3, [r3, #0]
  4007ae:	8999      	ldrh	r1, [r3, #12]
  4007b0:	0409      	lsls	r1, r1, #16
  4007b2:	f243 1007 	movw	r0, #12551	; 0x3107
  4007b6:	4b50      	ldr	r3, [pc, #320]	; (4008f8 <sd_mmc_check+0x588>)
  4007b8:	4798      	blx	r3
  4007ba:	2800      	cmp	r0, #0
  4007bc:	f000 81ac 	beq.w	400b18 <sd_mmc_check+0x7a8>
  4007c0:	4b4f      	ldr	r3, [pc, #316]	; (400900 <sd_mmc_check+0x590>)
  4007c2:	681b      	ldr	r3, [r3, #0]
  4007c4:	7bda      	ldrb	r2, [r3, #15]
  4007c6:	f012 0f01 	tst.w	r2, #1
  4007ca:	d040      	beq.n	40084e <sd_mmc_check+0x4de>
  4007cc:	8999      	ldrh	r1, [r3, #12]
  4007ce:	0409      	lsls	r1, r1, #16
  4007d0:	f241 1037 	movw	r0, #4407	; 0x1137
  4007d4:	4b48      	ldr	r3, [pc, #288]	; (4008f8 <sd_mmc_check+0x588>)
  4007d6:	4798      	blx	r3
  4007d8:	2800      	cmp	r0, #0
  4007da:	f000 819d 	beq.w	400b18 <sd_mmc_check+0x7a8>
  4007de:	2301      	movs	r3, #1
  4007e0:	9300      	str	r3, [sp, #0]
  4007e2:	2208      	movs	r2, #8
  4007e4:	2100      	movs	r1, #0
  4007e6:	484e      	ldr	r0, [pc, #312]	; (400920 <sd_mmc_check+0x5b0>)
  4007e8:	4c4e      	ldr	r4, [pc, #312]	; (400924 <sd_mmc_check+0x5b4>)
  4007ea:	47a0      	blx	r4
  4007ec:	2800      	cmp	r0, #0
  4007ee:	f000 8193 	beq.w	400b18 <sd_mmc_check+0x7a8>
  4007f2:	2101      	movs	r1, #1
  4007f4:	a804      	add	r0, sp, #16
  4007f6:	4b4c      	ldr	r3, [pc, #304]	; (400928 <sd_mmc_check+0x5b8>)
  4007f8:	4798      	blx	r3
  4007fa:	2800      	cmp	r0, #0
  4007fc:	f000 818c 	beq.w	400b18 <sd_mmc_check+0x7a8>
  400800:	4b4a      	ldr	r3, [pc, #296]	; (40092c <sd_mmc_check+0x5bc>)
  400802:	4798      	blx	r3
  400804:	2800      	cmp	r0, #0
  400806:	f000 8187 	beq.w	400b18 <sd_mmc_check+0x7a8>
  40080a:	f89d 3010 	ldrb.w	r3, [sp, #16]
  40080e:	f003 030f 	and.w	r3, r3, #15
  400812:	2b01      	cmp	r3, #1
  400814:	d008      	beq.n	400828 <sd_mmc_check+0x4b8>
  400816:	b113      	cbz	r3, 40081e <sd_mmc_check+0x4ae>
  400818:	2b02      	cmp	r3, #2
  40081a:	d00a      	beq.n	400832 <sd_mmc_check+0x4c2>
  40081c:	e013      	b.n	400846 <sd_mmc_check+0x4d6>
  40081e:	4b38      	ldr	r3, [pc, #224]	; (400900 <sd_mmc_check+0x590>)
  400820:	681b      	ldr	r3, [r3, #0]
  400822:	2210      	movs	r2, #16
  400824:	741a      	strb	r2, [r3, #16]
  400826:	e012      	b.n	40084e <sd_mmc_check+0x4de>
  400828:	4b35      	ldr	r3, [pc, #212]	; (400900 <sd_mmc_check+0x590>)
  40082a:	681b      	ldr	r3, [r3, #0]
  40082c:	221a      	movs	r2, #26
  40082e:	741a      	strb	r2, [r3, #16]
  400830:	e00d      	b.n	40084e <sd_mmc_check+0x4de>
  400832:	f89d 3012 	ldrb.w	r3, [sp, #18]
  400836:	09db      	lsrs	r3, r3, #7
  400838:	4b31      	ldr	r3, [pc, #196]	; (400900 <sd_mmc_check+0x590>)
  40083a:	681b      	ldr	r3, [r3, #0]
  40083c:	bf14      	ite	ne
  40083e:	2230      	movne	r2, #48	; 0x30
  400840:	2220      	moveq	r2, #32
  400842:	741a      	strb	r2, [r3, #16]
  400844:	e003      	b.n	40084e <sd_mmc_check+0x4de>
  400846:	4b2e      	ldr	r3, [pc, #184]	; (400900 <sd_mmc_check+0x590>)
  400848:	681b      	ldr	r3, [r3, #0]
  40084a:	2210      	movs	r2, #16
  40084c:	741a      	strb	r2, [r3, #16]
  40084e:	4b2c      	ldr	r3, [pc, #176]	; (400900 <sd_mmc_check+0x590>)
  400850:	681b      	ldr	r3, [r3, #0]
  400852:	7bdb      	ldrb	r3, [r3, #15]
  400854:	f013 0f04 	tst.w	r3, #4
  400858:	f000 8093 	beq.w	400982 <sd_mmc_check+0x612>
  40085c:	2409      	movs	r4, #9
  40085e:	2600      	movs	r6, #0
  400860:	4d33      	ldr	r5, [pc, #204]	; (400930 <sd_mmc_check+0x5c0>)
  400862:	f1a4 0309 	sub.w	r3, r4, #9
  400866:	aa03      	add	r2, sp, #12
  400868:	4413      	add	r3, r2
  40086a:	9300      	str	r3, [sp, #0]
  40086c:	4633      	mov	r3, r6
  40086e:	4622      	mov	r2, r4
  400870:	4631      	mov	r1, r6
  400872:	4630      	mov	r0, r6
  400874:	47a8      	blx	r5
  400876:	3401      	adds	r4, #1
  400878:	2c0d      	cmp	r4, #13
  40087a:	d1f2      	bne.n	400862 <sd_mmc_check+0x4f2>
  40087c:	f89d 200d 	ldrb.w	r2, [sp, #13]
  400880:	f89d 300c 	ldrb.w	r3, [sp, #12]
  400884:	eb03 2302 	add.w	r3, r3, r2, lsl #8
  400888:	f89d 800e 	ldrb.w	r8, [sp, #14]
  40088c:	eb03 4308 	add.w	r3, r3, r8, lsl #16
  400890:	f89d 800f 	ldrb.w	r8, [sp, #15]
  400894:	eb03 6808 	add.w	r8, r3, r8, lsl #24
  400898:	4645      	mov	r5, r8
  40089a:	4f25      	ldr	r7, [pc, #148]	; (400930 <sd_mmc_check+0x5c0>)
  40089c:	2400      	movs	r4, #0
  40089e:	4626      	mov	r6, r4
  4008a0:	ab04      	add	r3, sp, #16
  4008a2:	4423      	add	r3, r4
  4008a4:	9300      	str	r3, [sp, #0]
  4008a6:	4633      	mov	r3, r6
  4008a8:	192a      	adds	r2, r5, r4
  4008aa:	4631      	mov	r1, r6
  4008ac:	4630      	mov	r0, r6
  4008ae:	47b8      	blx	r7
  4008b0:	3401      	adds	r4, #1
  4008b2:	2c03      	cmp	r4, #3
  4008b4:	d1f4      	bne.n	4008a0 <sd_mmc_check+0x530>
  4008b6:	f89d 3010 	ldrb.w	r3, [sp, #16]
  4008ba:	2bff      	cmp	r3, #255	; 0xff
  4008bc:	f000 812c 	beq.w	400b18 <sd_mmc_check+0x7a8>
  4008c0:	2b22      	cmp	r3, #34	; 0x22
  4008c2:	d102      	bne.n	4008ca <sd_mmc_check+0x55a>
  4008c4:	f89d 3012 	ldrb.w	r3, [sp, #18]
  4008c8:	b3a3      	cbz	r3, 400934 <sd_mmc_check+0x5c4>
  4008ca:	f89d 3011 	ldrb.w	r3, [sp, #17]
  4008ce:	2b00      	cmp	r3, #0
  4008d0:	f000 8122 	beq.w	400b18 <sd_mmc_check+0x7a8>
  4008d4:	3302      	adds	r3, #2
  4008d6:	441d      	add	r5, r3
  4008d8:	f508 7380 	add.w	r3, r8, #256	; 0x100
  4008dc:	429d      	cmp	r5, r3
  4008de:	d9dd      	bls.n	40089c <sd_mmc_check+0x52c>
  4008e0:	e11a      	b.n	400b18 <sd_mmc_check+0x7a8>
  4008e2:	bf00      	nop
  4008e4:	20400908 	.word	0x20400908
  4008e8:	00400d71 	.word	0x00400d71
  4008ec:	01b70000 	.word	0x01b70000
  4008f0:	01b70200 	.word	0x01b70200
  4008f4:	01b70100 	.word	0x01b70100
  4008f8:	00400e4d 	.word	0x00400e4d
  4008fc:	00400e71 	.word	0x00400e71
  400900:	20400904 	.word	0x20400904
  400904:	0040019d 	.word	0x0040019d
  400908:	00400d7d 	.word	0x00400d7d
  40090c:	03b90100 	.word	0x03b90100
  400910:	03197500 	.word	0x03197500
  400914:	004002fd 	.word	0x004002fd
  400918:	0040b88c 	.word	0x0040b88c
  40091c:	0040b84c 	.word	0x0040b84c
  400920:	00081133 	.word	0x00081133
  400924:	00400ea9 	.word	0x00400ea9
  400928:	00400fe5 	.word	0x00400fe5
  40092c:	00401099 	.word	0x00401099
  400930:	004002c9 	.word	0x004002c9
  400934:	ac04      	add	r4, sp, #16
  400936:	f105 0806 	add.w	r8, r5, #6
  40093a:	2700      	movs	r7, #0
  40093c:	4e9e      	ldr	r6, [pc, #632]	; (400bb8 <sd_mmc_check+0x848>)
  40093e:	9400      	str	r4, [sp, #0]
  400940:	463b      	mov	r3, r7
  400942:	462a      	mov	r2, r5
  400944:	4639      	mov	r1, r7
  400946:	4638      	mov	r0, r7
  400948:	47b0      	blx	r6
  40094a:	3501      	adds	r5, #1
  40094c:	3401      	adds	r4, #1
  40094e:	4545      	cmp	r5, r8
  400950:	d1f5      	bne.n	40093e <sd_mmc_check+0x5ce>
  400952:	f89d 3015 	ldrb.w	r3, [sp, #21]
  400956:	2b32      	cmp	r3, #50	; 0x32
  400958:	bf28      	it	cs
  40095a:	2332      	movcs	r3, #50	; 0x32
  40095c:	4a97      	ldr	r2, [pc, #604]	; (400bbc <sd_mmc_check+0x84c>)
  40095e:	6812      	ldr	r2, [r2, #0]
  400960:	f3c3 00c3 	ubfx	r0, r3, #3, #4
  400964:	f003 0307 	and.w	r3, r3, #7
  400968:	4995      	ldr	r1, [pc, #596]	; (400bc0 <sd_mmc_check+0x850>)
  40096a:	f851 1023 	ldr.w	r1, [r1, r3, lsl #2]
  40096e:	f44f 737a 	mov.w	r3, #1000	; 0x3e8
  400972:	fb03 f301 	mul.w	r3, r3, r1
  400976:	4993      	ldr	r1, [pc, #588]	; (400bc4 <sd_mmc_check+0x854>)
  400978:	f851 1020 	ldr.w	r1, [r1, r0, lsl #2]
  40097c:	fb03 f301 	mul.w	r3, r3, r1
  400980:	6013      	str	r3, [r2, #0]
  400982:	4b91      	ldr	r3, [pc, #580]	; (400bc8 <sd_mmc_check+0x858>)
  400984:	7818      	ldrb	r0, [r3, #0]
  400986:	4b91      	ldr	r3, [pc, #580]	; (400bcc <sd_mmc_check+0x85c>)
  400988:	4798      	blx	r3
  40098a:	2803      	cmp	r0, #3
  40098c:	d942      	bls.n	400a14 <sd_mmc_check+0x6a4>
  40098e:	4b8b      	ldr	r3, [pc, #556]	; (400bbc <sd_mmc_check+0x84c>)
  400990:	681b      	ldr	r3, [r3, #0]
  400992:	7bdb      	ldrb	r3, [r3, #15]
  400994:	f013 0f04 	tst.w	r3, #4
  400998:	d01f      	beq.n	4009da <sd_mmc_check+0x66a>
  40099a:	ab04      	add	r3, sp, #16
  40099c:	9300      	str	r3, [sp, #0]
  40099e:	2300      	movs	r3, #0
  4009a0:	2208      	movs	r2, #8
  4009a2:	4619      	mov	r1, r3
  4009a4:	4618      	mov	r0, r3
  4009a6:	4c84      	ldr	r4, [pc, #528]	; (400bb8 <sd_mmc_check+0x848>)
  4009a8:	47a0      	blx	r4
  4009aa:	2800      	cmp	r0, #0
  4009ac:	f000 80b4 	beq.w	400b18 <sd_mmc_check+0x7a8>
  4009b0:	f99d 3010 	ldrsb.w	r3, [sp, #16]
  4009b4:	2b00      	cmp	r3, #0
  4009b6:	da10      	bge.n	4009da <sd_mmc_check+0x66a>
  4009b8:	ab14      	add	r3, sp, #80	; 0x50
  4009ba:	2202      	movs	r2, #2
  4009bc:	f803 2d40 	strb.w	r2, [r3, #-64]!
  4009c0:	9300      	str	r3, [sp, #0]
  4009c2:	2301      	movs	r3, #1
  4009c4:	2207      	movs	r2, #7
  4009c6:	2100      	movs	r1, #0
  4009c8:	4618      	mov	r0, r3
  4009ca:	47a0      	blx	r4
  4009cc:	2800      	cmp	r0, #0
  4009ce:	f000 80a3 	beq.w	400b18 <sd_mmc_check+0x7a8>
  4009d2:	4b7a      	ldr	r3, [pc, #488]	; (400bbc <sd_mmc_check+0x84c>)
  4009d4:	681b      	ldr	r3, [r3, #0]
  4009d6:	2204      	movs	r2, #4
  4009d8:	745a      	strb	r2, [r3, #17]
  4009da:	4b78      	ldr	r3, [pc, #480]	; (400bbc <sd_mmc_check+0x84c>)
  4009dc:	681b      	ldr	r3, [r3, #0]
  4009de:	7bda      	ldrb	r2, [r3, #15]
  4009e0:	f012 0f01 	tst.w	r2, #1
  4009e4:	d014      	beq.n	400a10 <sd_mmc_check+0x6a0>
  4009e6:	8999      	ldrh	r1, [r3, #12]
  4009e8:	0409      	lsls	r1, r1, #16
  4009ea:	f241 1037 	movw	r0, #4407	; 0x1137
  4009ee:	4b78      	ldr	r3, [pc, #480]	; (400bd0 <sd_mmc_check+0x860>)
  4009f0:	4798      	blx	r3
  4009f2:	2800      	cmp	r0, #0
  4009f4:	f000 8090 	beq.w	400b18 <sd_mmc_check+0x7a8>
  4009f8:	2102      	movs	r1, #2
  4009fa:	f241 1006 	movw	r0, #4358	; 0x1106
  4009fe:	4b74      	ldr	r3, [pc, #464]	; (400bd0 <sd_mmc_check+0x860>)
  400a00:	4798      	blx	r3
  400a02:	2800      	cmp	r0, #0
  400a04:	f000 8088 	beq.w	400b18 <sd_mmc_check+0x7a8>
  400a08:	4b6c      	ldr	r3, [pc, #432]	; (400bbc <sd_mmc_check+0x84c>)
  400a0a:	681b      	ldr	r3, [r3, #0]
  400a0c:	2204      	movs	r2, #4
  400a0e:	745a      	strb	r2, [r3, #17]
  400a10:	4b70      	ldr	r3, [pc, #448]	; (400bd4 <sd_mmc_check+0x864>)
  400a12:	4798      	blx	r3
  400a14:	4b70      	ldr	r3, [pc, #448]	; (400bd8 <sd_mmc_check+0x868>)
  400a16:	4798      	blx	r3
  400a18:	2800      	cmp	r0, #0
  400a1a:	d068      	beq.n	400aee <sd_mmc_check+0x77e>
  400a1c:	4b67      	ldr	r3, [pc, #412]	; (400bbc <sd_mmc_check+0x84c>)
  400a1e:	681b      	ldr	r3, [r3, #0]
  400a20:	7bdb      	ldrb	r3, [r3, #15]
  400a22:	f013 0f04 	tst.w	r3, #4
  400a26:	d022      	beq.n	400a6e <sd_mmc_check+0x6fe>
  400a28:	ab04      	add	r3, sp, #16
  400a2a:	9300      	str	r3, [sp, #0]
  400a2c:	2300      	movs	r3, #0
  400a2e:	2213      	movs	r2, #19
  400a30:	4619      	mov	r1, r3
  400a32:	4618      	mov	r0, r3
  400a34:	4c60      	ldr	r4, [pc, #384]	; (400bb8 <sd_mmc_check+0x848>)
  400a36:	47a0      	blx	r4
  400a38:	2800      	cmp	r0, #0
  400a3a:	d06d      	beq.n	400b18 <sd_mmc_check+0x7a8>
  400a3c:	f89d 3010 	ldrb.w	r3, [sp, #16]
  400a40:	f013 0f01 	tst.w	r3, #1
  400a44:	d013      	beq.n	400a6e <sd_mmc_check+0x6fe>
  400a46:	ab14      	add	r3, sp, #80	; 0x50
  400a48:	2202      	movs	r2, #2
  400a4a:	f803 2d40 	strb.w	r2, [r3, #-64]!
  400a4e:	9300      	str	r3, [sp, #0]
  400a50:	2301      	movs	r3, #1
  400a52:	2213      	movs	r2, #19
  400a54:	2100      	movs	r1, #0
  400a56:	4618      	mov	r0, r3
  400a58:	47a0      	blx	r4
  400a5a:	2800      	cmp	r0, #0
  400a5c:	d05c      	beq.n	400b18 <sd_mmc_check+0x7a8>
  400a5e:	4b57      	ldr	r3, [pc, #348]	; (400bbc <sd_mmc_check+0x84c>)
  400a60:	681b      	ldr	r3, [r3, #0]
  400a62:	2201      	movs	r2, #1
  400a64:	f883 2022 	strb.w	r2, [r3, #34]	; 0x22
  400a68:	681a      	ldr	r2, [r3, #0]
  400a6a:	0052      	lsls	r2, r2, #1
  400a6c:	601a      	str	r2, [r3, #0]
  400a6e:	4b53      	ldr	r3, [pc, #332]	; (400bbc <sd_mmc_check+0x84c>)
  400a70:	681b      	ldr	r3, [r3, #0]
  400a72:	7bda      	ldrb	r2, [r3, #15]
  400a74:	f012 0f01 	tst.w	r2, #1
  400a78:	d037      	beq.n	400aea <sd_mmc_check+0x77a>
  400a7a:	7c1b      	ldrb	r3, [r3, #16]
  400a7c:	2b10      	cmp	r3, #16
  400a7e:	d934      	bls.n	400aea <sd_mmc_check+0x77a>
  400a80:	2440      	movs	r4, #64	; 0x40
  400a82:	4622      	mov	r2, r4
  400a84:	2100      	movs	r1, #0
  400a86:	a804      	add	r0, sp, #16
  400a88:	4b54      	ldr	r3, [pc, #336]	; (400bdc <sd_mmc_check+0x86c>)
  400a8a:	4798      	blx	r3
  400a8c:	2301      	movs	r3, #1
  400a8e:	9300      	str	r3, [sp, #0]
  400a90:	4622      	mov	r2, r4
  400a92:	4953      	ldr	r1, [pc, #332]	; (400be0 <sd_mmc_check+0x870>)
  400a94:	4853      	ldr	r0, [pc, #332]	; (400be4 <sd_mmc_check+0x874>)
  400a96:	4c54      	ldr	r4, [pc, #336]	; (400be8 <sd_mmc_check+0x878>)
  400a98:	47a0      	blx	r4
  400a9a:	2800      	cmp	r0, #0
  400a9c:	d03c      	beq.n	400b18 <sd_mmc_check+0x7a8>
  400a9e:	2101      	movs	r1, #1
  400aa0:	a804      	add	r0, sp, #16
  400aa2:	4b52      	ldr	r3, [pc, #328]	; (400bec <sd_mmc_check+0x87c>)
  400aa4:	4798      	blx	r3
  400aa6:	2800      	cmp	r0, #0
  400aa8:	d036      	beq.n	400b18 <sd_mmc_check+0x7a8>
  400aaa:	4b51      	ldr	r3, [pc, #324]	; (400bf0 <sd_mmc_check+0x880>)
  400aac:	4798      	blx	r3
  400aae:	2800      	cmp	r0, #0
  400ab0:	d032      	beq.n	400b18 <sd_mmc_check+0x7a8>
  400ab2:	4b50      	ldr	r3, [pc, #320]	; (400bf4 <sd_mmc_check+0x884>)
  400ab4:	4798      	blx	r3
  400ab6:	f010 0f80 	tst.w	r0, #128	; 0x80
  400aba:	d12d      	bne.n	400b18 <sd_mmc_check+0x7a8>
  400abc:	f89d 3020 	ldrb.w	r3, [sp, #32]
  400ac0:	f003 030f 	and.w	r3, r3, #15
  400ac4:	2b0f      	cmp	r3, #15
  400ac6:	d010      	beq.n	400aea <sd_mmc_check+0x77a>
  400ac8:	f89d 302d 	ldrb.w	r3, [sp, #45]	; 0x2d
  400acc:	f89d 202c 	ldrb.w	r2, [sp, #44]	; 0x2c
  400ad0:	ea53 2302 	orrs.w	r3, r3, r2, lsl #8
  400ad4:	d120      	bne.n	400b18 <sd_mmc_check+0x7a8>
  400ad6:	4b48      	ldr	r3, [pc, #288]	; (400bf8 <sd_mmc_check+0x888>)
  400ad8:	4798      	blx	r3
  400ada:	4b38      	ldr	r3, [pc, #224]	; (400bbc <sd_mmc_check+0x84c>)
  400adc:	681b      	ldr	r3, [r3, #0]
  400ade:	2201      	movs	r2, #1
  400ae0:	f883 2022 	strb.w	r2, [r3, #34]	; 0x22
  400ae4:	681a      	ldr	r2, [r3, #0]
  400ae6:	0052      	lsls	r2, r2, #1
  400ae8:	601a      	str	r2, [r3, #0]
  400aea:	4b3a      	ldr	r3, [pc, #232]	; (400bd4 <sd_mmc_check+0x864>)
  400aec:	4798      	blx	r3
  400aee:	4b33      	ldr	r3, [pc, #204]	; (400bbc <sd_mmc_check+0x84c>)
  400af0:	681b      	ldr	r3, [r3, #0]
  400af2:	7bdb      	ldrb	r3, [r3, #15]
  400af4:	f013 0f01 	tst.w	r3, #1
  400af8:	d006      	beq.n	400b08 <sd_mmc_check+0x798>
  400afa:	f44f 7100 	mov.w	r1, #512	; 0x200
  400afe:	f241 1010 	movw	r0, #4368	; 0x1110
  400b02:	4b33      	ldr	r3, [pc, #204]	; (400bd0 <sd_mmc_check+0x860>)
  400b04:	4798      	blx	r3
  400b06:	b138      	cbz	r0, 400b18 <sd_mmc_check+0x7a8>
  400b08:	4b2c      	ldr	r3, [pc, #176]	; (400bbc <sd_mmc_check+0x84c>)
  400b0a:	681b      	ldr	r3, [r3, #0]
  400b0c:	2200      	movs	r2, #0
  400b0e:	739a      	strb	r2, [r3, #14]
  400b10:	4b3a      	ldr	r3, [pc, #232]	; (400bfc <sd_mmc_check+0x88c>)
  400b12:	4798      	blx	r3
  400b14:	2001      	movs	r0, #1
  400b16:	e04c      	b.n	400bb2 <sd_mmc_check+0x842>
  400b18:	4b28      	ldr	r3, [pc, #160]	; (400bbc <sd_mmc_check+0x84c>)
  400b1a:	681b      	ldr	r3, [r3, #0]
  400b1c:	2403      	movs	r4, #3
  400b1e:	739c      	strb	r4, [r3, #14]
  400b20:	4b36      	ldr	r3, [pc, #216]	; (400bfc <sd_mmc_check+0x88c>)
  400b22:	4798      	blx	r3
  400b24:	4620      	mov	r0, r4
  400b26:	e044      	b.n	400bb2 <sd_mmc_check+0x842>
  400b28:	f04f 0800 	mov.w	r8, #0
  400b2c:	e001      	b.n	400b32 <sd_mmc_check+0x7c2>
  400b2e:	f04f 0800 	mov.w	r8, #0
  400b32:	2100      	movs	r1, #0
  400b34:	f244 5005 	movw	r0, #17669	; 0x4505
  400b38:	4b25      	ldr	r3, [pc, #148]	; (400bd0 <sd_mmc_check+0x860>)
  400b3a:	4798      	blx	r3
  400b3c:	2800      	cmp	r0, #0
  400b3e:	f47f ac57 	bne.w	4003f0 <sd_mmc_check+0x80>
  400b42:	4b1e      	ldr	r3, [pc, #120]	; (400bbc <sd_mmc_check+0x84c>)
  400b44:	681b      	ldr	r3, [r3, #0]
  400b46:	7bdb      	ldrb	r3, [r3, #15]
  400b48:	f013 0f01 	tst.w	r3, #1
  400b4c:	f43f add8 	beq.w	400700 <sd_mmc_check+0x390>
  400b50:	f1b8 0f00 	cmp.w	r8, #0
  400b54:	4e2a      	ldr	r6, [pc, #168]	; (400c00 <sd_mmc_check+0x890>)
  400b56:	bf08      	it	eq
  400b58:	f44f 16fc 	moveq.w	r6, #2064384	; 0x1f8000
  400b5c:	f640 0435 	movw	r4, #2101	; 0x835
  400b60:	f04f 0800 	mov.w	r8, #0
  400b64:	4d1a      	ldr	r5, [pc, #104]	; (400bd0 <sd_mmc_check+0x860>)
  400b66:	4f23      	ldr	r7, [pc, #140]	; (400bf4 <sd_mmc_check+0x884>)
  400b68:	e468      	b.n	40043c <sd_mmc_check+0xcc>
  400b6a:	4b14      	ldr	r3, [pc, #80]	; (400bbc <sd_mmc_check+0x84c>)
  400b6c:	681b      	ldr	r3, [r3, #0]
  400b6e:	2202      	movs	r2, #2
  400b70:	73da      	strb	r2, [r3, #15]
  400b72:	2100      	movs	r1, #0
  400b74:	f44f 4080 	mov.w	r0, #16384	; 0x4000
  400b78:	4b15      	ldr	r3, [pc, #84]	; (400bd0 <sd_mmc_check+0x860>)
  400b7a:	4798      	blx	r3
  400b7c:	2800      	cmp	r0, #0
  400b7e:	d0cb      	beq.n	400b18 <sd_mmc_check+0x7a8>
  400b80:	e47b      	b.n	40047a <sd_mmc_check+0x10a>
  400b82:	4b0e      	ldr	r3, [pc, #56]	; (400bbc <sd_mmc_check+0x84c>)
  400b84:	681b      	ldr	r3, [r3, #0]
  400b86:	7bdb      	ldrb	r3, [r3, #15]
  400b88:	f013 0f01 	tst.w	r3, #1
  400b8c:	f47f adb0 	bne.w	4006f0 <sd_mmc_check+0x380>
  400b90:	e5b6      	b.n	400700 <sd_mmc_check+0x390>
  400b92:	2100      	movs	r1, #0
  400b94:	f645 3002 	movw	r0, #23298	; 0x5b02
  400b98:	4b0d      	ldr	r3, [pc, #52]	; (400bd0 <sd_mmc_check+0x860>)
  400b9a:	4798      	blx	r3
  400b9c:	2800      	cmp	r0, #0
  400b9e:	d0bb      	beq.n	400b18 <sd_mmc_check+0x7a8>
  400ba0:	e48a      	b.n	4004b8 <sd_mmc_check+0x148>
  400ba2:	4b09      	ldr	r3, [pc, #36]	; (400bc8 <sd_mmc_check+0x858>)
  400ba4:	7818      	ldrb	r0, [r3, #0]
  400ba6:	4b09      	ldr	r3, [pc, #36]	; (400bcc <sd_mmc_check+0x85c>)
  400ba8:	4798      	blx	r3
  400baa:	2803      	cmp	r0, #3
  400bac:	f63f ad50 	bhi.w	400650 <sd_mmc_check+0x2e0>
  400bb0:	e56e      	b.n	400690 <sd_mmc_check+0x320>
  400bb2:	b014      	add	sp, #80	; 0x50
  400bb4:	e8bd 81f0 	ldmia.w	sp!, {r4, r5, r6, r7, r8, pc}
  400bb8:	004002c9 	.word	0x004002c9
  400bbc:	20400904 	.word	0x20400904
  400bc0:	0040b88c 	.word	0x0040b88c
  400bc4:	0040b84c 	.word	0x0040b84c
  400bc8:	20400908 	.word	0x20400908
  400bcc:	00400d71 	.word	0x00400d71
  400bd0:	00400e4d 	.word	0x00400e4d
  400bd4:	0040019d 	.word	0x0040019d
  400bd8:	00400d7d 	.word	0x00400d7d
  400bdc:	0040515d 	.word	0x0040515d
  400be0:	80ffff01 	.word	0x80ffff01
  400be4:	00081106 	.word	0x00081106
  400be8:	00400ea9 	.word	0x00400ea9
  400bec:	00400fe5 	.word	0x00400fe5
  400bf0:	00401099 	.word	0x00401099
  400bf4:	00400e71 	.word	0x00400e71
  400bf8:	00400e29 	.word	0x00400e29
  400bfc:	0040032d 	.word	0x0040032d
  400c00:	401f8000 	.word	0x401f8000

00400c04 <sd_mmc_get_type>:
  400c04:	b508      	push	{r3, lr}
  400c06:	4b05      	ldr	r3, [pc, #20]	; (400c1c <sd_mmc_get_type+0x18>)
  400c08:	4798      	blx	r3
  400c0a:	b928      	cbnz	r0, 400c18 <sd_mmc_get_type+0x14>
  400c0c:	4b04      	ldr	r3, [pc, #16]	; (400c20 <sd_mmc_get_type+0x1c>)
  400c0e:	4798      	blx	r3
  400c10:	4b04      	ldr	r3, [pc, #16]	; (400c24 <sd_mmc_get_type+0x20>)
  400c12:	681b      	ldr	r3, [r3, #0]
  400c14:	7bd8      	ldrb	r0, [r3, #15]
  400c16:	bd08      	pop	{r3, pc}
  400c18:	2000      	movs	r0, #0
  400c1a:	bd08      	pop	{r3, pc}
  400c1c:	004001c9 	.word	0x004001c9
  400c20:	0040032d 	.word	0x0040032d
  400c24:	20400904 	.word	0x20400904

00400c28 <sd_mmc_test_unit_ready>:
  400c28:	b510      	push	{r4, lr}
  400c2a:	4604      	mov	r4, r0
  400c2c:	4b0f      	ldr	r3, [pc, #60]	; (400c6c <sd_mmc_test_unit_ready+0x44>)
  400c2e:	4798      	blx	r3
  400c30:	2801      	cmp	r0, #1
  400c32:	d016      	beq.n	400c62 <sd_mmc_test_unit_ready+0x3a>
  400c34:	b118      	cbz	r0, 400c3e <sd_mmc_test_unit_ready+0x16>
  400c36:	2802      	cmp	r0, #2
  400c38:	d00e      	beq.n	400c58 <sd_mmc_test_unit_ready+0x30>
  400c3a:	2001      	movs	r0, #1
  400c3c:	bd10      	pop	{r4, pc}
  400c3e:	4b0c      	ldr	r3, [pc, #48]	; (400c70 <sd_mmc_test_unit_ready+0x48>)
  400c40:	5d1b      	ldrb	r3, [r3, r4]
  400c42:	b983      	cbnz	r3, 400c66 <sd_mmc_test_unit_ready+0x3e>
  400c44:	4620      	mov	r0, r4
  400c46:	4b0b      	ldr	r3, [pc, #44]	; (400c74 <sd_mmc_test_unit_ready+0x4c>)
  400c48:	4798      	blx	r3
  400c4a:	f000 0003 	and.w	r0, r0, #3
  400c4e:	2800      	cmp	r0, #0
  400c50:	bf14      	ite	ne
  400c52:	2000      	movne	r0, #0
  400c54:	2002      	moveq	r0, #2
  400c56:	bd10      	pop	{r4, pc}
  400c58:	2200      	movs	r2, #0
  400c5a:	4b05      	ldr	r3, [pc, #20]	; (400c70 <sd_mmc_test_unit_ready+0x48>)
  400c5c:	551a      	strb	r2, [r3, r4]
  400c5e:	2002      	movs	r0, #2
  400c60:	bd10      	pop	{r4, pc}
  400c62:	2003      	movs	r0, #3
  400c64:	bd10      	pop	{r4, pc}
  400c66:	2002      	movs	r0, #2
  400c68:	bd10      	pop	{r4, pc}
  400c6a:	bf00      	nop
  400c6c:	00400371 	.word	0x00400371
  400c70:	2040090c 	.word	0x2040090c
  400c74:	00400c05 	.word	0x00400c05

00400c78 <hsmci_reset>:
  400c78:	b470      	push	{r4, r5, r6}
  400c7a:	f04f 4380 	mov.w	r3, #1073741824	; 0x40000000
  400c7e:	685d      	ldr	r5, [r3, #4]
  400c80:	689c      	ldr	r4, [r3, #8]
  400c82:	68d8      	ldr	r0, [r3, #12]
  400c84:	69d9      	ldr	r1, [r3, #28]
  400c86:	6d5a      	ldr	r2, [r3, #84]	; 0x54
  400c88:	2680      	movs	r6, #128	; 0x80
  400c8a:	601e      	str	r6, [r3, #0]
  400c8c:	605d      	str	r5, [r3, #4]
  400c8e:	609c      	str	r4, [r3, #8]
  400c90:	60d8      	str	r0, [r3, #12]
  400c92:	61d9      	str	r1, [r3, #28]
  400c94:	655a      	str	r2, [r3, #84]	; 0x54
  400c96:	2200      	movs	r2, #0
  400c98:	651a      	str	r2, [r3, #80]	; 0x50
  400c9a:	2205      	movs	r2, #5
  400c9c:	601a      	str	r2, [r3, #0]
  400c9e:	bc70      	pop	{r4, r5, r6}
  400ca0:	4770      	bx	lr
  400ca2:	bf00      	nop

00400ca4 <hsmci_send_cmd_execute>:
  400ca4:	b508      	push	{r3, lr}
  400ca6:	f001 033f 	and.w	r3, r1, #63	; 0x3f
  400caa:	4318      	orrs	r0, r3
  400cac:	f411 7f80 	tst.w	r1, #256	; 0x100
  400cb0:	d00c      	beq.n	400ccc <hsmci_send_cmd_execute+0x28>
  400cb2:	f411 6f00 	tst.w	r1, #2048	; 0x800
  400cb6:	d002      	beq.n	400cbe <hsmci_send_cmd_execute+0x1a>
  400cb8:	f440 5084 	orr.w	r0, r0, #4224	; 0x1080
  400cbc:	e006      	b.n	400ccc <hsmci_send_cmd_execute+0x28>
  400cbe:	f411 5f00 	tst.w	r1, #8192	; 0x2000
  400cc2:	bf14      	ite	ne
  400cc4:	f440 5086 	orrne.w	r0, r0, #4288	; 0x10c0
  400cc8:	f440 5082 	orreq.w	r0, r0, #4160	; 0x1040
  400ccc:	f411 4f80 	tst.w	r1, #16384	; 0x4000
  400cd0:	bf18      	it	ne
  400cd2:	f440 6000 	orrne.w	r0, r0, #2048	; 0x800
  400cd6:	f04f 4380 	mov.w	r3, #1073741824	; 0x40000000
  400cda:	611a      	str	r2, [r3, #16]
  400cdc:	6158      	str	r0, [r3, #20]
  400cde:	4618      	mov	r0, r3
  400ce0:	f401 5280 	and.w	r2, r1, #4096	; 0x1000
  400ce4:	6c03      	ldr	r3, [r0, #64]	; 0x40
  400ce6:	b132      	cbz	r2, 400cf6 <hsmci_send_cmd_execute+0x52>
  400ce8:	f413 0f1f 	tst.w	r3, #10420224	; 0x9f0000
  400cec:	d00a      	beq.n	400d04 <hsmci_send_cmd_execute+0x60>
  400cee:	4b14      	ldr	r3, [pc, #80]	; (400d40 <hsmci_send_cmd_execute+0x9c>)
  400cf0:	4798      	blx	r3
  400cf2:	2000      	movs	r0, #0
  400cf4:	bd08      	pop	{r3, pc}
  400cf6:	f413 0f1b 	tst.w	r3, #10158080	; 0x9b0000
  400cfa:	d003      	beq.n	400d04 <hsmci_send_cmd_execute+0x60>
  400cfc:	4b10      	ldr	r3, [pc, #64]	; (400d40 <hsmci_send_cmd_execute+0x9c>)
  400cfe:	4798      	blx	r3
  400d00:	2000      	movs	r0, #0
  400d02:	bd08      	pop	{r3, pc}
  400d04:	f013 0f01 	tst.w	r3, #1
  400d08:	d0ec      	beq.n	400ce4 <hsmci_send_cmd_execute+0x40>
  400d0a:	f411 5f00 	tst.w	r1, #8192	; 0x2000
  400d0e:	d10e      	bne.n	400d2e <hsmci_send_cmd_execute+0x8a>
  400d10:	2001      	movs	r0, #1
  400d12:	bd08      	pop	{r3, pc}
  400d14:	6c0b      	ldr	r3, [r1, #64]	; 0x40
  400d16:	3a01      	subs	r2, #1
  400d18:	d103      	bne.n	400d22 <hsmci_send_cmd_execute+0x7e>
  400d1a:	4b09      	ldr	r3, [pc, #36]	; (400d40 <hsmci_send_cmd_execute+0x9c>)
  400d1c:	4798      	blx	r3
  400d1e:	2000      	movs	r0, #0
  400d20:	bd08      	pop	{r3, pc}
  400d22:	f003 0330 	and.w	r3, r3, #48	; 0x30
  400d26:	2b20      	cmp	r3, #32
  400d28:	d1f4      	bne.n	400d14 <hsmci_send_cmd_execute+0x70>
  400d2a:	2001      	movs	r0, #1
  400d2c:	bd08      	pop	{r3, pc}
  400d2e:	f04f 4380 	mov.w	r3, #1073741824	; 0x40000000
  400d32:	6c1b      	ldr	r3, [r3, #64]	; 0x40
  400d34:	f04f 32ff 	mov.w	r2, #4294967295
  400d38:	f04f 4180 	mov.w	r1, #1073741824	; 0x40000000
  400d3c:	e7f1      	b.n	400d22 <hsmci_send_cmd_execute+0x7e>
  400d3e:	bf00      	nop
  400d40:	00400c79 	.word	0x00400c79

00400d44 <hsmci_init>:
  400d44:	b510      	push	{r4, lr}
  400d46:	2012      	movs	r0, #18
  400d48:	4c08      	ldr	r4, [pc, #32]	; (400d6c <hsmci_init+0x28>)
  400d4a:	47a0      	blx	r4
  400d4c:	203a      	movs	r0, #58	; 0x3a
  400d4e:	47a0      	blx	r4
  400d50:	f04f 4380 	mov.w	r3, #1073741824	; 0x40000000
  400d54:	2272      	movs	r2, #114	; 0x72
  400d56:	609a      	str	r2, [r3, #8]
  400d58:	61da      	str	r2, [r3, #28]
  400d5a:	2211      	movs	r2, #17
  400d5c:	655a      	str	r2, [r3, #84]	; 0x54
  400d5e:	f44f 62e0 	mov.w	r2, #1792	; 0x700
  400d62:	605a      	str	r2, [r3, #4]
  400d64:	2205      	movs	r2, #5
  400d66:	601a      	str	r2, [r3, #0]
  400d68:	bd10      	pop	{r4, pc}
  400d6a:	bf00      	nop
  400d6c:	004045d5 	.word	0x004045d5

00400d70 <hsmci_get_bus_width>:
  400d70:	2800      	cmp	r0, #0
  400d72:	bf0c      	ite	eq
  400d74:	2004      	moveq	r0, #4
  400d76:	2000      	movne	r0, #0
  400d78:	4770      	bx	lr
  400d7a:	bf00      	nop

00400d7c <hsmci_is_high_speed_capable>:
  400d7c:	2001      	movs	r0, #1
  400d7e:	4770      	bx	lr

00400d80 <hsmci_select_device>:
  400d80:	b410      	push	{r4}
  400d82:	b133      	cbz	r3, 400d92 <hsmci_select_device+0x12>
  400d84:	f04f 4080 	mov.w	r0, #1073741824	; 0x40000000
  400d88:	6d43      	ldr	r3, [r0, #84]	; 0x54
  400d8a:	f443 7380 	orr.w	r3, r3, #256	; 0x100
  400d8e:	6543      	str	r3, [r0, #84]	; 0x54
  400d90:	e005      	b.n	400d9e <hsmci_select_device+0x1e>
  400d92:	f04f 4080 	mov.w	r0, #1073741824	; 0x40000000
  400d96:	6d43      	ldr	r3, [r0, #84]	; 0x54
  400d98:	f423 7380 	bic.w	r3, r3, #256	; 0x100
  400d9c:	6543      	str	r3, [r0, #84]	; 0x54
  400d9e:	4b1f      	ldr	r3, [pc, #124]	; (400e1c <hsmci_select_device+0x9c>)
  400da0:	ebb3 0f41 	cmp.w	r3, r1, lsl #1
  400da4:	d32d      	bcc.n	400e02 <hsmci_select_device+0x82>
  400da6:	481e      	ldr	r0, [pc, #120]	; (400e20 <hsmci_select_device+0xa0>)
  400da8:	fbb0 f3f1 	udiv	r3, r0, r1
  400dac:	fb01 0113 	mls	r1, r1, r3, r0
  400db0:	b909      	cbnz	r1, 400db6 <hsmci_select_device+0x36>
  400db2:	3b02      	subs	r3, #2
  400db4:	e000      	b.n	400db8 <hsmci_select_device+0x38>
  400db6:	3b01      	subs	r3, #1
  400db8:	f04f 4180 	mov.w	r1, #1073741824	; 0x40000000
  400dbc:	6848      	ldr	r0, [r1, #4]
  400dbe:	f020 00ff 	bic.w	r0, r0, #255	; 0xff
  400dc2:	6048      	str	r0, [r1, #4]
  400dc4:	6848      	ldr	r0, [r1, #4]
  400dc6:	f3c3 0447 	ubfx	r4, r3, #1, #8
  400dca:	4320      	orrs	r0, r4
  400dcc:	6048      	str	r0, [r1, #4]
  400dce:	f013 0f01 	tst.w	r3, #1
  400dd2:	d004      	beq.n	400dde <hsmci_select_device+0x5e>
  400dd4:	684b      	ldr	r3, [r1, #4]
  400dd6:	f443 3380 	orr.w	r3, r3, #65536	; 0x10000
  400dda:	604b      	str	r3, [r1, #4]
  400ddc:	e005      	b.n	400dea <hsmci_select_device+0x6a>
  400dde:	f04f 4180 	mov.w	r1, #1073741824	; 0x40000000
  400de2:	684b      	ldr	r3, [r1, #4]
  400de4:	f423 3380 	bic.w	r3, r3, #65536	; 0x10000
  400de8:	604b      	str	r3, [r1, #4]
  400dea:	2a04      	cmp	r2, #4
  400dec:	d004      	beq.n	400df8 <hsmci_select_device+0x78>
  400dee:	2a08      	cmp	r2, #8
  400df0:	bf0c      	ite	eq
  400df2:	22c0      	moveq	r2, #192	; 0xc0
  400df4:	2200      	movne	r2, #0
  400df6:	e000      	b.n	400dfa <hsmci_select_device+0x7a>
  400df8:	2280      	movs	r2, #128	; 0x80
  400dfa:	f04f 4380 	mov.w	r3, #1073741824	; 0x40000000
  400dfe:	60da      	str	r2, [r3, #12]
  400e00:	e008      	b.n	400e14 <hsmci_select_device+0x94>
  400e02:	f04f 4380 	mov.w	r3, #1073741824	; 0x40000000
  400e06:	6859      	ldr	r1, [r3, #4]
  400e08:	f021 01ff 	bic.w	r1, r1, #255	; 0xff
  400e0c:	6059      	str	r1, [r3, #4]
  400e0e:	6859      	ldr	r1, [r3, #4]
  400e10:	6059      	str	r1, [r3, #4]
  400e12:	e7e4      	b.n	400dde <hsmci_select_device+0x5e>
  400e14:	f85d 4b04 	ldr.w	r4, [sp], #4
  400e18:	4770      	bx	lr
  400e1a:	bf00      	nop
  400e1c:	08f0d17f 	.word	0x08f0d17f
  400e20:	08f0d180 	.word	0x08f0d180

00400e24 <hsmci_deselect_device>:
  400e24:	4770      	bx	lr
  400e26:	bf00      	nop

00400e28 <hsmci_send_clock>:
  400e28:	f04f 4380 	mov.w	r3, #1073741824	; 0x40000000
  400e2c:	685a      	ldr	r2, [r3, #4]
  400e2e:	f422 5260 	bic.w	r2, r2, #14336	; 0x3800
  400e32:	605a      	str	r2, [r3, #4]
  400e34:	2200      	movs	r2, #0
  400e36:	611a      	str	r2, [r3, #16]
  400e38:	f44f 6210 	mov.w	r2, #2304	; 0x900
  400e3c:	615a      	str	r2, [r3, #20]
  400e3e:	461a      	mov	r2, r3
  400e40:	6c13      	ldr	r3, [r2, #64]	; 0x40
  400e42:	f013 0f01 	tst.w	r3, #1
  400e46:	d0fb      	beq.n	400e40 <hsmci_send_clock+0x18>
  400e48:	4770      	bx	lr
  400e4a:	bf00      	nop

00400e4c <hsmci_send_cmd>:
  400e4c:	b510      	push	{r4, lr}
  400e4e:	f04f 4380 	mov.w	r3, #1073741824	; 0x40000000
  400e52:	685a      	ldr	r2, [r3, #4]
  400e54:	f422 5260 	bic.w	r2, r2, #14336	; 0x3800
  400e58:	605a      	str	r2, [r3, #4]
  400e5a:	2400      	movs	r4, #0
  400e5c:	651c      	str	r4, [r3, #80]	; 0x50
  400e5e:	619c      	str	r4, [r3, #24]
  400e60:	460a      	mov	r2, r1
  400e62:	4601      	mov	r1, r0
  400e64:	4620      	mov	r0, r4
  400e66:	4b01      	ldr	r3, [pc, #4]	; (400e6c <hsmci_send_cmd+0x20>)
  400e68:	4798      	blx	r3
  400e6a:	bd10      	pop	{r4, pc}
  400e6c:	00400ca5 	.word	0x00400ca5

00400e70 <hsmci_get_response>:
  400e70:	f04f 4380 	mov.w	r3, #1073741824	; 0x40000000
  400e74:	6a18      	ldr	r0, [r3, #32]
  400e76:	4770      	bx	lr

00400e78 <hsmci_get_response_128>:
  400e78:	b410      	push	{r4}
  400e7a:	1d03      	adds	r3, r0, #4
  400e7c:	3014      	adds	r0, #20
  400e7e:	f04f 4480 	mov.w	r4, #1073741824	; 0x40000000
  400e82:	6a22      	ldr	r2, [r4, #32]
  400e84:	0e11      	lsrs	r1, r2, #24
  400e86:	f803 1c04 	strb.w	r1, [r3, #-4]
  400e8a:	0c11      	lsrs	r1, r2, #16
  400e8c:	f803 1c03 	strb.w	r1, [r3, #-3]
  400e90:	0a11      	lsrs	r1, r2, #8
  400e92:	f803 1c02 	strb.w	r1, [r3, #-2]
  400e96:	f803 2c01 	strb.w	r2, [r3, #-1]
  400e9a:	3304      	adds	r3, #4
  400e9c:	4283      	cmp	r3, r0
  400e9e:	d1f0      	bne.n	400e82 <hsmci_get_response_128+0xa>
  400ea0:	f85d 4b04 	ldr.w	r4, [sp], #4
  400ea4:	4770      	bx	lr
  400ea6:	bf00      	nop

00400ea8 <hsmci_adtc_start>:
  400ea8:	b570      	push	{r4, r5, r6, lr}
  400eaa:	f89d 4010 	ldrb.w	r4, [sp, #16]
  400eae:	b12c      	cbz	r4, 400ebc <hsmci_adtc_start+0x14>
  400eb0:	f44f 7580 	mov.w	r5, #256	; 0x100
  400eb4:	f04f 4480 	mov.w	r4, #1073741824	; 0x40000000
  400eb8:	6525      	str	r5, [r4, #80]	; 0x50
  400eba:	e003      	b.n	400ec4 <hsmci_adtc_start+0x1c>
  400ebc:	2500      	movs	r5, #0
  400ebe:	f04f 4480 	mov.w	r4, #1073741824	; 0x40000000
  400ec2:	6525      	str	r5, [r4, #80]	; 0x50
  400ec4:	f04f 4580 	mov.w	r5, #1073741824	; 0x40000000
  400ec8:	686c      	ldr	r4, [r5, #4]
  400eca:	f444 54c0 	orr.w	r4, r4, #6144	; 0x1800
  400ece:	606c      	str	r4, [r5, #4]
  400ed0:	f012 0f03 	tst.w	r2, #3
  400ed4:	d004      	beq.n	400ee0 <hsmci_adtc_start+0x38>
  400ed6:	686c      	ldr	r4, [r5, #4]
  400ed8:	f444 5400 	orr.w	r4, r4, #8192	; 0x2000
  400edc:	606c      	str	r4, [r5, #4]
  400ede:	e005      	b.n	400eec <hsmci_adtc_start+0x44>
  400ee0:	f04f 4580 	mov.w	r5, #1073741824	; 0x40000000
  400ee4:	686c      	ldr	r4, [r5, #4]
  400ee6:	f424 5400 	bic.w	r4, r4, #8192	; 0x2000
  400eea:	606c      	str	r4, [r5, #4]
  400eec:	f400 4400 	and.w	r4, r0, #32768	; 0x8000
  400ef0:	2c00      	cmp	r4, #0
  400ef2:	bf14      	ite	ne
  400ef4:	f44f 3480 	movne.w	r4, #65536	; 0x10000
  400ef8:	f44f 24a0 	moveq.w	r4, #327680	; 0x50000
  400efc:	f410 3f80 	tst.w	r0, #65536	; 0x10000
  400f00:	d007      	beq.n	400f12 <hsmci_adtc_start+0x6a>
  400f02:	f444 1400 	orr.w	r4, r4, #2097152	; 0x200000
  400f06:	f3c2 0508 	ubfx	r5, r2, #0, #9
  400f0a:	f04f 4680 	mov.w	r6, #1073741824	; 0x40000000
  400f0e:	61b5      	str	r5, [r6, #24]
  400f10:	e018      	b.n	400f44 <hsmci_adtc_start+0x9c>
  400f12:	ea43 4502 	orr.w	r5, r3, r2, lsl #16
  400f16:	f04f 4680 	mov.w	r6, #1073741824	; 0x40000000
  400f1a:	61b5      	str	r5, [r6, #24]
  400f1c:	f410 3f00 	tst.w	r0, #131072	; 0x20000
  400f20:	d002      	beq.n	400f28 <hsmci_adtc_start+0x80>
  400f22:	f444 1420 	orr.w	r4, r4, #2621440	; 0x280000
  400f26:	e00d      	b.n	400f44 <hsmci_adtc_start+0x9c>
  400f28:	f410 2f80 	tst.w	r0, #262144	; 0x40000
  400f2c:	d002      	beq.n	400f34 <hsmci_adtc_start+0x8c>
  400f2e:	f444 1480 	orr.w	r4, r4, #1048576	; 0x100000
  400f32:	e007      	b.n	400f44 <hsmci_adtc_start+0x9c>
  400f34:	f410 2f00 	tst.w	r0, #524288	; 0x80000
  400f38:	d104      	bne.n	400f44 <hsmci_adtc_start+0x9c>
  400f3a:	f410 1f80 	tst.w	r0, #1048576	; 0x100000
  400f3e:	bf18      	it	ne
  400f40:	f444 2400 	orrne.w	r4, r4, #524288	; 0x80000
  400f44:	2600      	movs	r6, #0
  400f46:	4d06      	ldr	r5, [pc, #24]	; (400f60 <hsmci_adtc_start+0xb8>)
  400f48:	602e      	str	r6, [r5, #0]
  400f4a:	4d06      	ldr	r5, [pc, #24]	; (400f64 <hsmci_adtc_start+0xbc>)
  400f4c:	802a      	strh	r2, [r5, #0]
  400f4e:	4a06      	ldr	r2, [pc, #24]	; (400f68 <hsmci_adtc_start+0xc0>)
  400f50:	8013      	strh	r3, [r2, #0]
  400f52:	460a      	mov	r2, r1
  400f54:	4601      	mov	r1, r0
  400f56:	4620      	mov	r0, r4
  400f58:	4b04      	ldr	r3, [pc, #16]	; (400f6c <hsmci_adtc_start+0xc4>)
  400f5a:	4798      	blx	r3
  400f5c:	bd70      	pop	{r4, r5, r6, pc}
  400f5e:	bf00      	nop
  400f60:	20400914 	.word	0x20400914
  400f64:	2040090e 	.word	0x2040090e
  400f68:	20400910 	.word	0x20400910
  400f6c:	00400ca5 	.word	0x00400ca5

00400f70 <hsmci_read_word>:
  400f70:	b508      	push	{r3, lr}
  400f72:	f04f 4180 	mov.w	r1, #1073741824	; 0x40000000
  400f76:	4a16      	ldr	r2, [pc, #88]	; (400fd0 <hsmci_read_word+0x60>)
  400f78:	6c0b      	ldr	r3, [r1, #64]	; 0x40
  400f7a:	4213      	tst	r3, r2
  400f7c:	d003      	beq.n	400f86 <hsmci_read_word+0x16>
  400f7e:	4b15      	ldr	r3, [pc, #84]	; (400fd4 <hsmci_read_word+0x64>)
  400f80:	4798      	blx	r3
  400f82:	2000      	movs	r0, #0
  400f84:	bd08      	pop	{r3, pc}
  400f86:	f013 0f02 	tst.w	r3, #2
  400f8a:	d0f5      	beq.n	400f78 <hsmci_read_word+0x8>
  400f8c:	f04f 4380 	mov.w	r3, #1073741824	; 0x40000000
  400f90:	6b1b      	ldr	r3, [r3, #48]	; 0x30
  400f92:	6003      	str	r3, [r0, #0]
  400f94:	4a10      	ldr	r2, [pc, #64]	; (400fd8 <hsmci_read_word+0x68>)
  400f96:	6813      	ldr	r3, [r2, #0]
  400f98:	3304      	adds	r3, #4
  400f9a:	6013      	str	r3, [r2, #0]
  400f9c:	4a0f      	ldr	r2, [pc, #60]	; (400fdc <hsmci_read_word+0x6c>)
  400f9e:	8811      	ldrh	r1, [r2, #0]
  400fa0:	4a0f      	ldr	r2, [pc, #60]	; (400fe0 <hsmci_read_word+0x70>)
  400fa2:	8812      	ldrh	r2, [r2, #0]
  400fa4:	fb02 f201 	mul.w	r2, r2, r1
  400fa8:	4293      	cmp	r3, r2
  400faa:	d30e      	bcc.n	400fca <hsmci_read_word+0x5a>
  400fac:	f04f 4180 	mov.w	r1, #1073741824	; 0x40000000
  400fb0:	4a07      	ldr	r2, [pc, #28]	; (400fd0 <hsmci_read_word+0x60>)
  400fb2:	6c0b      	ldr	r3, [r1, #64]	; 0x40
  400fb4:	4213      	tst	r3, r2
  400fb6:	d003      	beq.n	400fc0 <hsmci_read_word+0x50>
  400fb8:	4b06      	ldr	r3, [pc, #24]	; (400fd4 <hsmci_read_word+0x64>)
  400fba:	4798      	blx	r3
  400fbc:	2000      	movs	r0, #0
  400fbe:	bd08      	pop	{r3, pc}
  400fc0:	f013 6f00 	tst.w	r3, #134217728	; 0x8000000
  400fc4:	d0f5      	beq.n	400fb2 <hsmci_read_word+0x42>
  400fc6:	2001      	movs	r0, #1
  400fc8:	bd08      	pop	{r3, pc}
  400fca:	2001      	movs	r0, #1
  400fcc:	bd08      	pop	{r3, pc}
  400fce:	bf00      	nop
  400fd0:	c0600000 	.word	0xc0600000
  400fd4:	00400c79 	.word	0x00400c79
  400fd8:	20400914 	.word	0x20400914
  400fdc:	2040090e 	.word	0x2040090e
  400fe0:	20400910 	.word	0x20400910

00400fe4 <hsmci_start_read_blocks>:
  400fe4:	b5f0      	push	{r4, r5, r6, r7, lr}
  400fe6:	b089      	sub	sp, #36	; 0x24
  400fe8:	4604      	mov	r4, r0
  400fea:	460d      	mov	r5, r1
  400fec:	2220      	movs	r2, #32
  400fee:	2100      	movs	r1, #0
  400ff0:	4668      	mov	r0, sp
  400ff2:	4b21      	ldr	r3, [pc, #132]	; (401078 <hsmci_start_read_blocks+0x94>)
  400ff4:	4798      	blx	r3
  400ff6:	4821      	ldr	r0, [pc, #132]	; (40107c <hsmci_start_read_blocks+0x98>)
  400ff8:	2301      	movs	r3, #1
  400ffa:	6203      	str	r3, [r0, #32]
  400ffc:	4b20      	ldr	r3, [pc, #128]	; (401080 <hsmci_start_read_blocks+0x9c>)
  400ffe:	881b      	ldrh	r3, [r3, #0]
  401000:	fb05 f503 	mul.w	r5, r5, r3
  401004:	4b1f      	ldr	r3, [pc, #124]	; (401084 <hsmci_start_read_blocks+0xa0>)
  401006:	9303      	str	r3, [sp, #12]
  401008:	08ab      	lsrs	r3, r5, #2
  40100a:	9300      	str	r3, [sp, #0]
  40100c:	4b1e      	ldr	r3, [pc, #120]	; (401088 <hsmci_start_read_blocks+0xa4>)
  40100e:	9301      	str	r3, [sp, #4]
  401010:	9402      	str	r4, [sp, #8]
  401012:	466a      	mov	r2, sp
  401014:	2100      	movs	r1, #0
  401016:	4b1d      	ldr	r3, [pc, #116]	; (40108c <hsmci_start_read_blocks+0xa8>)
  401018:	4798      	blx	r3
  40101a:	4b1d      	ldr	r3, [pc, #116]	; (401090 <hsmci_start_read_blocks+0xac>)
  40101c:	f8d3 7080 	ldr.w	r7, [r3, #128]	; 0x80
  401020:	f3c7 364e 	ubfx	r6, r7, #13, #15
  401024:	f007 0e07 	and.w	lr, r7, #7
  401028:	f10e 0e04 	add.w	lr, lr, #4
  40102c:	f3c7 07c9 	ubfx	r7, r7, #3, #10
  401030:	fab7 f087 	clz	r0, r7
  401034:	f000 001f 	and.w	r0, r0, #31
  401038:	f3bf 8f4f 	dsb	sy
  40103c:	461c      	mov	r4, r3
  40103e:	463b      	mov	r3, r7
  401040:	fa06 f10e 	lsl.w	r1, r6, lr
  401044:	fa03 f200 	lsl.w	r2, r3, r0
  401048:	430a      	orrs	r2, r1
  40104a:	f8c4 2274 	str.w	r2, [r4, #628]	; 0x274
  40104e:	3b01      	subs	r3, #1
  401050:	f1b3 3fff 	cmp.w	r3, #4294967295
  401054:	d1f6      	bne.n	401044 <hsmci_start_read_blocks+0x60>
  401056:	3e01      	subs	r6, #1
  401058:	f1b6 3fff 	cmp.w	r6, #4294967295
  40105c:	d1ef      	bne.n	40103e <hsmci_start_read_blocks+0x5a>
  40105e:	f3bf 8f4f 	dsb	sy
  401062:	f3bf 8f6f 	isb	sy
  401066:	2001      	movs	r0, #1
  401068:	4b04      	ldr	r3, [pc, #16]	; (40107c <hsmci_start_read_blocks+0x98>)
  40106a:	61d8      	str	r0, [r3, #28]
  40106c:	4b09      	ldr	r3, [pc, #36]	; (401094 <hsmci_start_read_blocks+0xb0>)
  40106e:	681a      	ldr	r2, [r3, #0]
  401070:	4415      	add	r5, r2
  401072:	601d      	str	r5, [r3, #0]
  401074:	b009      	add	sp, #36	; 0x24
  401076:	bdf0      	pop	{r4, r5, r6, r7, pc}
  401078:	0040515d 	.word	0x0040515d
  40107c:	40078000 	.word	0x40078000
  401080:	2040090e 	.word	0x2040090e
  401084:	00043001 	.word	0x00043001
  401088:	40000200 	.word	0x40000200
  40108c:	004010f9 	.word	0x004010f9
  401090:	e000ed00 	.word	0xe000ed00
  401094:	20400914 	.word	0x20400914

00401098 <hsmci_wait_end_of_read_blocks>:
  401098:	b570      	push	{r4, r5, r6, lr}
  40109a:	4b11      	ldr	r3, [pc, #68]	; (4010e0 <hsmci_wait_end_of_read_blocks+0x48>)
  40109c:	881a      	ldrh	r2, [r3, #0]
  40109e:	4b11      	ldr	r3, [pc, #68]	; (4010e4 <hsmci_wait_end_of_read_blocks+0x4c>)
  4010a0:	881b      	ldrh	r3, [r3, #0]
  4010a2:	fb03 f202 	mul.w	r2, r3, r2
  4010a6:	4b10      	ldr	r3, [pc, #64]	; (4010e8 <hsmci_wait_end_of_read_blocks+0x50>)
  4010a8:	681c      	ldr	r4, [r3, #0]
  4010aa:	f04f 4080 	mov.w	r0, #1073741824	; 0x40000000
  4010ae:	490f      	ldr	r1, [pc, #60]	; (4010ec <hsmci_wait_end_of_read_blocks+0x54>)
  4010b0:	4e0f      	ldr	r6, [pc, #60]	; (4010f0 <hsmci_wait_end_of_read_blocks+0x58>)
  4010b2:	6c03      	ldr	r3, [r0, #64]	; 0x40
  4010b4:	420b      	tst	r3, r1
  4010b6:	d006      	beq.n	4010c6 <hsmci_wait_end_of_read_blocks+0x2e>
  4010b8:	4b0e      	ldr	r3, [pc, #56]	; (4010f4 <hsmci_wait_end_of_read_blocks+0x5c>)
  4010ba:	4798      	blx	r3
  4010bc:	2201      	movs	r2, #1
  4010be:	4b0c      	ldr	r3, [pc, #48]	; (4010f0 <hsmci_wait_end_of_read_blocks+0x58>)
  4010c0:	621a      	str	r2, [r3, #32]
  4010c2:	2000      	movs	r0, #0
  4010c4:	bd70      	pop	{r4, r5, r6, pc}
  4010c6:	42a2      	cmp	r2, r4
  4010c8:	d903      	bls.n	4010d2 <hsmci_wait_end_of_read_blocks+0x3a>
  4010ca:	6df5      	ldr	r5, [r6, #92]	; 0x5c
  4010cc:	f015 0f01 	tst.w	r5, #1
  4010d0:	d104      	bne.n	4010dc <hsmci_wait_end_of_read_blocks+0x44>
  4010d2:	f013 6f00 	tst.w	r3, #134217728	; 0x8000000
  4010d6:	d0ec      	beq.n	4010b2 <hsmci_wait_end_of_read_blocks+0x1a>
  4010d8:	2001      	movs	r0, #1
  4010da:	bd70      	pop	{r4, r5, r6, pc}
  4010dc:	2001      	movs	r0, #1
  4010de:	bd70      	pop	{r4, r5, r6, pc}
  4010e0:	2040090e 	.word	0x2040090e
  4010e4:	20400910 	.word	0x20400910
  4010e8:	20400914 	.word	0x20400914
  4010ec:	c0600000 	.word	0xc0600000
  4010f0:	40078000 	.word	0x40078000
  4010f4:	00400c79 	.word	0x00400c79

004010f8 <xdmac_configure_transfer>:
  4010f8:	eb00 1181 	add.w	r1, r0, r1, lsl #6
  4010fc:	6dcb      	ldr	r3, [r1, #92]	; 0x5c
  4010fe:	6853      	ldr	r3, [r2, #4]
  401100:	660b      	str	r3, [r1, #96]	; 0x60
  401102:	6893      	ldr	r3, [r2, #8]
  401104:	664b      	str	r3, [r1, #100]	; 0x64
  401106:	6813      	ldr	r3, [r2, #0]
  401108:	f023 437f 	bic.w	r3, r3, #4278190080	; 0xff000000
  40110c:	670b      	str	r3, [r1, #112]	; 0x70
  40110e:	6913      	ldr	r3, [r2, #16]
  401110:	f3c3 030b 	ubfx	r3, r3, #0, #12
  401114:	674b      	str	r3, [r1, #116]	; 0x74
  401116:	6953      	ldr	r3, [r2, #20]
  401118:	67cb      	str	r3, [r1, #124]	; 0x7c
  40111a:	6993      	ldr	r3, [r2, #24]
  40111c:	f023 437f 	bic.w	r3, r3, #4278190080	; 0xff000000
  401120:	f8c1 3080 	str.w	r3, [r1, #128]	; 0x80
  401124:	69d3      	ldr	r3, [r2, #28]
  401126:	f023 437f 	bic.w	r3, r3, #4278190080	; 0xff000000
  40112a:	f8c1 3084 	str.w	r3, [r1, #132]	; 0x84
  40112e:	68d3      	ldr	r3, [r2, #12]
  401130:	678b      	str	r3, [r1, #120]	; 0x78
  401132:	4770      	bx	lr

00401134 <chip_isr>:
  401134:	2810      	cmp	r0, #16
  401136:	d108      	bne.n	40114a <chip_isr+0x16>
  401138:	f1b1 5f80 	cmp.w	r1, #268435456	; 0x10000000
  40113c:	d105      	bne.n	40114a <chip_isr+0x16>
  40113e:	b508      	push	{r3, lr}
  401140:	4b02      	ldr	r3, [pc, #8]	; (40114c <chip_isr+0x18>)
  401142:	681b      	ldr	r3, [r3, #0]
  401144:	b103      	cbz	r3, 401148 <chip_isr+0x14>
  401146:	4798      	blx	r3
  401148:	bd08      	pop	{r3, pc}
  40114a:	4770      	bx	lr
  40114c:	20400918 	.word	0x20400918

00401150 <nm_bsp_sleep>:
  401150:	b140      	cbz	r0, 401164 <nm_bsp_sleep+0x14>
  401152:	b570      	push	{r4, r5, r6, lr}
  401154:	4604      	mov	r4, r0
  401156:	4e04      	ldr	r6, [pc, #16]	; (401168 <nm_bsp_sleep+0x18>)
  401158:	4d04      	ldr	r5, [pc, #16]	; (40116c <nm_bsp_sleep+0x1c>)
  40115a:	4630      	mov	r0, r6
  40115c:	47a8      	blx	r5
  40115e:	3c01      	subs	r4, #1
  401160:	d1fb      	bne.n	40115a <nm_bsp_sleep+0xa>
  401162:	bd70      	pop	{r4, r5, r6, pc}
  401164:	4770      	bx	lr
  401166:	bf00      	nop
  401168:	00031635 	.word	0x00031635
  40116c:	20400001 	.word	0x20400001

00401170 <nm_bsp_reset>:
  401170:	e92d 41f0 	stmdb	sp!, {r4, r5, r6, r7, r8, lr}
  401174:	4f09      	ldr	r7, [pc, #36]	; (40119c <nm_bsp_reset+0x2c>)
  401176:	f44f 3800 	mov.w	r8, #131072	; 0x20000
  40117a:	f8c7 8034 	str.w	r8, [r7, #52]	; 0x34
  40117e:	4d08      	ldr	r5, [pc, #32]	; (4011a0 <nm_bsp_reset+0x30>)
  401180:	2608      	movs	r6, #8
  401182:	636e      	str	r6, [r5, #52]	; 0x34
  401184:	2064      	movs	r0, #100	; 0x64
  401186:	4c07      	ldr	r4, [pc, #28]	; (4011a4 <nm_bsp_reset+0x34>)
  401188:	47a0      	blx	r4
  40118a:	f8c7 8030 	str.w	r8, [r7, #48]	; 0x30
  40118e:	2064      	movs	r0, #100	; 0x64
  401190:	47a0      	blx	r4
  401192:	632e      	str	r6, [r5, #48]	; 0x30
  401194:	2064      	movs	r0, #100	; 0x64
  401196:	47a0      	blx	r4
  401198:	e8bd 81f0 	ldmia.w	sp!, {r4, r5, r6, r7, r8, pc}
  40119c:	400e1200 	.word	0x400e1200
  4011a0:	400e1000 	.word	0x400e1000
  4011a4:	00401151 	.word	0x00401151

004011a8 <nm_bsp_init>:
  4011a8:	b510      	push	{r4, lr}
  4011aa:	2200      	movs	r2, #0
  4011ac:	4b14      	ldr	r3, [pc, #80]	; (401200 <nm_bsp_init+0x58>)
  4011ae:	601a      	str	r2, [r3, #0]
  4011b0:	200a      	movs	r0, #10
  4011b2:	4c14      	ldr	r4, [pc, #80]	; (401204 <nm_bsp_init+0x5c>)
  4011b4:	47a0      	blx	r4
  4011b6:	200b      	movs	r0, #11
  4011b8:	47a0      	blx	r4
  4011ba:	200c      	movs	r0, #12
  4011bc:	47a0      	blx	r4
  4011be:	2010      	movs	r0, #16
  4011c0:	47a0      	blx	r4
  4011c2:	2011      	movs	r0, #17
  4011c4:	47a0      	blx	r4
  4011c6:	4b10      	ldr	r3, [pc, #64]	; (401208 <nm_bsp_init+0x60>)
  4011c8:	2208      	movs	r2, #8
  4011ca:	611a      	str	r2, [r3, #16]
  4011cc:	f8c3 20a0 	str.w	r2, [r3, #160]	; 0xa0
  4011d0:	631a      	str	r2, [r3, #48]	; 0x30
  4011d2:	4a0e      	ldr	r2, [pc, #56]	; (40120c <nm_bsp_init+0x64>)
  4011d4:	f44f 3100 	mov.w	r1, #131072	; 0x20000
  4011d8:	6111      	str	r1, [r2, #16]
  4011da:	f8c2 10a0 	str.w	r1, [r2, #160]	; 0xa0
  4011de:	6311      	str	r1, [r2, #48]	; 0x30
  4011e0:	2204      	movs	r2, #4
  4011e2:	611a      	str	r2, [r3, #16]
  4011e4:	f8c3 20a0 	str.w	r2, [r3, #160]	; 0xa0
  4011e8:	631a      	str	r2, [r3, #48]	; 0x30
  4011ea:	4b09      	ldr	r3, [pc, #36]	; (401210 <nm_bsp_init+0x68>)
  4011ec:	681b      	ldr	r3, [r3, #0]
  4011ee:	f013 0f01 	tst.w	r3, #1
  4011f2:	d001      	beq.n	4011f8 <nm_bsp_init+0x50>
  4011f4:	4b06      	ldr	r3, [pc, #24]	; (401210 <nm_bsp_init+0x68>)
  4011f6:	681b      	ldr	r3, [r3, #0]
  4011f8:	4b06      	ldr	r3, [pc, #24]	; (401214 <nm_bsp_init+0x6c>)
  4011fa:	4798      	blx	r3
  4011fc:	2000      	movs	r0, #0
  4011fe:	bd10      	pop	{r4, pc}
  401200:	20400918 	.word	0x20400918
  401204:	004045d5 	.word	0x004045d5
  401208:	400e1000 	.word	0x400e1000
  40120c:	400e1200 	.word	0x400e1200
  401210:	e000e010 	.word	0xe000e010
  401214:	00401171 	.word	0x00401171

00401218 <nm_bsp_register_isr>:
  401218:	b530      	push	{r4, r5, lr}
  40121a:	b083      	sub	sp, #12
  40121c:	4b14      	ldr	r3, [pc, #80]	; (401270 <nm_bsp_register_isr+0x58>)
  40121e:	6018      	str	r0, [r3, #0]
  401220:	2010      	movs	r0, #16
  401222:	4b14      	ldr	r3, [pc, #80]	; (401274 <nm_bsp_register_isr+0x5c>)
  401224:	4798      	blx	r3
  401226:	f04f 5120 	mov.w	r1, #671088640	; 0x28000000
  40122a:	207c      	movs	r0, #124	; 0x7c
  40122c:	4b12      	ldr	r3, [pc, #72]	; (401278 <nm_bsp_register_isr+0x60>)
  40122e:	4798      	blx	r3
  401230:	4c12      	ldr	r4, [pc, #72]	; (40127c <nm_bsp_register_isr+0x64>)
  401232:	2201      	movs	r2, #1
  401234:	f04f 5180 	mov.w	r1, #268435456	; 0x10000000
  401238:	4620      	mov	r0, r4
  40123a:	4b11      	ldr	r3, [pc, #68]	; (401280 <nm_bsp_register_isr+0x68>)
  40123c:	4798      	blx	r3
  40123e:	4b11      	ldr	r3, [pc, #68]	; (401284 <nm_bsp_register_isr+0x6c>)
  401240:	9300      	str	r3, [sp, #0]
  401242:	2351      	movs	r3, #81	; 0x51
  401244:	f04f 5280 	mov.w	r2, #268435456	; 0x10000000
  401248:	2110      	movs	r1, #16
  40124a:	4620      	mov	r0, r4
  40124c:	4d0e      	ldr	r5, [pc, #56]	; (401288 <nm_bsp_register_isr+0x70>)
  40124e:	47a8      	blx	r5
  401250:	f04f 5180 	mov.w	r1, #268435456	; 0x10000000
  401254:	4620      	mov	r0, r4
  401256:	4b0d      	ldr	r3, [pc, #52]	; (40128c <nm_bsp_register_isr+0x74>)
  401258:	4798      	blx	r3
  40125a:	f44f 3280 	mov.w	r2, #65536	; 0x10000
  40125e:	4b0c      	ldr	r3, [pc, #48]	; (401290 <nm_bsp_register_isr+0x78>)
  401260:	601a      	str	r2, [r3, #0]
  401262:	2200      	movs	r2, #0
  401264:	2110      	movs	r1, #16
  401266:	4620      	mov	r0, r4
  401268:	4b0a      	ldr	r3, [pc, #40]	; (401294 <nm_bsp_register_isr+0x7c>)
  40126a:	4798      	blx	r3
  40126c:	b003      	add	sp, #12
  40126e:	bd30      	pop	{r4, r5, pc}
  401270:	20400918 	.word	0x20400918
  401274:	004045d5 	.word	0x004045d5
  401278:	004041d5 	.word	0x004041d5
  40127c:	400e1400 	.word	0x400e1400
  401280:	00404091 	.word	0x00404091
  401284:	00401135 	.word	0x00401135
  401288:	00404359 	.word	0x00404359
  40128c:	004041c5 	.word	0x004041c5
  401290:	e000e100 	.word	0xe000e100
  401294:	00404429 	.word	0x00404429

00401298 <nm_bsp_interrupt_ctrl>:
  401298:	b508      	push	{r3, lr}
  40129a:	b128      	cbz	r0, 4012a8 <nm_bsp_interrupt_ctrl+0x10>
  40129c:	f04f 5180 	mov.w	r1, #268435456	; 0x10000000
  4012a0:	4804      	ldr	r0, [pc, #16]	; (4012b4 <nm_bsp_interrupt_ctrl+0x1c>)
  4012a2:	4b05      	ldr	r3, [pc, #20]	; (4012b8 <nm_bsp_interrupt_ctrl+0x20>)
  4012a4:	4798      	blx	r3
  4012a6:	bd08      	pop	{r3, pc}
  4012a8:	f04f 5180 	mov.w	r1, #268435456	; 0x10000000
  4012ac:	4801      	ldr	r0, [pc, #4]	; (4012b4 <nm_bsp_interrupt_ctrl+0x1c>)
  4012ae:	4b03      	ldr	r3, [pc, #12]	; (4012bc <nm_bsp_interrupt_ctrl+0x24>)
  4012b0:	4798      	blx	r3
  4012b2:	bd08      	pop	{r3, pc}
  4012b4:	400e1400 	.word	0x400e1400
  4012b8:	004041c5 	.word	0x004041c5
  4012bc:	004041c9 	.word	0x004041c9

004012c0 <nm_bus_init>:
  4012c0:	b5f8      	push	{r3, r4, r5, r6, r7, lr}
  4012c2:	4c39      	ldr	r4, [pc, #228]	; (4013a8 <nm_bus_init+0xe8>)
  4012c4:	f44f 1180 	mov.w	r1, #1048576	; 0x100000
  4012c8:	6621      	str	r1, [r4, #96]	; 0x60
  4012ca:	f8c4 1090 	str.w	r1, [r4, #144]	; 0x90
  4012ce:	6561      	str	r1, [r4, #84]	; 0x54
  4012d0:	6261      	str	r1, [r4, #36]	; 0x24
  4012d2:	f8c4 1080 	str.w	r1, [r4, #128]	; 0x80
  4012d6:	6f23      	ldr	r3, [r4, #112]	; 0x70
  4012d8:	430b      	orrs	r3, r1
  4012da:	6723      	str	r3, [r4, #112]	; 0x70
  4012dc:	6f63      	ldr	r3, [r4, #116]	; 0x74
  4012de:	f423 1380 	bic.w	r3, r3, #1048576	; 0x100000
  4012e2:	6763      	str	r3, [r4, #116]	; 0x74
  4012e4:	f44f 1200 	mov.w	r2, #2097152	; 0x200000
  4012e8:	6622      	str	r2, [r4, #96]	; 0x60
  4012ea:	f8c4 2090 	str.w	r2, [r4, #144]	; 0x90
  4012ee:	6562      	str	r2, [r4, #84]	; 0x54
  4012f0:	6262      	str	r2, [r4, #36]	; 0x24
  4012f2:	f8c4 2080 	str.w	r2, [r4, #128]	; 0x80
  4012f6:	6f23      	ldr	r3, [r4, #112]	; 0x70
  4012f8:	4313      	orrs	r3, r2
  4012fa:	6723      	str	r3, [r4, #112]	; 0x70
  4012fc:	6f63      	ldr	r3, [r4, #116]	; 0x74
  4012fe:	f423 1300 	bic.w	r3, r3, #2097152	; 0x200000
  401302:	6763      	str	r3, [r4, #116]	; 0x74
  401304:	f44f 0380 	mov.w	r3, #4194304	; 0x400000
  401308:	6623      	str	r3, [r4, #96]	; 0x60
  40130a:	f8c4 3090 	str.w	r3, [r4, #144]	; 0x90
  40130e:	6563      	str	r3, [r4, #84]	; 0x54
  401310:	6263      	str	r3, [r4, #36]	; 0x24
  401312:	f8c4 3080 	str.w	r3, [r4, #128]	; 0x80
  401316:	6f20      	ldr	r0, [r4, #112]	; 0x70
  401318:	4318      	orrs	r0, r3
  40131a:	6720      	str	r0, [r4, #112]	; 0x70
  40131c:	6f60      	ldr	r0, [r4, #116]	; 0x74
  40131e:	f420 0080 	bic.w	r0, r0, #4194304	; 0x400000
  401322:	6760      	str	r0, [r4, #116]	; 0x74
  401324:	6061      	str	r1, [r4, #4]
  401326:	6062      	str	r2, [r4, #4]
  401328:	6063      	str	r3, [r4, #4]
  40132a:	f04f 7600 	mov.w	r6, #33554432	; 0x2000000
  40132e:	6066      	str	r6, [r4, #4]
  401330:	6026      	str	r6, [r4, #0]
  401332:	6126      	str	r6, [r4, #16]
  401334:	6326      	str	r6, [r4, #48]	; 0x30
  401336:	4d1d      	ldr	r5, [pc, #116]	; (4013ac <nm_bus_init+0xec>)
  401338:	4628      	mov	r0, r5
  40133a:	4b1d      	ldr	r3, [pc, #116]	; (4013b0 <nm_bus_init+0xf0>)
  40133c:	4798      	blx	r3
  40133e:	2302      	movs	r3, #2
  401340:	602b      	str	r3, [r5, #0]
  401342:	2380      	movs	r3, #128	; 0x80
  401344:	602b      	str	r3, [r5, #0]
  401346:	686b      	ldr	r3, [r5, #4]
  401348:	f043 0301 	orr.w	r3, r3, #1
  40134c:	606b      	str	r3, [r5, #4]
  40134e:	686b      	ldr	r3, [r5, #4]
  401350:	f043 0310 	orr.w	r3, r3, #16
  401354:	606b      	str	r3, [r5, #4]
  401356:	2101      	movs	r1, #1
  401358:	4628      	mov	r0, r5
  40135a:	4b16      	ldr	r3, [pc, #88]	; (4013b4 <nm_bus_init+0xf4>)
  40135c:	4798      	blx	r3
  40135e:	2200      	movs	r2, #0
  401360:	2101      	movs	r1, #1
  401362:	4628      	mov	r0, r5
  401364:	4b14      	ldr	r3, [pc, #80]	; (4013b8 <nm_bus_init+0xf8>)
  401366:	4798      	blx	r3
  401368:	2201      	movs	r2, #1
  40136a:	4611      	mov	r1, r2
  40136c:	4628      	mov	r0, r5
  40136e:	4b13      	ldr	r3, [pc, #76]	; (4013bc <nm_bus_init+0xfc>)
  401370:	4798      	blx	r3
  401372:	2200      	movs	r2, #0
  401374:	2101      	movs	r1, #1
  401376:	4628      	mov	r0, r5
  401378:	4b11      	ldr	r3, [pc, #68]	; (4013c0 <nm_bus_init+0x100>)
  40137a:	4798      	blx	r3
  40137c:	4911      	ldr	r1, [pc, #68]	; (4013c4 <nm_bus_init+0x104>)
  40137e:	4812      	ldr	r0, [pc, #72]	; (4013c8 <nm_bus_init+0x108>)
  401380:	4b12      	ldr	r3, [pc, #72]	; (4013cc <nm_bus_init+0x10c>)
  401382:	4798      	blx	r3
  401384:	b2c2      	uxtb	r2, r0
  401386:	2101      	movs	r1, #1
  401388:	4628      	mov	r0, r5
  40138a:	4b11      	ldr	r3, [pc, #68]	; (4013d0 <nm_bus_init+0x110>)
  40138c:	4798      	blx	r3
  40138e:	2300      	movs	r3, #0
  401390:	461a      	mov	r2, r3
  401392:	2101      	movs	r1, #1
  401394:	4628      	mov	r0, r5
  401396:	4f0f      	ldr	r7, [pc, #60]	; (4013d4 <nm_bus_init+0x114>)
  401398:	47b8      	blx	r7
  40139a:	2301      	movs	r3, #1
  40139c:	602b      	str	r3, [r5, #0]
  40139e:	6326      	str	r6, [r4, #48]	; 0x30
  4013a0:	4b0d      	ldr	r3, [pc, #52]	; (4013d8 <nm_bus_init+0x118>)
  4013a2:	4798      	blx	r3
  4013a4:	2000      	movs	r0, #0
  4013a6:	bdf8      	pop	{r3, r4, r5, r6, r7, pc}
  4013a8:	400e1400 	.word	0x400e1400
  4013ac:	40008000 	.word	0x40008000
  4013b0:	00404629 	.word	0x00404629
  4013b4:	00404655 	.word	0x00404655
  4013b8:	004046d9 	.word	0x004046d9
  4013bc:	004046f9 	.word	0x004046f9
  4013c0:	00404719 	.word	0x00404719
  4013c4:	11e1a300 	.word	0x11e1a300
  4013c8:	02dc6c00 	.word	0x02dc6c00
  4013cc:	0040472d 	.word	0x0040472d
  4013d0:	00404745 	.word	0x00404745
  4013d4:	00404771 	.word	0x00404771
  4013d8:	00401171 	.word	0x00401171

004013dc <nm_bus_ioctl>:
  4013dc:	e92d 4ff0 	stmdb	sp!, {r4, r5, r6, r7, r8, r9, sl, fp, lr}
  4013e0:	b083      	sub	sp, #12
  4013e2:	2803      	cmp	r0, #3
  4013e4:	d141      	bne.n	40146a <nm_bus_ioctl+0x8e>
  4013e6:	680e      	ldr	r6, [r1, #0]
  4013e8:	684d      	ldr	r5, [r1, #4]
  4013ea:	890c      	ldrh	r4, [r1, #8]
  4013ec:	2300      	movs	r3, #0
  4013ee:	f88d 3004 	strb.w	r3, [sp, #4]
  4013f2:	f8ad 3006 	strh.w	r3, [sp, #6]
  4013f6:	b136      	cbz	r6, 401406 <nm_bus_ioctl+0x2a>
  4013f8:	2d00      	cmp	r5, #0
  4013fa:	d133      	bne.n	401464 <nm_bus_ioctl+0x88>
  4013fc:	f04f 0801 	mov.w	r8, #1
  401400:	4699      	mov	r9, r3
  401402:	ad01      	add	r5, sp, #4
  401404:	e004      	b.n	401410 <nm_bus_ioctl+0x34>
  401406:	f04f 0800 	mov.w	r8, #0
  40140a:	f04f 0901 	mov.w	r9, #1
  40140e:	ae01      	add	r6, sp, #4
  401410:	f04f 7200 	mov.w	r2, #33554432	; 0x2000000
  401414:	4b1c      	ldr	r3, [pc, #112]	; (401488 <nm_bus_ioctl+0xac>)
  401416:	635a      	str	r2, [r3, #52]	; 0x34
  401418:	b1f4      	cbz	r4, 401458 <nm_bus_ioctl+0x7c>
  40141a:	4f1c      	ldr	r7, [pc, #112]	; (40148c <nm_bus_ioctl+0xb0>)
  40141c:	f8df b084 	ldr.w	fp, [pc, #132]	; 4014a4 <nm_bus_ioctl+0xc8>
  401420:	f8df a084 	ldr.w	sl, [pc, #132]	; 4014a8 <nm_bus_ioctl+0xcc>
  401424:	2300      	movs	r3, #0
  401426:	461a      	mov	r2, r3
  401428:	7831      	ldrb	r1, [r6, #0]
  40142a:	4638      	mov	r0, r7
  40142c:	47d8      	blx	fp
  40142e:	f10d 0205 	add.w	r2, sp, #5
  401432:	f10d 0106 	add.w	r1, sp, #6
  401436:	4638      	mov	r0, r7
  401438:	47d0      	blx	sl
  40143a:	f8bd 3006 	ldrh.w	r3, [sp, #6]
  40143e:	702b      	strb	r3, [r5, #0]
  401440:	3c01      	subs	r4, #1
  401442:	b2a4      	uxth	r4, r4
  401444:	f1b8 0f00 	cmp.w	r8, #0
  401448:	d100      	bne.n	40144c <nm_bus_ioctl+0x70>
  40144a:	3501      	adds	r5, #1
  40144c:	f1b9 0f00 	cmp.w	r9, #0
  401450:	d100      	bne.n	401454 <nm_bus_ioctl+0x78>
  401452:	3601      	adds	r6, #1
  401454:	2c00      	cmp	r4, #0
  401456:	d1e5      	bne.n	401424 <nm_bus_ioctl+0x48>
  401458:	f04f 7200 	mov.w	r2, #33554432	; 0x2000000
  40145c:	4b0a      	ldr	r3, [pc, #40]	; (401488 <nm_bus_ioctl+0xac>)
  40145e:	631a      	str	r2, [r3, #48]	; 0x30
  401460:	2000      	movs	r0, #0
  401462:	e00e      	b.n	401482 <nm_bus_ioctl+0xa6>
  401464:	f06f 0005 	mvn.w	r0, #5
  401468:	e00b      	b.n	401482 <nm_bus_ioctl+0xa6>
  40146a:	f240 121f 	movw	r2, #287	; 0x11f
  40146e:	4908      	ldr	r1, [pc, #32]	; (401490 <nm_bus_ioctl+0xb4>)
  401470:	4808      	ldr	r0, [pc, #32]	; (401494 <nm_bus_ioctl+0xb8>)
  401472:	4c09      	ldr	r4, [pc, #36]	; (401498 <nm_bus_ioctl+0xbc>)
  401474:	47a0      	blx	r4
  401476:	4809      	ldr	r0, [pc, #36]	; (40149c <nm_bus_ioctl+0xc0>)
  401478:	47a0      	blx	r4
  40147a:	4809      	ldr	r0, [pc, #36]	; (4014a0 <nm_bus_ioctl+0xc4>)
  40147c:	47a0      	blx	r4
  40147e:	f04f 30ff 	mov.w	r0, #4294967295
  401482:	b003      	add	sp, #12
  401484:	e8bd 8ff0 	ldmia.w	sp!, {r4, r5, r6, r7, r8, r9, sl, fp, pc}
  401488:	400e1400 	.word	0x400e1400
  40148c:	40008000 	.word	0x40008000
  401490:	0040b8e8 	.word	0x0040b8e8
  401494:	0040b8f8 	.word	0x0040b8f8
  401498:	00405135 	.word	0x00405135
  40149c:	0040b90c 	.word	0x0040b90c
  4014a0:	0040ca54 	.word	0x0040ca54
  4014a4:	004046a1 	.word	0x004046a1
  4014a8:	0040466d 	.word	0x0040466d

004014ac <nm_bus_deinit>:
  4014ac:	2202      	movs	r2, #2
  4014ae:	4b0e      	ldr	r3, [pc, #56]	; (4014e8 <nm_bus_deinit+0x3c>)
  4014b0:	601a      	str	r2, [r3, #0]
  4014b2:	f503 2359 	add.w	r3, r3, #888832	; 0xd9000
  4014b6:	f503 6380 	add.w	r3, r3, #1024	; 0x400
  4014ba:	f44f 1200 	mov.w	r2, #2097152	; 0x200000
  4014be:	615a      	str	r2, [r3, #20]
  4014c0:	f8c3 20a0 	str.w	r2, [r3, #160]	; 0xa0
  4014c4:	f44f 1280 	mov.w	r2, #1048576	; 0x100000
  4014c8:	615a      	str	r2, [r3, #20]
  4014ca:	f8c3 20a0 	str.w	r2, [r3, #160]	; 0xa0
  4014ce:	f44f 0280 	mov.w	r2, #4194304	; 0x400000
  4014d2:	615a      	str	r2, [r3, #20]
  4014d4:	f8c3 20a0 	str.w	r2, [r3, #160]	; 0xa0
  4014d8:	f04f 7200 	mov.w	r2, #33554432	; 0x2000000
  4014dc:	615a      	str	r2, [r3, #20]
  4014de:	f8c3 20a0 	str.w	r2, [r3, #160]	; 0xa0
  4014e2:	2000      	movs	r0, #0
  4014e4:	4770      	bx	lr
  4014e6:	bf00      	nop
  4014e8:	40008000 	.word	0x40008000

004014ec <m2m_memcpy>:
  4014ec:	b13a      	cbz	r2, 4014fe <m2m_memcpy+0x12>
  4014ee:	3901      	subs	r1, #1
  4014f0:	1882      	adds	r2, r0, r2
  4014f2:	f811 3f01 	ldrb.w	r3, [r1, #1]!
  4014f6:	f800 3b01 	strb.w	r3, [r0], #1
  4014fa:	4290      	cmp	r0, r2
  4014fc:	d1f9      	bne.n	4014f2 <m2m_memcpy+0x6>
  4014fe:	4770      	bx	lr

00401500 <m2m_memset>:
  401500:	b122      	cbz	r2, 40150c <m2m_memset+0xc>
  401502:	1882      	adds	r2, r0, r2
  401504:	f800 1b01 	strb.w	r1, [r0], #1
  401508:	4290      	cmp	r0, r2
  40150a:	d1fb      	bne.n	401504 <m2m_memset+0x4>
  40150c:	4770      	bx	lr
  40150e:	bf00      	nop

00401510 <m2m_strlen>:
  401510:	4603      	mov	r3, r0
  401512:	7802      	ldrb	r2, [r0, #0]
  401514:	b13a      	cbz	r2, 401526 <m2m_strlen+0x16>
  401516:	2000      	movs	r0, #0
  401518:	3001      	adds	r0, #1
  40151a:	b280      	uxth	r0, r0
  40151c:	f813 2f01 	ldrb.w	r2, [r3, #1]!
  401520:	2a00      	cmp	r2, #0
  401522:	d1f9      	bne.n	401518 <m2m_strlen+0x8>
  401524:	4770      	bx	lr
  401526:	2000      	movs	r0, #0
  401528:	4770      	bx	lr
  40152a:	bf00      	nop

0040152c <isr>:
  40152c:	4a02      	ldr	r2, [pc, #8]	; (401538 <isr+0xc>)
  40152e:	7813      	ldrb	r3, [r2, #0]
  401530:	3301      	adds	r3, #1
  401532:	b2db      	uxtb	r3, r3
  401534:	7013      	strb	r3, [r2, #0]
  401536:	4770      	bx	lr
  401538:	20400924 	.word	0x20400924

0040153c <m2m_hif_cb>:
  40153c:	4770      	bx	lr
  40153e:	bf00      	nop

00401540 <hif_set_rx_done>:
  401540:	b500      	push	{lr}
  401542:	b083      	sub	sp, #12
  401544:	2001      	movs	r0, #1
  401546:	4b0b      	ldr	r3, [pc, #44]	; (401574 <hif_set_rx_done+0x34>)
  401548:	4798      	blx	r3
  40154a:	a901      	add	r1, sp, #4
  40154c:	f241 0070 	movw	r0, #4208	; 0x1070
  401550:	4b09      	ldr	r3, [pc, #36]	; (401578 <hif_set_rx_done+0x38>)
  401552:	4798      	blx	r3
  401554:	4603      	mov	r3, r0
  401556:	b940      	cbnz	r0, 40156a <hif_set_rx_done+0x2a>
  401558:	9901      	ldr	r1, [sp, #4]
  40155a:	f041 0102 	orr.w	r1, r1, #2
  40155e:	9101      	str	r1, [sp, #4]
  401560:	f241 0070 	movw	r0, #4208	; 0x1070
  401564:	4b05      	ldr	r3, [pc, #20]	; (40157c <hif_set_rx_done+0x3c>)
  401566:	4798      	blx	r3
  401568:	4603      	mov	r3, r0
  40156a:	4618      	mov	r0, r3
  40156c:	b003      	add	sp, #12
  40156e:	f85d fb04 	ldr.w	pc, [sp], #4
  401572:	bf00      	nop
  401574:	00401299 	.word	0x00401299
  401578:	00402809 	.word	0x00402809
  40157c:	00402815 	.word	0x00402815

00401580 <hif_chip_wake>:
  401580:	b508      	push	{r3, lr}
  401582:	4b11      	ldr	r3, [pc, #68]	; (4015c8 <hif_chip_wake+0x48>)
  401584:	781b      	ldrb	r3, [r3, #0]
  401586:	f013 0fff 	tst.w	r3, #255	; 0xff
  40158a:	d115      	bne.n	4015b8 <hif_chip_wake+0x38>
  40158c:	4b0f      	ldr	r3, [pc, #60]	; (4015cc <hif_chip_wake+0x4c>)
  40158e:	781b      	ldrb	r3, [r3, #0]
  401590:	b2db      	uxtb	r3, r3
  401592:	2b03      	cmp	r3, #3
  401594:	d004      	beq.n	4015a0 <hif_chip_wake+0x20>
  401596:	4b0d      	ldr	r3, [pc, #52]	; (4015cc <hif_chip_wake+0x4c>)
  401598:	781b      	ldrb	r3, [r3, #0]
  40159a:	b2db      	uxtb	r3, r3
  40159c:	2b04      	cmp	r3, #4
  40159e:	d10b      	bne.n	4015b8 <hif_chip_wake+0x38>
  4015a0:	4b0b      	ldr	r3, [pc, #44]	; (4015d0 <hif_chip_wake+0x50>)
  4015a2:	4798      	blx	r3
  4015a4:	4603      	mov	r3, r0
  4015a6:	b968      	cbnz	r0, 4015c4 <hif_chip_wake+0x44>
  4015a8:	f245 6178 	movw	r1, #22136	; 0x5678
  4015ac:	f241 0074 	movw	r0, #4212	; 0x1074
  4015b0:	4b08      	ldr	r3, [pc, #32]	; (4015d4 <hif_chip_wake+0x54>)
  4015b2:	4798      	blx	r3
  4015b4:	4603      	mov	r3, r0
  4015b6:	b928      	cbnz	r0, 4015c4 <hif_chip_wake+0x44>
  4015b8:	4a03      	ldr	r2, [pc, #12]	; (4015c8 <hif_chip_wake+0x48>)
  4015ba:	7813      	ldrb	r3, [r2, #0]
  4015bc:	3301      	adds	r3, #1
  4015be:	b2db      	uxtb	r3, r3
  4015c0:	7013      	strb	r3, [r2, #0]
  4015c2:	2300      	movs	r3, #0
  4015c4:	4618      	mov	r0, r3
  4015c6:	bd08      	pop	{r3, pc}
  4015c8:	20400940 	.word	0x20400940
  4015cc:	20400930 	.word	0x20400930
  4015d0:	00402379 	.word	0x00402379
  4015d4:	00402815 	.word	0x00402815

004015d8 <hif_chip_sleep>:
  4015d8:	b500      	push	{lr}
  4015da:	b083      	sub	sp, #12
  4015dc:	4b1d      	ldr	r3, [pc, #116]	; (401654 <hif_chip_sleep+0x7c>)
  4015de:	781b      	ldrb	r3, [r3, #0]
  4015e0:	f013 0fff 	tst.w	r3, #255	; 0xff
  4015e4:	d004      	beq.n	4015f0 <hif_chip_sleep+0x18>
  4015e6:	4a1b      	ldr	r2, [pc, #108]	; (401654 <hif_chip_sleep+0x7c>)
  4015e8:	7813      	ldrb	r3, [r2, #0]
  4015ea:	3b01      	subs	r3, #1
  4015ec:	b2db      	uxtb	r3, r3
  4015ee:	7013      	strb	r3, [r2, #0]
  4015f0:	4b18      	ldr	r3, [pc, #96]	; (401654 <hif_chip_sleep+0x7c>)
  4015f2:	781b      	ldrb	r3, [r3, #0]
  4015f4:	f013 0fff 	tst.w	r3, #255	; 0xff
  4015f8:	d125      	bne.n	401646 <hif_chip_sleep+0x6e>
  4015fa:	4b17      	ldr	r3, [pc, #92]	; (401658 <hif_chip_sleep+0x80>)
  4015fc:	781b      	ldrb	r3, [r3, #0]
  4015fe:	b2db      	uxtb	r3, r3
  401600:	2b03      	cmp	r3, #3
  401602:	d004      	beq.n	40160e <hif_chip_sleep+0x36>
  401604:	4b14      	ldr	r3, [pc, #80]	; (401658 <hif_chip_sleep+0x80>)
  401606:	781b      	ldrb	r3, [r3, #0]
  401608:	b2db      	uxtb	r3, r3
  40160a:	2b04      	cmp	r3, #4
  40160c:	d11d      	bne.n	40164a <hif_chip_sleep+0x72>
  40160e:	2300      	movs	r3, #0
  401610:	9301      	str	r3, [sp, #4]
  401612:	f244 3121 	movw	r1, #17185	; 0x4321
  401616:	f241 0074 	movw	r0, #4212	; 0x1074
  40161a:	4b10      	ldr	r3, [pc, #64]	; (40165c <hif_chip_sleep+0x84>)
  40161c:	4798      	blx	r3
  40161e:	4603      	mov	r3, r0
  401620:	b9a0      	cbnz	r0, 40164c <hif_chip_sleep+0x74>
  401622:	a901      	add	r1, sp, #4
  401624:	2001      	movs	r0, #1
  401626:	4b0e      	ldr	r3, [pc, #56]	; (401660 <hif_chip_sleep+0x88>)
  401628:	4798      	blx	r3
  40162a:	4603      	mov	r3, r0
  40162c:	b970      	cbnz	r0, 40164c <hif_chip_sleep+0x74>
  40162e:	9901      	ldr	r1, [sp, #4]
  401630:	f011 0f02 	tst.w	r1, #2
  401634:	d00a      	beq.n	40164c <hif_chip_sleep+0x74>
  401636:	f021 0102 	bic.w	r1, r1, #2
  40163a:	9101      	str	r1, [sp, #4]
  40163c:	2001      	movs	r0, #1
  40163e:	4b07      	ldr	r3, [pc, #28]	; (40165c <hif_chip_sleep+0x84>)
  401640:	4798      	blx	r3
  401642:	4603      	mov	r3, r0
  401644:	e002      	b.n	40164c <hif_chip_sleep+0x74>
  401646:	2300      	movs	r3, #0
  401648:	e000      	b.n	40164c <hif_chip_sleep+0x74>
  40164a:	2300      	movs	r3, #0
  40164c:	4618      	mov	r0, r3
  40164e:	b003      	add	sp, #12
  401650:	f85d fb04 	ldr.w	pc, [sp], #4
  401654:	20400940 	.word	0x20400940
  401658:	20400930 	.word	0x20400930
  40165c:	00402815 	.word	0x00402815
  401660:	00402809 	.word	0x00402809

00401664 <hif_send>:
  401664:	e92d 4ff0 	stmdb	sp!, {r4, r5, r6, r7, r8, r9, sl, fp, lr}
  401668:	b087      	sub	sp, #28
  40166a:	4680      	mov	r8, r0
  40166c:	460f      	mov	r7, r1
  40166e:	4692      	mov	sl, r2
  401670:	4699      	mov	r9, r3
  401672:	9c10      	ldr	r4, [sp, #64]	; 0x40
  401674:	f8bd 6044 	ldrh.w	r6, [sp, #68]	; 0x44
  401678:	f8bd 5048 	ldrh.w	r5, [sp, #72]	; 0x48
  40167c:	f001 037f 	and.w	r3, r1, #127	; 0x7f
  401680:	f88d 3015 	strb.w	r3, [sp, #21]
  401684:	f88d 0014 	strb.w	r0, [sp, #20]
  401688:	2308      	movs	r3, #8
  40168a:	f8ad 3016 	strh.w	r3, [sp, #22]
  40168e:	b144      	cbz	r4, 4016a2 <hif_send+0x3e>
  401690:	f8bd 3016 	ldrh.w	r3, [sp, #22]
  401694:	fa16 f383 	uxtah	r3, r6, r3
  401698:	442b      	add	r3, r5
  40169a:	b29b      	uxth	r3, r3
  40169c:	f8ad 3016 	strh.w	r3, [sp, #22]
  4016a0:	e006      	b.n	4016b0 <hif_send+0x4c>
  4016a2:	f8bd 3016 	ldrh.w	r3, [sp, #22]
  4016a6:	fa19 f383 	uxtah	r3, r9, r3
  4016aa:	b29b      	uxth	r3, r3
  4016ac:	f8ad 3016 	strh.w	r3, [sp, #22]
  4016b0:	4b57      	ldr	r3, [pc, #348]	; (401810 <hif_send+0x1ac>)
  4016b2:	4798      	blx	r3
  4016b4:	4683      	mov	fp, r0
  4016b6:	2800      	cmp	r0, #0
  4016b8:	f040 8095 	bne.w	4017e6 <hif_send+0x182>
  4016bc:	2300      	movs	r3, #0
  4016be:	9303      	str	r3, [sp, #12]
  4016c0:	f8ad 3006 	strh.w	r3, [sp, #6]
  4016c4:	9302      	str	r3, [sp, #8]
  4016c6:	9b02      	ldr	r3, [sp, #8]
  4016c8:	ea48 0303 	orr.w	r3, r8, r3
  4016cc:	9302      	str	r3, [sp, #8]
  4016ce:	9b02      	ldr	r3, [sp, #8]
  4016d0:	ea43 2707 	orr.w	r7, r3, r7, lsl #8
  4016d4:	9702      	str	r7, [sp, #8]
  4016d6:	f8bd 2016 	ldrh.w	r2, [sp, #22]
  4016da:	9b02      	ldr	r3, [sp, #8]
  4016dc:	ea43 4302 	orr.w	r3, r3, r2, lsl #16
  4016e0:	9302      	str	r3, [sp, #8]
  4016e2:	9902      	ldr	r1, [sp, #8]
  4016e4:	f241 008c 	movw	r0, #4236	; 0x108c
  4016e8:	4b4a      	ldr	r3, [pc, #296]	; (401814 <hif_send+0x1b0>)
  4016ea:	4798      	blx	r3
  4016ec:	4683      	mov	fp, r0
  4016ee:	2800      	cmp	r0, #0
  4016f0:	f040 808a 	bne.w	401808 <hif_send+0x1a4>
  4016f4:	2300      	movs	r3, #0
  4016f6:	9302      	str	r3, [sp, #8]
  4016f8:	9b02      	ldr	r3, [sp, #8]
  4016fa:	f043 0302 	orr.w	r3, r3, #2
  4016fe:	9302      	str	r3, [sp, #8]
  401700:	9902      	ldr	r1, [sp, #8]
  401702:	f241 0078 	movw	r0, #4216	; 0x1078
  401706:	4b43      	ldr	r3, [pc, #268]	; (401814 <hif_send+0x1b0>)
  401708:	4798      	blx	r3
  40170a:	4683      	mov	fp, r0
  40170c:	2800      	cmp	r0, #0
  40170e:	d17b      	bne.n	401808 <hif_send+0x1a4>
  401710:	2300      	movs	r3, #0
  401712:	9303      	str	r3, [sp, #12]
  401714:	f8ad 3006 	strh.w	r3, [sp, #6]
  401718:	f8bd 3006 	ldrh.w	r3, [sp, #6]
  40171c:	b29b      	uxth	r3, r3
  40171e:	f5b3 7f7a 	cmp.w	r3, #1000	; 0x3e8
  401722:	d21e      	bcs.n	401762 <hif_send+0xfe>
  401724:	f241 0878 	movw	r8, #4216	; 0x1078
  401728:	4f3b      	ldr	r7, [pc, #236]	; (401818 <hif_send+0x1b4>)
  40172a:	a902      	add	r1, sp, #8
  40172c:	4640      	mov	r0, r8
  40172e:	47b8      	blx	r7
  401730:	b9b8      	cbnz	r0, 401762 <hif_send+0xfe>
  401732:	9b02      	ldr	r3, [sp, #8]
  401734:	f013 0f02 	tst.w	r3, #2
  401738:	d107      	bne.n	40174a <hif_send+0xe6>
  40173a:	a903      	add	r1, sp, #12
  40173c:	4837      	ldr	r0, [pc, #220]	; (40181c <hif_send+0x1b8>)
  40173e:	4b36      	ldr	r3, [pc, #216]	; (401818 <hif_send+0x1b4>)
  401740:	4798      	blx	r3
  401742:	b170      	cbz	r0, 401762 <hif_send+0xfe>
  401744:	2300      	movs	r3, #0
  401746:	9303      	str	r3, [sp, #12]
  401748:	e00b      	b.n	401762 <hif_send+0xfe>
  40174a:	f8bd 3006 	ldrh.w	r3, [sp, #6]
  40174e:	3301      	adds	r3, #1
  401750:	b29b      	uxth	r3, r3
  401752:	f8ad 3006 	strh.w	r3, [sp, #6]
  401756:	f8bd 3006 	ldrh.w	r3, [sp, #6]
  40175a:	b29b      	uxth	r3, r3
  40175c:	f5b3 7f7a 	cmp.w	r3, #1000	; 0x3e8
  401760:	d3e3      	bcc.n	40172a <hif_send+0xc6>
  401762:	9b03      	ldr	r3, [sp, #12]
  401764:	2b00      	cmp	r3, #0
  401766:	d04d      	beq.n	401804 <hif_send+0x1a0>
  401768:	9b03      	ldr	r3, [sp, #12]
  40176a:	9304      	str	r3, [sp, #16]
  40176c:	f8bd 3016 	ldrh.w	r3, [sp, #22]
  401770:	b29b      	uxth	r3, r3
  401772:	f8ad 3016 	strh.w	r3, [sp, #22]
  401776:	9804      	ldr	r0, [sp, #16]
  401778:	2208      	movs	r2, #8
  40177a:	a905      	add	r1, sp, #20
  40177c:	4b28      	ldr	r3, [pc, #160]	; (401820 <hif_send+0x1bc>)
  40177e:	4798      	blx	r3
  401780:	4683      	mov	fp, r0
  401782:	2800      	cmp	r0, #0
  401784:	d140      	bne.n	401808 <hif_send+0x1a4>
  401786:	9b04      	ldr	r3, [sp, #16]
  401788:	3308      	adds	r3, #8
  40178a:	9304      	str	r3, [sp, #16]
  40178c:	f1ba 0f00 	cmp.w	sl, #0
  401790:	d00a      	beq.n	4017a8 <hif_send+0x144>
  401792:	9804      	ldr	r0, [sp, #16]
  401794:	464a      	mov	r2, r9
  401796:	4651      	mov	r1, sl
  401798:	4b21      	ldr	r3, [pc, #132]	; (401820 <hif_send+0x1bc>)
  40179a:	4798      	blx	r3
  40179c:	4683      	mov	fp, r0
  40179e:	2800      	cmp	r0, #0
  4017a0:	d132      	bne.n	401808 <hif_send+0x1a4>
  4017a2:	9b04      	ldr	r3, [sp, #16]
  4017a4:	444b      	add	r3, r9
  4017a6:	9304      	str	r3, [sp, #16]
  4017a8:	b174      	cbz	r4, 4017c8 <hif_send+0x164>
  4017aa:	9b04      	ldr	r3, [sp, #16]
  4017ac:	ebc9 0505 	rsb	r5, r9, r5
  4017b0:	441d      	add	r5, r3
  4017b2:	9504      	str	r5, [sp, #16]
  4017b4:	9804      	ldr	r0, [sp, #16]
  4017b6:	4632      	mov	r2, r6
  4017b8:	4621      	mov	r1, r4
  4017ba:	4b19      	ldr	r3, [pc, #100]	; (401820 <hif_send+0x1bc>)
  4017bc:	4798      	blx	r3
  4017be:	4683      	mov	fp, r0
  4017c0:	bb10      	cbnz	r0, 401808 <hif_send+0x1a4>
  4017c2:	9b04      	ldr	r3, [sp, #16]
  4017c4:	441e      	add	r6, r3
  4017c6:	9604      	str	r6, [sp, #16]
  4017c8:	9b03      	ldr	r3, [sp, #12]
  4017ca:	009b      	lsls	r3, r3, #2
  4017cc:	9302      	str	r3, [sp, #8]
  4017ce:	9b02      	ldr	r3, [sp, #8]
  4017d0:	f043 0302 	orr.w	r3, r3, #2
  4017d4:	9302      	str	r3, [sp, #8]
  4017d6:	9902      	ldr	r1, [sp, #8]
  4017d8:	f241 006c 	movw	r0, #4204	; 0x106c
  4017dc:	4b0d      	ldr	r3, [pc, #52]	; (401814 <hif_send+0x1b0>)
  4017de:	4798      	blx	r3
  4017e0:	4683      	mov	fp, r0
  4017e2:	b988      	cbnz	r0, 401808 <hif_send+0x1a4>
  4017e4:	e00a      	b.n	4017fc <hif_send+0x198>
  4017e6:	f240 129f 	movw	r2, #415	; 0x19f
  4017ea:	490e      	ldr	r1, [pc, #56]	; (401824 <hif_send+0x1c0>)
  4017ec:	480e      	ldr	r0, [pc, #56]	; (401828 <hif_send+0x1c4>)
  4017ee:	4c0f      	ldr	r4, [pc, #60]	; (40182c <hif_send+0x1c8>)
  4017f0:	47a0      	blx	r4
  4017f2:	480f      	ldr	r0, [pc, #60]	; (401830 <hif_send+0x1cc>)
  4017f4:	47a0      	blx	r4
  4017f6:	480f      	ldr	r0, [pc, #60]	; (401834 <hif_send+0x1d0>)
  4017f8:	47a0      	blx	r4
  4017fa:	e005      	b.n	401808 <hif_send+0x1a4>
  4017fc:	4b0e      	ldr	r3, [pc, #56]	; (401838 <hif_send+0x1d4>)
  4017fe:	4798      	blx	r3
  401800:	4683      	mov	fp, r0
  401802:	e001      	b.n	401808 <hif_send+0x1a4>
  401804:	f06f 0b02 	mvn.w	fp, #2
  401808:	4658      	mov	r0, fp
  40180a:	b007      	add	sp, #28
  40180c:	e8bd 8ff0 	ldmia.w	sp!, {r4, r5, r6, r7, r8, r9, sl, fp, pc}
  401810:	00401581 	.word	0x00401581
  401814:	00402815 	.word	0x00402815
  401818:	00402809 	.word	0x00402809
  40181c:	00150400 	.word	0x00150400
  401820:	00402881 	.word	0x00402881
  401824:	0040bb7c 	.word	0x0040bb7c
  401828:	0040b8f8 	.word	0x0040b8f8
  40182c:	00405135 	.word	0x00405135
  401830:	0040b938 	.word	0x0040b938
  401834:	0040ca54 	.word	0x0040ca54
  401838:	004015d9 	.word	0x004015d9

0040183c <hif_handle_isr>:
  40183c:	e92d 43f0 	stmdb	sp!, {r4, r5, r6, r7, r8, r9, lr}
  401840:	b087      	sub	sp, #28
  401842:	f8df 92fc 	ldr.w	r9, [pc, #764]	; 401b40 <hif_handle_isr+0x304>
  401846:	4fa3      	ldr	r7, [pc, #652]	; (401ad4 <hif_handle_isr+0x298>)
  401848:	f8df 82f8 	ldr.w	r8, [pc, #760]	; 401b44 <hif_handle_isr+0x308>
  40184c:	4ea2      	ldr	r6, [pc, #648]	; (401ad8 <hif_handle_isr+0x29c>)
  40184e:	e17b      	b.n	401b48 <hif_handle_isr+0x30c>
  401850:	f899 3000 	ldrb.w	r3, [r9]
  401854:	3b01      	subs	r3, #1
  401856:	b2db      	uxtb	r3, r3
  401858:	f889 3000 	strb.w	r3, [r9]
  40185c:	47b8      	blx	r7
  40185e:	4604      	mov	r4, r0
  401860:	2800      	cmp	r0, #0
  401862:	f040 811a 	bne.w	401a9a <hif_handle_isr+0x25e>
  401866:	a903      	add	r1, sp, #12
  401868:	f241 0070 	movw	r0, #4208	; 0x1070
  40186c:	4b9b      	ldr	r3, [pc, #620]	; (401adc <hif_handle_isr+0x2a0>)
  40186e:	4798      	blx	r3
  401870:	4604      	mov	r4, r0
  401872:	2800      	cmp	r0, #0
  401874:	f040 8106 	bne.w	401a84 <hif_handle_isr+0x248>
  401878:	9b03      	ldr	r3, [sp, #12]
  40187a:	f013 0f01 	tst.w	r3, #1
  40187e:	f000 80f5 	beq.w	401a6c <hif_handle_isr+0x230>
  401882:	4b97      	ldr	r3, [pc, #604]	; (401ae0 <hif_handle_isr+0x2a4>)
  401884:	4798      	blx	r3
  401886:	9903      	ldr	r1, [sp, #12]
  401888:	f021 0101 	bic.w	r1, r1, #1
  40188c:	9103      	str	r1, [sp, #12]
  40188e:	f241 0070 	movw	r0, #4208	; 0x1070
  401892:	4b94      	ldr	r3, [pc, #592]	; (401ae4 <hif_handle_isr+0x2a8>)
  401894:	4798      	blx	r3
  401896:	4604      	mov	r4, r0
  401898:	2800      	cmp	r0, #0
  40189a:	f040 810e 	bne.w	401aba <hif_handle_isr+0x27e>
  40189e:	2200      	movs	r2, #0
  4018a0:	4b91      	ldr	r3, [pc, #580]	; (401ae8 <hif_handle_isr+0x2ac>)
  4018a2:	701a      	strb	r2, [r3, #0]
  4018a4:	9d03      	ldr	r5, [sp, #12]
  4018a6:	f3c5 058b 	ubfx	r5, r5, #2, #12
  4018aa:	2d00      	cmp	r5, #0
  4018ac:	f000 80d1 	beq.w	401a52 <hif_handle_isr+0x216>
  4018b0:	a906      	add	r1, sp, #24
  4018b2:	f841 2d04 	str.w	r2, [r1, #-4]!
  4018b6:	f241 0084 	movw	r0, #4228	; 0x1084
  4018ba:	4b88      	ldr	r3, [pc, #544]	; (401adc <hif_handle_isr+0x2a0>)
  4018bc:	4798      	blx	r3
  4018be:	4604      	mov	r4, r0
  4018c0:	b168      	cbz	r0, 4018de <hif_handle_isr+0xa2>
  4018c2:	f44f 72e7 	mov.w	r2, #462	; 0x1ce
  4018c6:	4641      	mov	r1, r8
  4018c8:	4630      	mov	r0, r6
  4018ca:	4d88      	ldr	r5, [pc, #544]	; (401aec <hif_handle_isr+0x2b0>)
  4018cc:	47a8      	blx	r5
  4018ce:	4888      	ldr	r0, [pc, #544]	; (401af0 <hif_handle_isr+0x2b4>)
  4018d0:	47a8      	blx	r5
  4018d2:	4888      	ldr	r0, [pc, #544]	; (401af4 <hif_handle_isr+0x2b8>)
  4018d4:	47a8      	blx	r5
  4018d6:	2001      	movs	r0, #1
  4018d8:	4b81      	ldr	r3, [pc, #516]	; (401ae0 <hif_handle_isr+0x2a4>)
  4018da:	4798      	blx	r3
  4018dc:	e0eb      	b.n	401ab6 <hif_handle_isr+0x27a>
  4018de:	2204      	movs	r2, #4
  4018e0:	a904      	add	r1, sp, #16
  4018e2:	9805      	ldr	r0, [sp, #20]
  4018e4:	4b84      	ldr	r3, [pc, #528]	; (401af8 <hif_handle_isr+0x2bc>)
  4018e6:	4798      	blx	r3
  4018e8:	f8bd 3012 	ldrh.w	r3, [sp, #18]
  4018ec:	b29b      	uxth	r3, r3
  4018ee:	f8ad 3012 	strh.w	r3, [sp, #18]
  4018f2:	4604      	mov	r4, r0
  4018f4:	b168      	cbz	r0, 401912 <hif_handle_isr+0xd6>
  4018f6:	f44f 72eb 	mov.w	r2, #470	; 0x1d6
  4018fa:	4641      	mov	r1, r8
  4018fc:	4630      	mov	r0, r6
  4018fe:	4d7b      	ldr	r5, [pc, #492]	; (401aec <hif_handle_isr+0x2b0>)
  401900:	47a8      	blx	r5
  401902:	487e      	ldr	r0, [pc, #504]	; (401afc <hif_handle_isr+0x2c0>)
  401904:	47a8      	blx	r5
  401906:	487b      	ldr	r0, [pc, #492]	; (401af4 <hif_handle_isr+0x2b8>)
  401908:	47a8      	blx	r5
  40190a:	2001      	movs	r0, #1
  40190c:	4b74      	ldr	r3, [pc, #464]	; (401ae0 <hif_handle_isr+0x2a4>)
  40190e:	4798      	blx	r3
  401910:	e0d1      	b.n	401ab6 <hif_handle_isr+0x27a>
  401912:	f8bd 3012 	ldrh.w	r3, [sp, #18]
  401916:	b29b      	uxth	r3, r3
  401918:	429d      	cmp	r5, r3
  40191a:	d01e      	beq.n	40195a <hif_handle_isr+0x11e>
  40191c:	f8bd 3012 	ldrh.w	r3, [sp, #18]
  401920:	b29b      	uxth	r3, r3
  401922:	1aeb      	subs	r3, r5, r3
  401924:	2b04      	cmp	r3, #4
  401926:	dd18      	ble.n	40195a <hif_handle_isr+0x11e>
  401928:	f240 12df 	movw	r2, #479	; 0x1df
  40192c:	4641      	mov	r1, r8
  40192e:	4630      	mov	r0, r6
  401930:	4c6e      	ldr	r4, [pc, #440]	; (401aec <hif_handle_isr+0x2b0>)
  401932:	47a0      	blx	r4
  401934:	f8bd 2012 	ldrh.w	r2, [sp, #18]
  401938:	f89d 3010 	ldrb.w	r3, [sp, #16]
  40193c:	f89d 1011 	ldrb.w	r1, [sp, #17]
  401940:	9100      	str	r1, [sp, #0]
  401942:	b292      	uxth	r2, r2
  401944:	4629      	mov	r1, r5
  401946:	486e      	ldr	r0, [pc, #440]	; (401b00 <hif_handle_isr+0x2c4>)
  401948:	47a0      	blx	r4
  40194a:	486a      	ldr	r0, [pc, #424]	; (401af4 <hif_handle_isr+0x2b8>)
  40194c:	47a0      	blx	r4
  40194e:	2001      	movs	r0, #1
  401950:	4b63      	ldr	r3, [pc, #396]	; (401ae0 <hif_handle_isr+0x2a4>)
  401952:	4798      	blx	r3
  401954:	f06f 0405 	mvn.w	r4, #5
  401958:	e0ad      	b.n	401ab6 <hif_handle_isr+0x27a>
  40195a:	f89d 3010 	ldrb.w	r3, [sp, #16]
  40195e:	b2db      	uxtb	r3, r3
  401960:	2b01      	cmp	r3, #1
  401962:	d10d      	bne.n	401980 <hif_handle_isr+0x144>
  401964:	4b67      	ldr	r3, [pc, #412]	; (401b04 <hif_handle_isr+0x2c8>)
  401966:	681b      	ldr	r3, [r3, #0]
  401968:	2b00      	cmp	r3, #0
  40196a:	d060      	beq.n	401a2e <hif_handle_isr+0x1f2>
  40196c:	f89d 0011 	ldrb.w	r0, [sp, #17]
  401970:	f8bd 1012 	ldrh.w	r1, [sp, #18]
  401974:	3908      	subs	r1, #8
  401976:	9a05      	ldr	r2, [sp, #20]
  401978:	3208      	adds	r2, #8
  40197a:	b289      	uxth	r1, r1
  40197c:	4798      	blx	r3
  40197e:	e056      	b.n	401a2e <hif_handle_isr+0x1f2>
  401980:	f89d 3010 	ldrb.w	r3, [sp, #16]
  401984:	b2db      	uxtb	r3, r3
  401986:	2b02      	cmp	r3, #2
  401988:	d10d      	bne.n	4019a6 <hif_handle_isr+0x16a>
  40198a:	4b5f      	ldr	r3, [pc, #380]	; (401b08 <hif_handle_isr+0x2cc>)
  40198c:	681b      	ldr	r3, [r3, #0]
  40198e:	2b00      	cmp	r3, #0
  401990:	d04d      	beq.n	401a2e <hif_handle_isr+0x1f2>
  401992:	f89d 0011 	ldrb.w	r0, [sp, #17]
  401996:	f8bd 1012 	ldrh.w	r1, [sp, #18]
  40199a:	3908      	subs	r1, #8
  40199c:	9a05      	ldr	r2, [sp, #20]
  40199e:	3208      	adds	r2, #8
  4019a0:	b289      	uxth	r1, r1
  4019a2:	4798      	blx	r3
  4019a4:	e043      	b.n	401a2e <hif_handle_isr+0x1f2>
  4019a6:	f89d 3010 	ldrb.w	r3, [sp, #16]
  4019aa:	b2db      	uxtb	r3, r3
  4019ac:	2b04      	cmp	r3, #4
  4019ae:	d10d      	bne.n	4019cc <hif_handle_isr+0x190>
  4019b0:	4b56      	ldr	r3, [pc, #344]	; (401b0c <hif_handle_isr+0x2d0>)
  4019b2:	681b      	ldr	r3, [r3, #0]
  4019b4:	2b00      	cmp	r3, #0
  4019b6:	d03a      	beq.n	401a2e <hif_handle_isr+0x1f2>
  4019b8:	f89d 0011 	ldrb.w	r0, [sp, #17]
  4019bc:	f8bd 1012 	ldrh.w	r1, [sp, #18]
  4019c0:	3908      	subs	r1, #8
  4019c2:	9a05      	ldr	r2, [sp, #20]
  4019c4:	3208      	adds	r2, #8
  4019c6:	b289      	uxth	r1, r1
  4019c8:	4798      	blx	r3
  4019ca:	e030      	b.n	401a2e <hif_handle_isr+0x1f2>
  4019cc:	f89d 3010 	ldrb.w	r3, [sp, #16]
  4019d0:	b2db      	uxtb	r3, r3
  4019d2:	2b06      	cmp	r3, #6
  4019d4:	d10c      	bne.n	4019f0 <hif_handle_isr+0x1b4>
  4019d6:	4b4e      	ldr	r3, [pc, #312]	; (401b10 <hif_handle_isr+0x2d4>)
  4019d8:	681b      	ldr	r3, [r3, #0]
  4019da:	b343      	cbz	r3, 401a2e <hif_handle_isr+0x1f2>
  4019dc:	f89d 0011 	ldrb.w	r0, [sp, #17]
  4019e0:	f8bd 1012 	ldrh.w	r1, [sp, #18]
  4019e4:	3908      	subs	r1, #8
  4019e6:	9a05      	ldr	r2, [sp, #20]
  4019e8:	3208      	adds	r2, #8
  4019ea:	b289      	uxth	r1, r1
  4019ec:	4798      	blx	r3
  4019ee:	e01e      	b.n	401a2e <hif_handle_isr+0x1f2>
  4019f0:	f89d 3010 	ldrb.w	r3, [sp, #16]
  4019f4:	b2db      	uxtb	r3, r3
  4019f6:	2b07      	cmp	r3, #7
  4019f8:	d10c      	bne.n	401a14 <hif_handle_isr+0x1d8>
  4019fa:	4b46      	ldr	r3, [pc, #280]	; (401b14 <hif_handle_isr+0x2d8>)
  4019fc:	681b      	ldr	r3, [r3, #0]
  4019fe:	b1b3      	cbz	r3, 401a2e <hif_handle_isr+0x1f2>
  401a00:	f89d 0011 	ldrb.w	r0, [sp, #17]
  401a04:	f8bd 1012 	ldrh.w	r1, [sp, #18]
  401a08:	3908      	subs	r1, #8
  401a0a:	9a05      	ldr	r2, [sp, #20]
  401a0c:	3208      	adds	r2, #8
  401a0e:	b289      	uxth	r1, r1
  401a10:	4798      	blx	r3
  401a12:	e00c      	b.n	401a2e <hif_handle_isr+0x1f2>
  401a14:	f240 2202 	movw	r2, #514	; 0x202
  401a18:	4641      	mov	r1, r8
  401a1a:	4630      	mov	r0, r6
  401a1c:	4c33      	ldr	r4, [pc, #204]	; (401aec <hif_handle_isr+0x2b0>)
  401a1e:	47a0      	blx	r4
  401a20:	483d      	ldr	r0, [pc, #244]	; (401b18 <hif_handle_isr+0x2dc>)
  401a22:	47a0      	blx	r4
  401a24:	4833      	ldr	r0, [pc, #204]	; (401af4 <hif_handle_isr+0x2b8>)
  401a26:	47a0      	blx	r4
  401a28:	f06f 0405 	mvn.w	r4, #5
  401a2c:	e043      	b.n	401ab6 <hif_handle_isr+0x27a>
  401a2e:	4b2e      	ldr	r3, [pc, #184]	; (401ae8 <hif_handle_isr+0x2ac>)
  401a30:	781b      	ldrb	r3, [r3, #0]
  401a32:	f013 0fff 	tst.w	r3, #255	; 0xff
  401a36:	d13b      	bne.n	401ab0 <hif_handle_isr+0x274>
  401a38:	f240 2209 	movw	r2, #521	; 0x209
  401a3c:	4641      	mov	r1, r8
  401a3e:	4630      	mov	r0, r6
  401a40:	4c2a      	ldr	r4, [pc, #168]	; (401aec <hif_handle_isr+0x2b0>)
  401a42:	47a0      	blx	r4
  401a44:	4835      	ldr	r0, [pc, #212]	; (401b1c <hif_handle_isr+0x2e0>)
  401a46:	47a0      	blx	r4
  401a48:	482a      	ldr	r0, [pc, #168]	; (401af4 <hif_handle_isr+0x2b8>)
  401a4a:	47a0      	blx	r4
  401a4c:	4b34      	ldr	r3, [pc, #208]	; (401b20 <hif_handle_isr+0x2e4>)
  401a4e:	4798      	blx	r3
  401a50:	e02e      	b.n	401ab0 <hif_handle_isr+0x274>
  401a52:	f240 2211 	movw	r2, #529	; 0x211
  401a56:	4641      	mov	r1, r8
  401a58:	4630      	mov	r0, r6
  401a5a:	4c24      	ldr	r4, [pc, #144]	; (401aec <hif_handle_isr+0x2b0>)
  401a5c:	47a0      	blx	r4
  401a5e:	4831      	ldr	r0, [pc, #196]	; (401b24 <hif_handle_isr+0x2e8>)
  401a60:	47a0      	blx	r4
  401a62:	4824      	ldr	r0, [pc, #144]	; (401af4 <hif_handle_isr+0x2b8>)
  401a64:	47a0      	blx	r4
  401a66:	f06f 0401 	mvn.w	r4, #1
  401a6a:	e026      	b.n	401aba <hif_handle_isr+0x27e>
  401a6c:	f44f 7206 	mov.w	r2, #536	; 0x218
  401a70:	4641      	mov	r1, r8
  401a72:	4630      	mov	r0, r6
  401a74:	4c1d      	ldr	r4, [pc, #116]	; (401aec <hif_handle_isr+0x2b0>)
  401a76:	47a0      	blx	r4
  401a78:	9903      	ldr	r1, [sp, #12]
  401a7a:	482b      	ldr	r0, [pc, #172]	; (401b28 <hif_handle_isr+0x2ec>)
  401a7c:	47a0      	blx	r4
  401a7e:	481d      	ldr	r0, [pc, #116]	; (401af4 <hif_handle_isr+0x2b8>)
  401a80:	47a0      	blx	r4
  401a82:	e015      	b.n	401ab0 <hif_handle_isr+0x274>
  401a84:	f240 221e 	movw	r2, #542	; 0x21e
  401a88:	4641      	mov	r1, r8
  401a8a:	4630      	mov	r0, r6
  401a8c:	4d17      	ldr	r5, [pc, #92]	; (401aec <hif_handle_isr+0x2b0>)
  401a8e:	47a8      	blx	r5
  401a90:	4826      	ldr	r0, [pc, #152]	; (401b2c <hif_handle_isr+0x2f0>)
  401a92:	47a8      	blx	r5
  401a94:	4817      	ldr	r0, [pc, #92]	; (401af4 <hif_handle_isr+0x2b8>)
  401a96:	47a8      	blx	r5
  401a98:	e00f      	b.n	401aba <hif_handle_isr+0x27e>
  401a9a:	f44f 7209 	mov.w	r2, #548	; 0x224
  401a9e:	4641      	mov	r1, r8
  401aa0:	4630      	mov	r0, r6
  401aa2:	4d12      	ldr	r5, [pc, #72]	; (401aec <hif_handle_isr+0x2b0>)
  401aa4:	47a8      	blx	r5
  401aa6:	4822      	ldr	r0, [pc, #136]	; (401b30 <hif_handle_isr+0x2f4>)
  401aa8:	47a8      	blx	r5
  401aaa:	4812      	ldr	r0, [pc, #72]	; (401af4 <hif_handle_isr+0x2b8>)
  401aac:	47a8      	blx	r5
  401aae:	e004      	b.n	401aba <hif_handle_isr+0x27e>
  401ab0:	4b20      	ldr	r3, [pc, #128]	; (401b34 <hif_handle_isr+0x2f8>)
  401ab2:	4798      	blx	r3
  401ab4:	4604      	mov	r4, r0
  401ab6:	2c00      	cmp	r4, #0
  401ab8:	d046      	beq.n	401b48 <hif_handle_isr+0x30c>
  401aba:	f240 2243 	movw	r2, #579	; 0x243
  401abe:	491e      	ldr	r1, [pc, #120]	; (401b38 <hif_handle_isr+0x2fc>)
  401ac0:	4630      	mov	r0, r6
  401ac2:	4d0a      	ldr	r5, [pc, #40]	; (401aec <hif_handle_isr+0x2b0>)
  401ac4:	47a8      	blx	r5
  401ac6:	4621      	mov	r1, r4
  401ac8:	481c      	ldr	r0, [pc, #112]	; (401b3c <hif_handle_isr+0x300>)
  401aca:	47a8      	blx	r5
  401acc:	4809      	ldr	r0, [pc, #36]	; (401af4 <hif_handle_isr+0x2b8>)
  401ace:	47a8      	blx	r5
  401ad0:	e6c4      	b.n	40185c <hif_handle_isr+0x20>
  401ad2:	bf00      	nop
  401ad4:	00401581 	.word	0x00401581
  401ad8:	0040b8f8 	.word	0x0040b8f8
  401adc:	00402809 	.word	0x00402809
  401ae0:	00401299 	.word	0x00401299
  401ae4:	00402815 	.word	0x00402815
  401ae8:	20400938 	.word	0x20400938
  401aec:	00405135 	.word	0x00405135
  401af0:	0040b958 	.word	0x0040b958
  401af4:	0040ca54 	.word	0x0040ca54
  401af8:	00402821 	.word	0x00402821
  401afc:	0040b980 	.word	0x0040b980
  401b00:	0040b998 	.word	0x0040b998
  401b04:	20400920 	.word	0x20400920
  401b08:	20400934 	.word	0x20400934
  401b0c:	2040093c 	.word	0x2040093c
  401b10:	2040091c 	.word	0x2040091c
  401b14:	2040092c 	.word	0x2040092c
  401b18:	0040b9d8 	.word	0x0040b9d8
  401b1c:	0040b9f0 	.word	0x0040b9f0
  401b20:	00401541 	.word	0x00401541
  401b24:	0040ba14 	.word	0x0040ba14
  401b28:	0040ba28 	.word	0x0040ba28
  401b2c:	0040ba44 	.word	0x0040ba44
  401b30:	0040ba68 	.word	0x0040ba68
  401b34:	004015d9 	.word	0x004015d9
  401b38:	0040bb88 	.word	0x0040bb88
  401b3c:	0040ba88 	.word	0x0040ba88
  401b40:	20400924 	.word	0x20400924
  401b44:	0040b924 	.word	0x0040b924
  401b48:	f899 3000 	ldrb.w	r3, [r9]
  401b4c:	f013 0fff 	tst.w	r3, #255	; 0xff
  401b50:	f47f ae7e 	bne.w	401850 <hif_handle_isr+0x14>
  401b54:	2000      	movs	r0, #0
  401b56:	b007      	add	sp, #28
  401b58:	e8bd 83f0 	ldmia.w	sp!, {r4, r5, r6, r7, r8, r9, pc}

00401b5c <hif_receive>:
  401b5c:	e92d 43f0 	stmdb	sp!, {r4, r5, r6, r7, r8, r9, lr}
  401b60:	b083      	sub	sp, #12
  401b62:	461c      	mov	r4, r3
  401b64:	2a00      	cmp	r2, #0
  401b66:	bf18      	it	ne
  401b68:	2900      	cmpne	r1, #0
  401b6a:	d003      	beq.n	401b74 <hif_receive+0x18>
  401b6c:	4605      	mov	r5, r0
  401b6e:	460f      	mov	r7, r1
  401b70:	4616      	mov	r6, r2
  401b72:	b9a0      	cbnz	r0, 401b9e <hif_receive+0x42>
  401b74:	b134      	cbz	r4, 401b84 <hif_receive+0x28>
  401b76:	2201      	movs	r2, #1
  401b78:	4b31      	ldr	r3, [pc, #196]	; (401c40 <hif_receive+0xe4>)
  401b7a:	701a      	strb	r2, [r3, #0]
  401b7c:	4b31      	ldr	r3, [pc, #196]	; (401c44 <hif_receive+0xe8>)
  401b7e:	4798      	blx	r3
  401b80:	4603      	mov	r3, r0
  401b82:	e058      	b.n	401c36 <hif_receive+0xda>
  401b84:	f240 2269 	movw	r2, #617	; 0x269
  401b88:	492f      	ldr	r1, [pc, #188]	; (401c48 <hif_receive+0xec>)
  401b8a:	4830      	ldr	r0, [pc, #192]	; (401c4c <hif_receive+0xf0>)
  401b8c:	4c30      	ldr	r4, [pc, #192]	; (401c50 <hif_receive+0xf4>)
  401b8e:	47a0      	blx	r4
  401b90:	4830      	ldr	r0, [pc, #192]	; (401c54 <hif_receive+0xf8>)
  401b92:	47a0      	blx	r4
  401b94:	4830      	ldr	r0, [pc, #192]	; (401c58 <hif_receive+0xfc>)
  401b96:	47a0      	blx	r4
  401b98:	f06f 030b 	mvn.w	r3, #11
  401b9c:	e04b      	b.n	401c36 <hif_receive+0xda>
  401b9e:	4669      	mov	r1, sp
  401ba0:	f241 0070 	movw	r0, #4208	; 0x1070
  401ba4:	4b2d      	ldr	r3, [pc, #180]	; (401c5c <hif_receive+0x100>)
  401ba6:	4798      	blx	r3
  401ba8:	4603      	mov	r3, r0
  401baa:	2800      	cmp	r0, #0
  401bac:	d143      	bne.n	401c36 <hif_receive+0xda>
  401bae:	f8dd 8000 	ldr.w	r8, [sp]
  401bb2:	a901      	add	r1, sp, #4
  401bb4:	f241 0084 	movw	r0, #4228	; 0x1084
  401bb8:	4b28      	ldr	r3, [pc, #160]	; (401c5c <hif_receive+0x100>)
  401bba:	4798      	blx	r3
  401bbc:	4603      	mov	r3, r0
  401bbe:	2800      	cmp	r0, #0
  401bc0:	d139      	bne.n	401c36 <hif_receive+0xda>
  401bc2:	f3c8 088b 	ubfx	r8, r8, #2, #12
  401bc6:	4546      	cmp	r6, r8
  401bc8:	d90e      	bls.n	401be8 <hif_receive+0x8c>
  401bca:	f240 227a 	movw	r2, #634	; 0x27a
  401bce:	491e      	ldr	r1, [pc, #120]	; (401c48 <hif_receive+0xec>)
  401bd0:	481e      	ldr	r0, [pc, #120]	; (401c4c <hif_receive+0xf0>)
  401bd2:	4c1f      	ldr	r4, [pc, #124]	; (401c50 <hif_receive+0xf4>)
  401bd4:	47a0      	blx	r4
  401bd6:	4642      	mov	r2, r8
  401bd8:	4631      	mov	r1, r6
  401bda:	4821      	ldr	r0, [pc, #132]	; (401c60 <hif_receive+0x104>)
  401bdc:	47a0      	blx	r4
  401bde:	481e      	ldr	r0, [pc, #120]	; (401c58 <hif_receive+0xfc>)
  401be0:	47a0      	blx	r4
  401be2:	f06f 030b 	mvn.w	r3, #11
  401be6:	e026      	b.n	401c36 <hif_receive+0xda>
  401be8:	9b01      	ldr	r3, [sp, #4]
  401bea:	429d      	cmp	r5, r3
  401bec:	d304      	bcc.n	401bf8 <hif_receive+0x9c>
  401bee:	eb05 0906 	add.w	r9, r5, r6
  401bf2:	4443      	add	r3, r8
  401bf4:	4599      	cmp	r9, r3
  401bf6:	d90c      	bls.n	401c12 <hif_receive+0xb6>
  401bf8:	f44f 7220 	mov.w	r2, #640	; 0x280
  401bfc:	4912      	ldr	r1, [pc, #72]	; (401c48 <hif_receive+0xec>)
  401bfe:	4813      	ldr	r0, [pc, #76]	; (401c4c <hif_receive+0xf0>)
  401c00:	4c13      	ldr	r4, [pc, #76]	; (401c50 <hif_receive+0xf4>)
  401c02:	47a0      	blx	r4
  401c04:	4817      	ldr	r0, [pc, #92]	; (401c64 <hif_receive+0x108>)
  401c06:	47a0      	blx	r4
  401c08:	4813      	ldr	r0, [pc, #76]	; (401c58 <hif_receive+0xfc>)
  401c0a:	47a0      	blx	r4
  401c0c:	f06f 030b 	mvn.w	r3, #11
  401c10:	e011      	b.n	401c36 <hif_receive+0xda>
  401c12:	4632      	mov	r2, r6
  401c14:	4639      	mov	r1, r7
  401c16:	4628      	mov	r0, r5
  401c18:	4b13      	ldr	r3, [pc, #76]	; (401c68 <hif_receive+0x10c>)
  401c1a:	4798      	blx	r3
  401c1c:	4603      	mov	r3, r0
  401c1e:	b950      	cbnz	r0, 401c36 <hif_receive+0xda>
  401c20:	9a01      	ldr	r2, [sp, #4]
  401c22:	4442      	add	r2, r8
  401c24:	454a      	cmp	r2, r9
  401c26:	d000      	beq.n	401c2a <hif_receive+0xce>
  401c28:	b12c      	cbz	r4, 401c36 <hif_receive+0xda>
  401c2a:	2201      	movs	r2, #1
  401c2c:	4b04      	ldr	r3, [pc, #16]	; (401c40 <hif_receive+0xe4>)
  401c2e:	701a      	strb	r2, [r3, #0]
  401c30:	4b04      	ldr	r3, [pc, #16]	; (401c44 <hif_receive+0xe8>)
  401c32:	4798      	blx	r3
  401c34:	4603      	mov	r3, r0
  401c36:	4618      	mov	r0, r3
  401c38:	b003      	add	sp, #12
  401c3a:	e8bd 83f0 	ldmia.w	sp!, {r4, r5, r6, r7, r8, r9, pc}
  401c3e:	bf00      	nop
  401c40:	20400938 	.word	0x20400938
  401c44:	00401541 	.word	0x00401541
  401c48:	0040b92c 	.word	0x0040b92c
  401c4c:	0040b8f8 	.word	0x0040b8f8
  401c50:	00405135 	.word	0x00405135
  401c54:	0040bab8 	.word	0x0040bab8
  401c58:	0040ca54 	.word	0x0040ca54
  401c5c:	00402809 	.word	0x00402809
  401c60:	0040bad8 	.word	0x0040bad8
  401c64:	0040bb1c 	.word	0x0040bb1c
  401c68:	00402821 	.word	0x00402821

00401c6c <hif_register_cb>:
  401c6c:	b538      	push	{r3, r4, r5, lr}
  401c6e:	1e43      	subs	r3, r0, #1
  401c70:	2b06      	cmp	r3, #6
  401c72:	d81d      	bhi.n	401cb0 <hif_register_cb+0x44>
  401c74:	e8df f003 	tbb	[pc, r3]
  401c78:	0c100408 	.word	0x0c100408
  401c7c:	141c      	.short	0x141c
  401c7e:	18          	.byte	0x18
  401c7f:	00          	.byte	0x00
  401c80:	4b13      	ldr	r3, [pc, #76]	; (401cd0 <hif_register_cb+0x64>)
  401c82:	6019      	str	r1, [r3, #0]
  401c84:	2000      	movs	r0, #0
  401c86:	bd38      	pop	{r3, r4, r5, pc}
  401c88:	4b12      	ldr	r3, [pc, #72]	; (401cd4 <hif_register_cb+0x68>)
  401c8a:	6019      	str	r1, [r3, #0]
  401c8c:	2000      	movs	r0, #0
  401c8e:	bd38      	pop	{r3, r4, r5, pc}
  401c90:	4b11      	ldr	r3, [pc, #68]	; (401cd8 <hif_register_cb+0x6c>)
  401c92:	6019      	str	r1, [r3, #0]
  401c94:	2000      	movs	r0, #0
  401c96:	bd38      	pop	{r3, r4, r5, pc}
  401c98:	4b10      	ldr	r3, [pc, #64]	; (401cdc <hif_register_cb+0x70>)
  401c9a:	6019      	str	r1, [r3, #0]
  401c9c:	2000      	movs	r0, #0
  401c9e:	bd38      	pop	{r3, r4, r5, pc}
  401ca0:	4b0f      	ldr	r3, [pc, #60]	; (401ce0 <hif_register_cb+0x74>)
  401ca2:	6019      	str	r1, [r3, #0]
  401ca4:	2000      	movs	r0, #0
  401ca6:	bd38      	pop	{r3, r4, r5, pc}
  401ca8:	4b0e      	ldr	r3, [pc, #56]	; (401ce4 <hif_register_cb+0x78>)
  401caa:	6019      	str	r1, [r3, #0]
  401cac:	2000      	movs	r0, #0
  401cae:	bd38      	pop	{r3, r4, r5, pc}
  401cb0:	4604      	mov	r4, r0
  401cb2:	f240 22b9 	movw	r2, #697	; 0x2b9
  401cb6:	490c      	ldr	r1, [pc, #48]	; (401ce8 <hif_register_cb+0x7c>)
  401cb8:	480c      	ldr	r0, [pc, #48]	; (401cec <hif_register_cb+0x80>)
  401cba:	4d0d      	ldr	r5, [pc, #52]	; (401cf0 <hif_register_cb+0x84>)
  401cbc:	47a8      	blx	r5
  401cbe:	4621      	mov	r1, r4
  401cc0:	480c      	ldr	r0, [pc, #48]	; (401cf4 <hif_register_cb+0x88>)
  401cc2:	47a8      	blx	r5
  401cc4:	480c      	ldr	r0, [pc, #48]	; (401cf8 <hif_register_cb+0x8c>)
  401cc6:	47a8      	blx	r5
  401cc8:	f06f 000b 	mvn.w	r0, #11
  401ccc:	bd38      	pop	{r3, r4, r5, pc}
  401cce:	bf00      	nop
  401cd0:	20400934 	.word	0x20400934
  401cd4:	20400920 	.word	0x20400920
  401cd8:	2040093c 	.word	0x2040093c
  401cdc:	20400928 	.word	0x20400928
  401ce0:	2040091c 	.word	0x2040091c
  401ce4:	2040092c 	.word	0x2040092c
  401ce8:	0040bb6c 	.word	0x0040bb6c
  401cec:	0040b8f8 	.word	0x0040b8f8
  401cf0:	00405135 	.word	0x00405135
  401cf4:	0040bb60 	.word	0x0040bb60
  401cf8:	0040ca54 	.word	0x0040ca54

00401cfc <hif_init>:
  401cfc:	b510      	push	{r4, lr}
  401cfe:	2400      	movs	r4, #0
  401d00:	4b09      	ldr	r3, [pc, #36]	; (401d28 <hif_init+0x2c>)
  401d02:	601c      	str	r4, [r3, #0]
  401d04:	4b09      	ldr	r3, [pc, #36]	; (401d2c <hif_init+0x30>)
  401d06:	601c      	str	r4, [r3, #0]
  401d08:	4b09      	ldr	r3, [pc, #36]	; (401d30 <hif_init+0x34>)
  401d0a:	701c      	strb	r4, [r3, #0]
  401d0c:	4b09      	ldr	r3, [pc, #36]	; (401d34 <hif_init+0x38>)
  401d0e:	701c      	strb	r4, [r3, #0]
  401d10:	4b09      	ldr	r3, [pc, #36]	; (401d38 <hif_init+0x3c>)
  401d12:	701c      	strb	r4, [r3, #0]
  401d14:	4809      	ldr	r0, [pc, #36]	; (401d3c <hif_init+0x40>)
  401d16:	4b0a      	ldr	r3, [pc, #40]	; (401d40 <hif_init+0x44>)
  401d18:	4798      	blx	r3
  401d1a:	490a      	ldr	r1, [pc, #40]	; (401d44 <hif_init+0x48>)
  401d1c:	2003      	movs	r0, #3
  401d1e:	4b0a      	ldr	r3, [pc, #40]	; (401d48 <hif_init+0x4c>)
  401d20:	4798      	blx	r3
  401d22:	4620      	mov	r0, r4
  401d24:	bd10      	pop	{r4, pc}
  401d26:	bf00      	nop
  401d28:	20400920 	.word	0x20400920
  401d2c:	20400934 	.word	0x20400934
  401d30:	20400940 	.word	0x20400940
  401d34:	20400930 	.word	0x20400930
  401d38:	20400924 	.word	0x20400924
  401d3c:	0040152d 	.word	0x0040152d
  401d40:	00401219 	.word	0x00401219
  401d44:	0040153d 	.word	0x0040153d
  401d48:	00401c6d 	.word	0x00401c6d

00401d4c <m2m_wifi_cb>:
  401d4c:	b530      	push	{r4, r5, lr}
  401d4e:	b09f      	sub	sp, #124	; 0x7c
  401d50:	4615      	mov	r5, r2
  401d52:	282c      	cmp	r0, #44	; 0x2c
  401d54:	d111      	bne.n	401d7a <m2m_wifi_cb+0x2e>
  401d56:	2300      	movs	r3, #0
  401d58:	2204      	movs	r2, #4
  401d5a:	a903      	add	r1, sp, #12
  401d5c:	4628      	mov	r0, r5
  401d5e:	4c90      	ldr	r4, [pc, #576]	; (401fa0 <m2m_wifi_cb+0x254>)
  401d60:	47a0      	blx	r4
  401d62:	2800      	cmp	r0, #0
  401d64:	f040 8119 	bne.w	401f9a <m2m_wifi_cb+0x24e>
  401d68:	4b8e      	ldr	r3, [pc, #568]	; (401fa4 <m2m_wifi_cb+0x258>)
  401d6a:	681b      	ldr	r3, [r3, #0]
  401d6c:	2b00      	cmp	r3, #0
  401d6e:	f000 8114 	beq.w	401f9a <m2m_wifi_cb+0x24e>
  401d72:	a903      	add	r1, sp, #12
  401d74:	202c      	movs	r0, #44	; 0x2c
  401d76:	4798      	blx	r3
  401d78:	e10f      	b.n	401f9a <m2m_wifi_cb+0x24e>
  401d7a:	4604      	mov	r4, r0
  401d7c:	281b      	cmp	r0, #27
  401d7e:	d111      	bne.n	401da4 <m2m_wifi_cb+0x58>
  401d80:	2300      	movs	r3, #0
  401d82:	2208      	movs	r2, #8
  401d84:	a903      	add	r1, sp, #12
  401d86:	4628      	mov	r0, r5
  401d88:	4c85      	ldr	r4, [pc, #532]	; (401fa0 <m2m_wifi_cb+0x254>)
  401d8a:	47a0      	blx	r4
  401d8c:	2800      	cmp	r0, #0
  401d8e:	f040 8104 	bne.w	401f9a <m2m_wifi_cb+0x24e>
  401d92:	4b84      	ldr	r3, [pc, #528]	; (401fa4 <m2m_wifi_cb+0x258>)
  401d94:	681b      	ldr	r3, [r3, #0]
  401d96:	2b00      	cmp	r3, #0
  401d98:	f000 80ff 	beq.w	401f9a <m2m_wifi_cb+0x24e>
  401d9c:	a903      	add	r1, sp, #12
  401d9e:	201b      	movs	r0, #27
  401da0:	4798      	blx	r3
  401da2:	e0fa      	b.n	401f9a <m2m_wifi_cb+0x24e>
  401da4:	2806      	cmp	r0, #6
  401da6:	d111      	bne.n	401dcc <m2m_wifi_cb+0x80>
  401da8:	2301      	movs	r3, #1
  401daa:	2230      	movs	r2, #48	; 0x30
  401dac:	a903      	add	r1, sp, #12
  401dae:	4628      	mov	r0, r5
  401db0:	4c7b      	ldr	r4, [pc, #492]	; (401fa0 <m2m_wifi_cb+0x254>)
  401db2:	47a0      	blx	r4
  401db4:	2800      	cmp	r0, #0
  401db6:	f040 80f0 	bne.w	401f9a <m2m_wifi_cb+0x24e>
  401dba:	4b7a      	ldr	r3, [pc, #488]	; (401fa4 <m2m_wifi_cb+0x258>)
  401dbc:	681b      	ldr	r3, [r3, #0]
  401dbe:	2b00      	cmp	r3, #0
  401dc0:	f000 80eb 	beq.w	401f9a <m2m_wifi_cb+0x24e>
  401dc4:	a903      	add	r1, sp, #12
  401dc6:	2006      	movs	r0, #6
  401dc8:	4798      	blx	r3
  401dca:	e0e6      	b.n	401f9a <m2m_wifi_cb+0x24e>
  401dcc:	280e      	cmp	r0, #14
  401dce:	f000 80e4 	beq.w	401f9a <m2m_wifi_cb+0x24e>
  401dd2:	2832      	cmp	r0, #50	; 0x32
  401dd4:	d111      	bne.n	401dfa <m2m_wifi_cb+0xae>
  401dd6:	2300      	movs	r3, #0
  401dd8:	2210      	movs	r2, #16
  401dda:	a903      	add	r1, sp, #12
  401ddc:	4628      	mov	r0, r5
  401dde:	4c70      	ldr	r4, [pc, #448]	; (401fa0 <m2m_wifi_cb+0x254>)
  401de0:	47a0      	blx	r4
  401de2:	2800      	cmp	r0, #0
  401de4:	f040 80d9 	bne.w	401f9a <m2m_wifi_cb+0x24e>
  401de8:	4b6e      	ldr	r3, [pc, #440]	; (401fa4 <m2m_wifi_cb+0x258>)
  401dea:	681b      	ldr	r3, [r3, #0]
  401dec:	2b00      	cmp	r3, #0
  401dee:	f000 80d4 	beq.w	401f9a <m2m_wifi_cb+0x24e>
  401df2:	a903      	add	r1, sp, #12
  401df4:	2032      	movs	r0, #50	; 0x32
  401df6:	4798      	blx	r3
  401df8:	e0cf      	b.n	401f9a <m2m_wifi_cb+0x24e>
  401dfa:	282f      	cmp	r0, #47	; 0x2f
  401dfc:	d116      	bne.n	401e2c <m2m_wifi_cb+0xe0>
  401dfe:	2264      	movs	r2, #100	; 0x64
  401e00:	2100      	movs	r1, #0
  401e02:	a803      	add	r0, sp, #12
  401e04:	4b68      	ldr	r3, [pc, #416]	; (401fa8 <m2m_wifi_cb+0x25c>)
  401e06:	4798      	blx	r3
  401e08:	2300      	movs	r3, #0
  401e0a:	2264      	movs	r2, #100	; 0x64
  401e0c:	a903      	add	r1, sp, #12
  401e0e:	4628      	mov	r0, r5
  401e10:	4c63      	ldr	r4, [pc, #396]	; (401fa0 <m2m_wifi_cb+0x254>)
  401e12:	47a0      	blx	r4
  401e14:	2800      	cmp	r0, #0
  401e16:	f040 80c0 	bne.w	401f9a <m2m_wifi_cb+0x24e>
  401e1a:	4b62      	ldr	r3, [pc, #392]	; (401fa4 <m2m_wifi_cb+0x258>)
  401e1c:	681b      	ldr	r3, [r3, #0]
  401e1e:	2b00      	cmp	r3, #0
  401e20:	f000 80bb 	beq.w	401f9a <m2m_wifi_cb+0x24e>
  401e24:	a903      	add	r1, sp, #12
  401e26:	202f      	movs	r0, #47	; 0x2f
  401e28:	4798      	blx	r3
  401e2a:	e0b6      	b.n	401f9a <m2m_wifi_cb+0x24e>
  401e2c:	2834      	cmp	r0, #52	; 0x34
  401e2e:	d120      	bne.n	401e72 <m2m_wifi_cb+0x126>
  401e30:	2300      	movs	r3, #0
  401e32:	2204      	movs	r2, #4
  401e34:	a903      	add	r1, sp, #12
  401e36:	4628      	mov	r0, r5
  401e38:	4c59      	ldr	r4, [pc, #356]	; (401fa0 <m2m_wifi_cb+0x254>)
  401e3a:	47a0      	blx	r4
  401e3c:	2800      	cmp	r0, #0
  401e3e:	f040 80ac 	bne.w	401f9a <m2m_wifi_cb+0x24e>
  401e42:	485a      	ldr	r0, [pc, #360]	; (401fac <m2m_wifi_cb+0x260>)
  401e44:	4c5a      	ldr	r4, [pc, #360]	; (401fb0 <m2m_wifi_cb+0x264>)
  401e46:	47a0      	blx	r4
  401e48:	9903      	ldr	r1, [sp, #12]
  401e4a:	0e0b      	lsrs	r3, r1, #24
  401e4c:	9300      	str	r3, [sp, #0]
  401e4e:	f3c1 4307 	ubfx	r3, r1, #16, #8
  401e52:	f3c1 2207 	ubfx	r2, r1, #8, #8
  401e56:	b2c9      	uxtb	r1, r1
  401e58:	4856      	ldr	r0, [pc, #344]	; (401fb4 <m2m_wifi_cb+0x268>)
  401e5a:	47a0      	blx	r4
  401e5c:	4856      	ldr	r0, [pc, #344]	; (401fb8 <m2m_wifi_cb+0x26c>)
  401e5e:	47a0      	blx	r4
  401e60:	4b50      	ldr	r3, [pc, #320]	; (401fa4 <m2m_wifi_cb+0x258>)
  401e62:	681b      	ldr	r3, [r3, #0]
  401e64:	2b00      	cmp	r3, #0
  401e66:	f000 8098 	beq.w	401f9a <m2m_wifi_cb+0x24e>
  401e6a:	2100      	movs	r1, #0
  401e6c:	2034      	movs	r0, #52	; 0x34
  401e6e:	4798      	blx	r3
  401e70:	e093      	b.n	401f9a <m2m_wifi_cb+0x24e>
  401e72:	2811      	cmp	r0, #17
  401e74:	d116      	bne.n	401ea4 <m2m_wifi_cb+0x158>
  401e76:	2300      	movs	r3, #0
  401e78:	4a50      	ldr	r2, [pc, #320]	; (401fbc <m2m_wifi_cb+0x270>)
  401e7a:	7013      	strb	r3, [r2, #0]
  401e7c:	2204      	movs	r2, #4
  401e7e:	a903      	add	r1, sp, #12
  401e80:	4628      	mov	r0, r5
  401e82:	4c47      	ldr	r4, [pc, #284]	; (401fa0 <m2m_wifi_cb+0x254>)
  401e84:	47a0      	blx	r4
  401e86:	2800      	cmp	r0, #0
  401e88:	f040 8087 	bne.w	401f9a <m2m_wifi_cb+0x24e>
  401e8c:	f89d 200c 	ldrb.w	r2, [sp, #12]
  401e90:	4b4b      	ldr	r3, [pc, #300]	; (401fc0 <m2m_wifi_cb+0x274>)
  401e92:	701a      	strb	r2, [r3, #0]
  401e94:	4b43      	ldr	r3, [pc, #268]	; (401fa4 <m2m_wifi_cb+0x258>)
  401e96:	681b      	ldr	r3, [r3, #0]
  401e98:	2b00      	cmp	r3, #0
  401e9a:	d07e      	beq.n	401f9a <m2m_wifi_cb+0x24e>
  401e9c:	a903      	add	r1, sp, #12
  401e9e:	2011      	movs	r0, #17
  401ea0:	4798      	blx	r3
  401ea2:	e07a      	b.n	401f9a <m2m_wifi_cb+0x24e>
  401ea4:	2813      	cmp	r0, #19
  401ea6:	d10f      	bne.n	401ec8 <m2m_wifi_cb+0x17c>
  401ea8:	2300      	movs	r3, #0
  401eaa:	222c      	movs	r2, #44	; 0x2c
  401eac:	a903      	add	r1, sp, #12
  401eae:	4628      	mov	r0, r5
  401eb0:	4c3b      	ldr	r4, [pc, #236]	; (401fa0 <m2m_wifi_cb+0x254>)
  401eb2:	47a0      	blx	r4
  401eb4:	2800      	cmp	r0, #0
  401eb6:	d170      	bne.n	401f9a <m2m_wifi_cb+0x24e>
  401eb8:	4b3a      	ldr	r3, [pc, #232]	; (401fa4 <m2m_wifi_cb+0x258>)
  401eba:	681b      	ldr	r3, [r3, #0]
  401ebc:	2b00      	cmp	r3, #0
  401ebe:	d06c      	beq.n	401f9a <m2m_wifi_cb+0x24e>
  401ec0:	a903      	add	r1, sp, #12
  401ec2:	2013      	movs	r0, #19
  401ec4:	4798      	blx	r3
  401ec6:	e068      	b.n	401f9a <m2m_wifi_cb+0x24e>
  401ec8:	2804      	cmp	r0, #4
  401eca:	d10f      	bne.n	401eec <m2m_wifi_cb+0x1a0>
  401ecc:	2300      	movs	r3, #0
  401ece:	2204      	movs	r2, #4
  401ed0:	a91c      	add	r1, sp, #112	; 0x70
  401ed2:	4628      	mov	r0, r5
  401ed4:	4c32      	ldr	r4, [pc, #200]	; (401fa0 <m2m_wifi_cb+0x254>)
  401ed6:	47a0      	blx	r4
  401ed8:	2800      	cmp	r0, #0
  401eda:	d15e      	bne.n	401f9a <m2m_wifi_cb+0x24e>
  401edc:	4b31      	ldr	r3, [pc, #196]	; (401fa4 <m2m_wifi_cb+0x258>)
  401ede:	681b      	ldr	r3, [r3, #0]
  401ee0:	2b00      	cmp	r3, #0
  401ee2:	d05a      	beq.n	401f9a <m2m_wifi_cb+0x24e>
  401ee4:	a91c      	add	r1, sp, #112	; 0x70
  401ee6:	2004      	movs	r0, #4
  401ee8:	4798      	blx	r3
  401eea:	e056      	b.n	401f9a <m2m_wifi_cb+0x24e>
  401eec:	2865      	cmp	r0, #101	; 0x65
  401eee:	d10f      	bne.n	401f10 <m2m_wifi_cb+0x1c4>
  401ef0:	2300      	movs	r3, #0
  401ef2:	2204      	movs	r2, #4
  401ef4:	a91c      	add	r1, sp, #112	; 0x70
  401ef6:	4628      	mov	r0, r5
  401ef8:	4c29      	ldr	r4, [pc, #164]	; (401fa0 <m2m_wifi_cb+0x254>)
  401efa:	47a0      	blx	r4
  401efc:	2800      	cmp	r0, #0
  401efe:	d14c      	bne.n	401f9a <m2m_wifi_cb+0x24e>
  401f00:	4b28      	ldr	r3, [pc, #160]	; (401fa4 <m2m_wifi_cb+0x258>)
  401f02:	681b      	ldr	r3, [r3, #0]
  401f04:	2b00      	cmp	r3, #0
  401f06:	d048      	beq.n	401f9a <m2m_wifi_cb+0x24e>
  401f08:	a91c      	add	r1, sp, #112	; 0x70
  401f0a:	2065      	movs	r0, #101	; 0x65
  401f0c:	4798      	blx	r3
  401f0e:	e044      	b.n	401f9a <m2m_wifi_cb+0x24e>
  401f10:	2809      	cmp	r0, #9
  401f12:	d10f      	bne.n	401f34 <m2m_wifi_cb+0x1e8>
  401f14:	2301      	movs	r3, #1
  401f16:	2264      	movs	r2, #100	; 0x64
  401f18:	a903      	add	r1, sp, #12
  401f1a:	4628      	mov	r0, r5
  401f1c:	4c20      	ldr	r4, [pc, #128]	; (401fa0 <m2m_wifi_cb+0x254>)
  401f1e:	47a0      	blx	r4
  401f20:	2800      	cmp	r0, #0
  401f22:	d13a      	bne.n	401f9a <m2m_wifi_cb+0x24e>
  401f24:	4b1f      	ldr	r3, [pc, #124]	; (401fa4 <m2m_wifi_cb+0x258>)
  401f26:	681b      	ldr	r3, [r3, #0]
  401f28:	2b00      	cmp	r3, #0
  401f2a:	d036      	beq.n	401f9a <m2m_wifi_cb+0x24e>
  401f2c:	a903      	add	r1, sp, #12
  401f2e:	2009      	movs	r0, #9
  401f30:	4798      	blx	r3
  401f32:	e032      	b.n	401f9a <m2m_wifi_cb+0x24e>
  401f34:	282a      	cmp	r0, #42	; 0x2a
  401f36:	d10d      	bne.n	401f54 <m2m_wifi_cb+0x208>
  401f38:	2301      	movs	r3, #1
  401f3a:	2204      	movs	r2, #4
  401f3c:	a903      	add	r1, sp, #12
  401f3e:	4628      	mov	r0, r5
  401f40:	4c17      	ldr	r4, [pc, #92]	; (401fa0 <m2m_wifi_cb+0x254>)
  401f42:	47a0      	blx	r4
  401f44:	bb48      	cbnz	r0, 401f9a <m2m_wifi_cb+0x24e>
  401f46:	4b17      	ldr	r3, [pc, #92]	; (401fa4 <m2m_wifi_cb+0x258>)
  401f48:	681b      	ldr	r3, [r3, #0]
  401f4a:	b333      	cbz	r3, 401f9a <m2m_wifi_cb+0x24e>
  401f4c:	a903      	add	r1, sp, #12
  401f4e:	202a      	movs	r0, #42	; 0x2a
  401f50:	4798      	blx	r3
  401f52:	e022      	b.n	401f9a <m2m_wifi_cb+0x24e>
  401f54:	2820      	cmp	r0, #32
  401f56:	d115      	bne.n	401f84 <m2m_wifi_cb+0x238>
  401f58:	2300      	movs	r3, #0
  401f5a:	2208      	movs	r2, #8
  401f5c:	a903      	add	r1, sp, #12
  401f5e:	4628      	mov	r0, r5
  401f60:	4c0f      	ldr	r4, [pc, #60]	; (401fa0 <m2m_wifi_cb+0x254>)
  401f62:	47a0      	blx	r4
  401f64:	b9c8      	cbnz	r0, 401f9a <m2m_wifi_cb+0x24e>
  401f66:	2301      	movs	r3, #1
  401f68:	f8bd 2010 	ldrh.w	r2, [sp, #16]
  401f6c:	9903      	ldr	r1, [sp, #12]
  401f6e:	f105 0008 	add.w	r0, r5, #8
  401f72:	47a0      	blx	r4
  401f74:	b988      	cbnz	r0, 401f9a <m2m_wifi_cb+0x24e>
  401f76:	4b0b      	ldr	r3, [pc, #44]	; (401fa4 <m2m_wifi_cb+0x258>)
  401f78:	681b      	ldr	r3, [r3, #0]
  401f7a:	b173      	cbz	r3, 401f9a <m2m_wifi_cb+0x24e>
  401f7c:	a903      	add	r1, sp, #12
  401f7e:	2020      	movs	r0, #32
  401f80:	4798      	blx	r3
  401f82:	e00a      	b.n	401f9a <m2m_wifi_cb+0x24e>
  401f84:	f44f 7295 	mov.w	r2, #298	; 0x12a
  401f88:	490e      	ldr	r1, [pc, #56]	; (401fc4 <m2m_wifi_cb+0x278>)
  401f8a:	480f      	ldr	r0, [pc, #60]	; (401fc8 <m2m_wifi_cb+0x27c>)
  401f8c:	4d08      	ldr	r5, [pc, #32]	; (401fb0 <m2m_wifi_cb+0x264>)
  401f8e:	47a8      	blx	r5
  401f90:	4621      	mov	r1, r4
  401f92:	480e      	ldr	r0, [pc, #56]	; (401fcc <m2m_wifi_cb+0x280>)
  401f94:	47a8      	blx	r5
  401f96:	4808      	ldr	r0, [pc, #32]	; (401fb8 <m2m_wifi_cb+0x26c>)
  401f98:	47a8      	blx	r5
  401f9a:	b01f      	add	sp, #124	; 0x7c
  401f9c:	bd30      	pop	{r4, r5, pc}
  401f9e:	bf00      	nop
  401fa0:	00401b5d 	.word	0x00401b5d
  401fa4:	20400944 	.word	0x20400944
  401fa8:	00401501 	.word	0x00401501
  401fac:	0040bbb8 	.word	0x0040bbb8
  401fb0:	00405135 	.word	0x00405135
  401fb4:	0040bbc4 	.word	0x0040bbc4
  401fb8:	0040ca54 	.word	0x0040ca54
  401fbc:	20400948 	.word	0x20400948
  401fc0:	20400949 	.word	0x20400949
  401fc4:	0040bbac 	.word	0x0040bbac
  401fc8:	0040b8f8 	.word	0x0040b8f8
  401fcc:	0040bbe4 	.word	0x0040bbe4

00401fd0 <m2m_wifi_init>:
  401fd0:	b5f0      	push	{r4, r5, r6, r7, lr}
  401fd2:	b08b      	sub	sp, #44	; 0x2c
  401fd4:	2301      	movs	r3, #1
  401fd6:	f88d 3007 	strb.w	r3, [sp, #7]
  401fda:	2800      	cmp	r0, #0
  401fdc:	d04e      	beq.n	40207c <m2m_wifi_init+0xac>
  401fde:	6802      	ldr	r2, [r0, #0]
  401fe0:	4b29      	ldr	r3, [pc, #164]	; (402088 <m2m_wifi_init+0xb8>)
  401fe2:	601a      	str	r2, [r3, #0]
  401fe4:	2200      	movs	r2, #0
  401fe6:	4b29      	ldr	r3, [pc, #164]	; (40208c <m2m_wifi_init+0xbc>)
  401fe8:	701a      	strb	r2, [r3, #0]
  401fea:	f10d 0007 	add.w	r0, sp, #7
  401fee:	4b28      	ldr	r3, [pc, #160]	; (402090 <m2m_wifi_init+0xc0>)
  401ff0:	4798      	blx	r3
  401ff2:	4604      	mov	r4, r0
  401ff4:	2800      	cmp	r0, #0
  401ff6:	d143      	bne.n	402080 <m2m_wifi_init+0xb0>
  401ff8:	4b26      	ldr	r3, [pc, #152]	; (402094 <m2m_wifi_init+0xc4>)
  401ffa:	4798      	blx	r3
  401ffc:	4604      	mov	r4, r0
  401ffe:	2800      	cmp	r0, #0
  402000:	d138      	bne.n	402074 <m2m_wifi_init+0xa4>
  402002:	4925      	ldr	r1, [pc, #148]	; (402098 <m2m_wifi_init+0xc8>)
  402004:	2001      	movs	r0, #1
  402006:	4b25      	ldr	r3, [pc, #148]	; (40209c <m2m_wifi_init+0xcc>)
  402008:	4798      	blx	r3
  40200a:	a802      	add	r0, sp, #8
  40200c:	4b24      	ldr	r3, [pc, #144]	; (4020a0 <m2m_wifi_init+0xd0>)
  40200e:	4798      	blx	r3
  402010:	4604      	mov	r4, r0
  402012:	4f24      	ldr	r7, [pc, #144]	; (4020a4 <m2m_wifi_init+0xd4>)
  402014:	4638      	mov	r0, r7
  402016:	4d24      	ldr	r5, [pc, #144]	; (4020a8 <m2m_wifi_init+0xd8>)
  402018:	47a8      	blx	r5
  40201a:	f89d 300e 	ldrb.w	r3, [sp, #14]
  40201e:	f89d 200d 	ldrb.w	r2, [sp, #13]
  402022:	f89d 100c 	ldrb.w	r1, [sp, #12]
  402026:	4821      	ldr	r0, [pc, #132]	; (4020ac <m2m_wifi_init+0xdc>)
  402028:	47a8      	blx	r5
  40202a:	4e21      	ldr	r6, [pc, #132]	; (4020b0 <m2m_wifi_init+0xe0>)
  40202c:	4630      	mov	r0, r6
  40202e:	47a8      	blx	r5
  402030:	4638      	mov	r0, r7
  402032:	47a8      	blx	r5
  402034:	f89d 3011 	ldrb.w	r3, [sp, #17]
  402038:	f89d 2010 	ldrb.w	r2, [sp, #16]
  40203c:	f89d 100f 	ldrb.w	r1, [sp, #15]
  402040:	481c      	ldr	r0, [pc, #112]	; (4020b4 <m2m_wifi_init+0xe4>)
  402042:	47a8      	blx	r5
  402044:	4630      	mov	r0, r6
  402046:	47a8      	blx	r5
  402048:	4638      	mov	r0, r7
  40204a:	47a8      	blx	r5
  40204c:	2300      	movs	r3, #0
  40204e:	2203      	movs	r2, #3
  402050:	2113      	movs	r1, #19
  402052:	4819      	ldr	r0, [pc, #100]	; (4020b8 <m2m_wifi_init+0xe8>)
  402054:	47a8      	blx	r5
  402056:	4630      	mov	r0, r6
  402058:	47a8      	blx	r5
  40205a:	f114 0f0d 	cmn.w	r4, #13
  40205e:	d10f      	bne.n	402080 <m2m_wifi_init+0xb0>
  402060:	f240 12d5 	movw	r2, #469	; 0x1d5
  402064:	4915      	ldr	r1, [pc, #84]	; (4020bc <m2m_wifi_init+0xec>)
  402066:	4816      	ldr	r0, [pc, #88]	; (4020c0 <m2m_wifi_init+0xf0>)
  402068:	47a8      	blx	r5
  40206a:	4816      	ldr	r0, [pc, #88]	; (4020c4 <m2m_wifi_init+0xf4>)
  40206c:	47a8      	blx	r5
  40206e:	4630      	mov	r0, r6
  402070:	47a8      	blx	r5
  402072:	e005      	b.n	402080 <m2m_wifi_init+0xb0>
  402074:	2000      	movs	r0, #0
  402076:	4b14      	ldr	r3, [pc, #80]	; (4020c8 <m2m_wifi_init+0xf8>)
  402078:	4798      	blx	r3
  40207a:	e001      	b.n	402080 <m2m_wifi_init+0xb0>
  40207c:	f06f 040b 	mvn.w	r4, #11
  402080:	4620      	mov	r0, r4
  402082:	b00b      	add	sp, #44	; 0x2c
  402084:	bdf0      	pop	{r4, r5, r6, r7, pc}
  402086:	bf00      	nop
  402088:	20400944 	.word	0x20400944
  40208c:	20400948 	.word	0x20400948
  402090:	0040298d 	.word	0x0040298d
  402094:	00401cfd 	.word	0x00401cfd
  402098:	00401d4d 	.word	0x00401d4d
  40209c:	00401c6d 	.word	0x00401c6d
  4020a0:	004028e1 	.word	0x004028e1
  4020a4:	0040bbb8 	.word	0x0040bbb8
  4020a8:	00405135 	.word	0x00405135
  4020ac:	0040bc9c 	.word	0x0040bc9c
  4020b0:	0040ca54 	.word	0x0040ca54
  4020b4:	0040bcb8 	.word	0x0040bcb8
  4020b8:	0040bcd4 	.word	0x0040bcd4
  4020bc:	0040bee0 	.word	0x0040bee0
  4020c0:	0040b8f8 	.word	0x0040b8f8
  4020c4:	0040bcf0 	.word	0x0040bcf0
  4020c8:	00402a55 	.word	0x00402a55

004020cc <m2m_wifi_handle_events>:
  4020cc:	b508      	push	{r3, lr}
  4020ce:	4b01      	ldr	r3, [pc, #4]	; (4020d4 <m2m_wifi_handle_events+0x8>)
  4020d0:	4798      	blx	r3
  4020d2:	bd08      	pop	{r3, pc}
  4020d4:	0040183d 	.word	0x0040183d

004020d8 <m2m_wifi_connect_sc>:
  4020d8:	e92d 41f0 	stmdb	sp!, {r4, r5, r6, r7, r8, lr}
  4020dc:	b0a0      	sub	sp, #128	; 0x80
  4020de:	4680      	mov	r8, r0
  4020e0:	460d      	mov	r5, r1
  4020e2:	4614      	mov	r4, r2
  4020e4:	461e      	mov	r6, r3
  4020e6:	f8bd 7098 	ldrh.w	r7, [sp, #152]	; 0x98
  4020ea:	2a01      	cmp	r2, #1
  4020ec:	d045      	beq.n	40217a <m2m_wifi_connect_sc+0xa2>
  4020ee:	b963      	cbnz	r3, 40210a <m2m_wifi_connect_sc+0x32>
  4020f0:	f240 2203 	movw	r2, #515	; 0x203
  4020f4:	497a      	ldr	r1, [pc, #488]	; (4022e0 <m2m_wifi_connect_sc+0x208>)
  4020f6:	487b      	ldr	r0, [pc, #492]	; (4022e4 <m2m_wifi_connect_sc+0x20c>)
  4020f8:	4c7b      	ldr	r4, [pc, #492]	; (4022e8 <m2m_wifi_connect_sc+0x210>)
  4020fa:	47a0      	blx	r4
  4020fc:	487b      	ldr	r0, [pc, #492]	; (4022ec <m2m_wifi_connect_sc+0x214>)
  4020fe:	47a0      	blx	r4
  402100:	487b      	ldr	r0, [pc, #492]	; (4022f0 <m2m_wifi_connect_sc+0x218>)
  402102:	47a0      	blx	r4
  402104:	f06f 000b 	mvn.w	r0, #11
  402108:	e0e7      	b.n	4022da <m2m_wifi_connect_sc+0x202>
  40210a:	2a02      	cmp	r2, #2
  40210c:	d135      	bne.n	40217a <m2m_wifi_connect_sc+0xa2>
  40210e:	4618      	mov	r0, r3
  402110:	4b78      	ldr	r3, [pc, #480]	; (4022f4 <m2m_wifi_connect_sc+0x21c>)
  402112:	4798      	blx	r3
  402114:	2840      	cmp	r0, #64	; 0x40
  402116:	d130      	bne.n	40217a <m2m_wifi_connect_sc+0xa2>
  402118:	7833      	ldrb	r3, [r6, #0]
  40211a:	f1a3 0230 	sub.w	r2, r3, #48	; 0x30
  40211e:	b2d2      	uxtb	r2, r2
  402120:	2a36      	cmp	r2, #54	; 0x36
  402122:	d81b      	bhi.n	40215c <m2m_wifi_connect_sc+0x84>
  402124:	f1a3 023a 	sub.w	r2, r3, #58	; 0x3a
  402128:	b2d2      	uxtb	r2, r2
  40212a:	2a06      	cmp	r2, #6
  40212c:	d916      	bls.n	40215c <m2m_wifi_connect_sc+0x84>
  40212e:	3b47      	subs	r3, #71	; 0x47
  402130:	b2db      	uxtb	r3, r3
  402132:	2b19      	cmp	r3, #25
  402134:	d912      	bls.n	40215c <m2m_wifi_connect_sc+0x84>
  402136:	4631      	mov	r1, r6
  402138:	f106 003f 	add.w	r0, r6, #63	; 0x3f
  40213c:	f811 3f01 	ldrb.w	r3, [r1, #1]!
  402140:	f1a3 023a 	sub.w	r2, r3, #58	; 0x3a
  402144:	b2d2      	uxtb	r2, r2
  402146:	2a06      	cmp	r2, #6
  402148:	d908      	bls.n	40215c <m2m_wifi_connect_sc+0x84>
  40214a:	f1a3 0230 	sub.w	r2, r3, #48	; 0x30
  40214e:	b2d2      	uxtb	r2, r2
  402150:	2a36      	cmp	r2, #54	; 0x36
  402152:	d803      	bhi.n	40215c <m2m_wifi_connect_sc+0x84>
  402154:	3b47      	subs	r3, #71	; 0x47
  402156:	b2db      	uxtb	r3, r3
  402158:	2b19      	cmp	r3, #25
  40215a:	d80c      	bhi.n	402176 <m2m_wifi_connect_sc+0x9e>
  40215c:	f240 220f 	movw	r2, #527	; 0x20f
  402160:	495f      	ldr	r1, [pc, #380]	; (4022e0 <m2m_wifi_connect_sc+0x208>)
  402162:	4860      	ldr	r0, [pc, #384]	; (4022e4 <m2m_wifi_connect_sc+0x20c>)
  402164:	4c60      	ldr	r4, [pc, #384]	; (4022e8 <m2m_wifi_connect_sc+0x210>)
  402166:	47a0      	blx	r4
  402168:	4863      	ldr	r0, [pc, #396]	; (4022f8 <m2m_wifi_connect_sc+0x220>)
  40216a:	47a0      	blx	r4
  40216c:	4860      	ldr	r0, [pc, #384]	; (4022f0 <m2m_wifi_connect_sc+0x218>)
  40216e:	47a0      	blx	r4
  402170:	f06f 000b 	mvn.w	r0, #11
  402174:	e0b1      	b.n	4022da <m2m_wifi_connect_sc+0x202>
  402176:	4288      	cmp	r0, r1
  402178:	d1e0      	bne.n	40213c <m2m_wifi_connect_sc+0x64>
  40217a:	1e6b      	subs	r3, r5, #1
  40217c:	b2db      	uxtb	r3, r3
  40217e:	2b1f      	cmp	r3, #31
  402180:	d90c      	bls.n	40219c <m2m_wifi_connect_sc+0xc4>
  402182:	f240 2219 	movw	r2, #537	; 0x219
  402186:	4956      	ldr	r1, [pc, #344]	; (4022e0 <m2m_wifi_connect_sc+0x208>)
  402188:	4856      	ldr	r0, [pc, #344]	; (4022e4 <m2m_wifi_connect_sc+0x20c>)
  40218a:	4c57      	ldr	r4, [pc, #348]	; (4022e8 <m2m_wifi_connect_sc+0x210>)
  40218c:	47a0      	blx	r4
  40218e:	485b      	ldr	r0, [pc, #364]	; (4022fc <m2m_wifi_connect_sc+0x224>)
  402190:	47a0      	blx	r4
  402192:	4857      	ldr	r0, [pc, #348]	; (4022f0 <m2m_wifi_connect_sc+0x218>)
  402194:	47a0      	blx	r4
  402196:	f06f 000b 	mvn.w	r0, #11
  40219a:	e09e      	b.n	4022da <m2m_wifi_connect_sc+0x202>
  40219c:	2fff      	cmp	r7, #255	; 0xff
  40219e:	d00e      	beq.n	4021be <m2m_wifi_connect_sc+0xe6>
  4021a0:	2f0d      	cmp	r7, #13
  4021a2:	d90c      	bls.n	4021be <m2m_wifi_connect_sc+0xe6>
  4021a4:	f240 2222 	movw	r2, #546	; 0x222
  4021a8:	494d      	ldr	r1, [pc, #308]	; (4022e0 <m2m_wifi_connect_sc+0x208>)
  4021aa:	484e      	ldr	r0, [pc, #312]	; (4022e4 <m2m_wifi_connect_sc+0x20c>)
  4021ac:	4c4e      	ldr	r4, [pc, #312]	; (4022e8 <m2m_wifi_connect_sc+0x210>)
  4021ae:	47a0      	blx	r4
  4021b0:	4853      	ldr	r0, [pc, #332]	; (402300 <m2m_wifi_connect_sc+0x228>)
  4021b2:	47a0      	blx	r4
  4021b4:	484e      	ldr	r0, [pc, #312]	; (4022f0 <m2m_wifi_connect_sc+0x218>)
  4021b6:	47a0      	blx	r4
  4021b8:	f06f 000b 	mvn.w	r0, #11
  4021bc:	e08d      	b.n	4022da <m2m_wifi_connect_sc+0x202>
  4021be:	462a      	mov	r2, r5
  4021c0:	4641      	mov	r1, r8
  4021c2:	f10d 005a 	add.w	r0, sp, #90	; 0x5a
  4021c6:	4b4f      	ldr	r3, [pc, #316]	; (402304 <m2m_wifi_connect_sc+0x22c>)
  4021c8:	4798      	blx	r3
  4021ca:	ab20      	add	r3, sp, #128	; 0x80
  4021cc:	441d      	add	r5, r3
  4021ce:	2300      	movs	r3, #0
  4021d0:	f805 3c26 	strb.w	r3, [r5, #-38]
  4021d4:	f8ad 7058 	strh.w	r7, [sp, #88]	; 0x58
  4021d8:	f89d 309c 	ldrb.w	r3, [sp, #156]	; 0x9c
  4021dc:	3300      	adds	r3, #0
  4021de:	bf18      	it	ne
  4021e0:	2301      	movne	r3, #1
  4021e2:	f88d 307b 	strb.w	r3, [sp, #123]	; 0x7b
  4021e6:	f88d 4055 	strb.w	r4, [sp, #85]	; 0x55
  4021ea:	2c03      	cmp	r4, #3
  4021ec:	d138      	bne.n	402260 <m2m_wifi_connect_sc+0x188>
  4021ee:	7833      	ldrb	r3, [r6, #0]
  4021f0:	3b01      	subs	r3, #1
  4021f2:	b2db      	uxtb	r3, r3
  4021f4:	f88d 3014 	strb.w	r3, [sp, #20]
  4021f8:	2b03      	cmp	r3, #3
  4021fa:	d90e      	bls.n	40221a <m2m_wifi_connect_sc+0x142>
  4021fc:	f240 2239 	movw	r2, #569	; 0x239
  402200:	4937      	ldr	r1, [pc, #220]	; (4022e0 <m2m_wifi_connect_sc+0x208>)
  402202:	4838      	ldr	r0, [pc, #224]	; (4022e4 <m2m_wifi_connect_sc+0x20c>)
  402204:	4c38      	ldr	r4, [pc, #224]	; (4022e8 <m2m_wifi_connect_sc+0x210>)
  402206:	47a0      	blx	r4
  402208:	f89d 1014 	ldrb.w	r1, [sp, #20]
  40220c:	483e      	ldr	r0, [pc, #248]	; (402308 <m2m_wifi_connect_sc+0x230>)
  40220e:	47a0      	blx	r4
  402210:	4837      	ldr	r0, [pc, #220]	; (4022f0 <m2m_wifi_connect_sc+0x218>)
  402212:	47a0      	blx	r4
  402214:	f06f 000b 	mvn.w	r0, #11
  402218:	e05f      	b.n	4022da <m2m_wifi_connect_sc+0x202>
  40221a:	7872      	ldrb	r2, [r6, #1]
  40221c:	1e53      	subs	r3, r2, #1
  40221e:	f88d 3015 	strb.w	r3, [sp, #21]
  402222:	f002 03ef 	and.w	r3, r2, #239	; 0xef
  402226:	2b0b      	cmp	r3, #11
  402228:	d00e      	beq.n	402248 <m2m_wifi_connect_sc+0x170>
  40222a:	f44f 7210 	mov.w	r2, #576	; 0x240
  40222e:	492c      	ldr	r1, [pc, #176]	; (4022e0 <m2m_wifi_connect_sc+0x208>)
  402230:	482c      	ldr	r0, [pc, #176]	; (4022e4 <m2m_wifi_connect_sc+0x20c>)
  402232:	4c2d      	ldr	r4, [pc, #180]	; (4022e8 <m2m_wifi_connect_sc+0x210>)
  402234:	47a0      	blx	r4
  402236:	f89d 1015 	ldrb.w	r1, [sp, #21]
  40223a:	4834      	ldr	r0, [pc, #208]	; (40230c <m2m_wifi_connect_sc+0x234>)
  40223c:	47a0      	blx	r4
  40223e:	482c      	ldr	r0, [pc, #176]	; (4022f0 <m2m_wifi_connect_sc+0x218>)
  402240:	47a0      	blx	r4
  402242:	f06f 000b 	mvn.w	r0, #11
  402246:	e048      	b.n	4022da <m2m_wifi_connect_sc+0x202>
  402248:	1cb1      	adds	r1, r6, #2
  40224a:	f10d 0016 	add.w	r0, sp, #22
  40224e:	4b2d      	ldr	r3, [pc, #180]	; (402304 <m2m_wifi_connect_sc+0x22c>)
  402250:	4798      	blx	r3
  402252:	7873      	ldrb	r3, [r6, #1]
  402254:	aa20      	add	r2, sp, #128	; 0x80
  402256:	4413      	add	r3, r2
  402258:	2200      	movs	r2, #0
  40225a:	f803 2c6a 	strb.w	r2, [r3, #-106]
  40225e:	e032      	b.n	4022c6 <m2m_wifi_connect_sc+0x1ee>
  402260:	2c02      	cmp	r4, #2
  402262:	d119      	bne.n	402298 <m2m_wifi_connect_sc+0x1c0>
  402264:	4630      	mov	r0, r6
  402266:	4b23      	ldr	r3, [pc, #140]	; (4022f4 <m2m_wifi_connect_sc+0x21c>)
  402268:	4798      	blx	r3
  40226a:	1e43      	subs	r3, r0, #1
  40226c:	b29b      	uxth	r3, r3
  40226e:	2b3f      	cmp	r3, #63	; 0x3f
  402270:	d90c      	bls.n	40228c <m2m_wifi_connect_sc+0x1b4>
  402272:	f240 224f 	movw	r2, #591	; 0x24f
  402276:	491a      	ldr	r1, [pc, #104]	; (4022e0 <m2m_wifi_connect_sc+0x208>)
  402278:	481a      	ldr	r0, [pc, #104]	; (4022e4 <m2m_wifi_connect_sc+0x20c>)
  40227a:	4c1b      	ldr	r4, [pc, #108]	; (4022e8 <m2m_wifi_connect_sc+0x210>)
  40227c:	47a0      	blx	r4
  40227e:	4824      	ldr	r0, [pc, #144]	; (402310 <m2m_wifi_connect_sc+0x238>)
  402280:	47a0      	blx	r4
  402282:	481b      	ldr	r0, [pc, #108]	; (4022f0 <m2m_wifi_connect_sc+0x218>)
  402284:	47a0      	blx	r4
  402286:	f06f 000b 	mvn.w	r0, #11
  40228a:	e026      	b.n	4022da <m2m_wifi_connect_sc+0x202>
  40228c:	1c42      	adds	r2, r0, #1
  40228e:	4631      	mov	r1, r6
  402290:	a805      	add	r0, sp, #20
  402292:	4b1c      	ldr	r3, [pc, #112]	; (402304 <m2m_wifi_connect_sc+0x22c>)
  402294:	4798      	blx	r3
  402296:	e016      	b.n	4022c6 <m2m_wifi_connect_sc+0x1ee>
  402298:	2c04      	cmp	r4, #4
  40229a:	d105      	bne.n	4022a8 <m2m_wifi_connect_sc+0x1d0>
  40229c:	223e      	movs	r2, #62	; 0x3e
  40229e:	4631      	mov	r1, r6
  4022a0:	a805      	add	r0, sp, #20
  4022a2:	4b18      	ldr	r3, [pc, #96]	; (402304 <m2m_wifi_connect_sc+0x22c>)
  4022a4:	4798      	blx	r3
  4022a6:	e00e      	b.n	4022c6 <m2m_wifi_connect_sc+0x1ee>
  4022a8:	2c01      	cmp	r4, #1
  4022aa:	d00c      	beq.n	4022c6 <m2m_wifi_connect_sc+0x1ee>
  4022ac:	f240 225f 	movw	r2, #607	; 0x25f
  4022b0:	490b      	ldr	r1, [pc, #44]	; (4022e0 <m2m_wifi_connect_sc+0x208>)
  4022b2:	480c      	ldr	r0, [pc, #48]	; (4022e4 <m2m_wifi_connect_sc+0x20c>)
  4022b4:	4c0c      	ldr	r4, [pc, #48]	; (4022e8 <m2m_wifi_connect_sc+0x210>)
  4022b6:	47a0      	blx	r4
  4022b8:	4816      	ldr	r0, [pc, #88]	; (402314 <m2m_wifi_connect_sc+0x23c>)
  4022ba:	47a0      	blx	r4
  4022bc:	480c      	ldr	r0, [pc, #48]	; (4022f0 <m2m_wifi_connect_sc+0x218>)
  4022be:	47a0      	blx	r4
  4022c0:	f06f 000b 	mvn.w	r0, #11
  4022c4:	e009      	b.n	4022da <m2m_wifi_connect_sc+0x202>
  4022c6:	2300      	movs	r3, #0
  4022c8:	9302      	str	r3, [sp, #8]
  4022ca:	9301      	str	r3, [sp, #4]
  4022cc:	9300      	str	r3, [sp, #0]
  4022ce:	236c      	movs	r3, #108	; 0x6c
  4022d0:	aa05      	add	r2, sp, #20
  4022d2:	2128      	movs	r1, #40	; 0x28
  4022d4:	2001      	movs	r0, #1
  4022d6:	4c10      	ldr	r4, [pc, #64]	; (402318 <m2m_wifi_connect_sc+0x240>)
  4022d8:	47a0      	blx	r4
  4022da:	b020      	add	sp, #128	; 0x80
  4022dc:	e8bd 81f0 	ldmia.w	sp!, {r4, r5, r6, r7, r8, pc}
  4022e0:	0040bb98 	.word	0x0040bb98
  4022e4:	0040b8f8 	.word	0x0040b8f8
  4022e8:	00405135 	.word	0x00405135
  4022ec:	0040bd0c 	.word	0x0040bd0c
  4022f0:	0040ca54 	.word	0x0040ca54
  4022f4:	00401511 	.word	0x00401511
  4022f8:	0040bd20 	.word	0x0040bd20
  4022fc:	0040bd30 	.word	0x0040bd30
  402300:	0040bd44 	.word	0x0040bd44
  402304:	004014ed 	.word	0x004014ed
  402308:	0040bd50 	.word	0x0040bd50
  40230c:	0040bd6c 	.word	0x0040bd6c
  402310:	0040bd88 	.word	0x0040bd88
  402314:	0040bda4 	.word	0x0040bda4
  402318:	00401665 	.word	0x00401665

0040231c <m2m_wifi_connect>:
  40231c:	b510      	push	{r4, lr}
  40231e:	b082      	sub	sp, #8
  402320:	2400      	movs	r4, #0
  402322:	9401      	str	r4, [sp, #4]
  402324:	f8bd 4010 	ldrh.w	r4, [sp, #16]
  402328:	9400      	str	r4, [sp, #0]
  40232a:	4c02      	ldr	r4, [pc, #8]	; (402334 <m2m_wifi_connect+0x18>)
  40232c:	47a0      	blx	r4
  40232e:	b002      	add	sp, #8
  402330:	bd10      	pop	{r4, pc}
  402332:	bf00      	nop
  402334:	004020d9 	.word	0x004020d9

00402338 <m2m_wifi_request_dhcp_client>:
  402338:	2000      	movs	r0, #0
  40233a:	4770      	bx	lr

0040233c <chip_apply_conf>:
  40233c:	b5f0      	push	{r4, r5, r6, r7, lr}
  40233e:	b083      	sub	sp, #12
  402340:	4604      	mov	r4, r0
  402342:	f44f 55a5 	mov.w	r5, #5280	; 0x14a0
  402346:	4e0a      	ldr	r6, [pc, #40]	; (402370 <chip_apply_conf+0x34>)
  402348:	4f0a      	ldr	r7, [pc, #40]	; (402374 <chip_apply_conf+0x38>)
  40234a:	4621      	mov	r1, r4
  40234c:	4628      	mov	r0, r5
  40234e:	47b0      	blx	r6
  402350:	b154      	cbz	r4, 402368 <chip_apply_conf+0x2c>
  402352:	a902      	add	r1, sp, #8
  402354:	2300      	movs	r3, #0
  402356:	f841 3d04 	str.w	r3, [r1, #-4]!
  40235a:	4628      	mov	r0, r5
  40235c:	47b8      	blx	r7
  40235e:	2800      	cmp	r0, #0
  402360:	d1f3      	bne.n	40234a <chip_apply_conf+0xe>
  402362:	9b01      	ldr	r3, [sp, #4]
  402364:	429c      	cmp	r4, r3
  402366:	d1f0      	bne.n	40234a <chip_apply_conf+0xe>
  402368:	2000      	movs	r0, #0
  40236a:	b003      	add	sp, #12
  40236c:	bdf0      	pop	{r4, r5, r6, r7, pc}
  40236e:	bf00      	nop
  402370:	00402815 	.word	0x00402815
  402374:	00402809 	.word	0x00402809

00402378 <nm_clkless_wake>:
  402378:	e92d 4ff0 	stmdb	sp!, {r4, r5, r6, r7, r8, r9, sl, fp, lr}
  40237c:	b083      	sub	sp, #12
  40237e:	2001      	movs	r0, #1
  402380:	4b3d      	ldr	r3, [pc, #244]	; (402478 <nm_clkless_wake+0x100>)
  402382:	4798      	blx	r3
  402384:	a901      	add	r1, sp, #4
  402386:	2001      	movs	r0, #1
  402388:	4b3c      	ldr	r3, [pc, #240]	; (40247c <nm_clkless_wake+0x104>)
  40238a:	4798      	blx	r3
  40238c:	4682      	mov	sl, r0
  40238e:	b148      	cbz	r0, 4023a4 <nm_clkless_wake+0x2c>
  402390:	2272      	movs	r2, #114	; 0x72
  402392:	493b      	ldr	r1, [pc, #236]	; (402480 <nm_clkless_wake+0x108>)
  402394:	483b      	ldr	r0, [pc, #236]	; (402484 <nm_clkless_wake+0x10c>)
  402396:	4c3c      	ldr	r4, [pc, #240]	; (402488 <nm_clkless_wake+0x110>)
  402398:	47a0      	blx	r4
  40239a:	483c      	ldr	r0, [pc, #240]	; (40248c <nm_clkless_wake+0x114>)
  40239c:	47a0      	blx	r4
  40239e:	483c      	ldr	r0, [pc, #240]	; (402490 <nm_clkless_wake+0x118>)
  4023a0:	47a0      	blx	r4
  4023a2:	e064      	b.n	40246e <nm_clkless_wake+0xf6>
  4023a4:	2400      	movs	r4, #0
  4023a6:	f04f 0801 	mov.w	r8, #1
  4023aa:	f8df 90f8 	ldr.w	r9, [pc, #248]	; 4024a4 <nm_clkless_wake+0x12c>
  4023ae:	4d32      	ldr	r5, [pc, #200]	; (402478 <nm_clkless_wake+0x100>)
  4023b0:	4f38      	ldr	r7, [pc, #224]	; (402494 <nm_clkless_wake+0x11c>)
  4023b2:	9901      	ldr	r1, [sp, #4]
  4023b4:	f041 0102 	orr.w	r1, r1, #2
  4023b8:	4640      	mov	r0, r8
  4023ba:	47c8      	blx	r9
  4023bc:	4640      	mov	r0, r8
  4023be:	47a8      	blx	r5
  4023c0:	4669      	mov	r1, sp
  4023c2:	4b35      	ldr	r3, [pc, #212]	; (402498 <nm_clkless_wake+0x120>)
  4023c4:	6818      	ldr	r0, [r3, #0]
  4023c6:	4b2d      	ldr	r3, [pc, #180]	; (40247c <nm_clkless_wake+0x104>)
  4023c8:	4798      	blx	r3
  4023ca:	b918      	cbnz	r0, 4023d4 <nm_clkless_wake+0x5c>
  4023cc:	9b00      	ldr	r3, [sp, #0]
  4023ce:	b10b      	cbz	r3, 4023d4 <nm_clkless_wake+0x5c>
  4023d0:	4e31      	ldr	r6, [pc, #196]	; (402498 <nm_clkless_wake+0x120>)
  4023d2:	e037      	b.n	402444 <nm_clkless_wake+0xcc>
  4023d4:	4e30      	ldr	r6, [pc, #192]	; (402498 <nm_clkless_wake+0x120>)
  4023d6:	230e      	movs	r3, #14
  4023d8:	6033      	str	r3, [r6, #0]
  4023da:	4640      	mov	r0, r8
  4023dc:	47a8      	blx	r5
  4023de:	4669      	mov	r1, sp
  4023e0:	6830      	ldr	r0, [r6, #0]
  4023e2:	4b26      	ldr	r3, [pc, #152]	; (40247c <nm_clkless_wake+0x104>)
  4023e4:	4798      	blx	r3
  4023e6:	b910      	cbnz	r0, 4023ee <nm_clkless_wake+0x76>
  4023e8:	9b00      	ldr	r3, [sp, #0]
  4023ea:	2b00      	cmp	r3, #0
  4023ec:	d1f0      	bne.n	4023d0 <nm_clkless_wake+0x58>
  4023ee:	4e2a      	ldr	r6, [pc, #168]	; (402498 <nm_clkless_wake+0x120>)
  4023f0:	2313      	movs	r3, #19
  4023f2:	6033      	str	r3, [r6, #0]
  4023f4:	4640      	mov	r0, r8
  4023f6:	47a8      	blx	r5
  4023f8:	4669      	mov	r1, sp
  4023fa:	6830      	ldr	r0, [r6, #0]
  4023fc:	4b1f      	ldr	r3, [pc, #124]	; (40247c <nm_clkless_wake+0x104>)
  4023fe:	4798      	blx	r3
  402400:	4606      	mov	r6, r0
  402402:	2800      	cmp	r0, #0
  402404:	d0e4      	beq.n	4023d0 <nm_clkless_wake+0x58>
  402406:	2296      	movs	r2, #150	; 0x96
  402408:	491d      	ldr	r1, [pc, #116]	; (402480 <nm_clkless_wake+0x108>)
  40240a:	481e      	ldr	r0, [pc, #120]	; (402484 <nm_clkless_wake+0x10c>)
  40240c:	4c1e      	ldr	r4, [pc, #120]	; (402488 <nm_clkless_wake+0x110>)
  40240e:	47a0      	blx	r4
  402410:	4822      	ldr	r0, [pc, #136]	; (40249c <nm_clkless_wake+0x124>)
  402412:	47a0      	blx	r4
  402414:	481e      	ldr	r0, [pc, #120]	; (402490 <nm_clkless_wake+0x118>)
  402416:	47a0      	blx	r4
  402418:	46b2      	mov	sl, r6
  40241a:	e028      	b.n	40246e <nm_clkless_wake+0xf6>
  40241c:	2002      	movs	r0, #2
  40241e:	47a8      	blx	r5
  402420:	4669      	mov	r1, sp
  402422:	6830      	ldr	r0, [r6, #0]
  402424:	4b15      	ldr	r3, [pc, #84]	; (40247c <nm_clkless_wake+0x104>)
  402426:	4798      	blx	r3
  402428:	9b00      	ldr	r3, [sp, #0]
  40242a:	f013 0f04 	tst.w	r3, #4
  40242e:	d109      	bne.n	402444 <nm_clkless_wake+0xcc>
  402430:	22aa      	movs	r2, #170	; 0xaa
  402432:	4913      	ldr	r1, [pc, #76]	; (402480 <nm_clkless_wake+0x108>)
  402434:	4813      	ldr	r0, [pc, #76]	; (402484 <nm_clkless_wake+0x10c>)
  402436:	f8df b050 	ldr.w	fp, [pc, #80]	; 402488 <nm_clkless_wake+0x110>
  40243a:	47d8      	blx	fp
  40243c:	4818      	ldr	r0, [pc, #96]	; (4024a0 <nm_clkless_wake+0x128>)
  40243e:	47d8      	blx	fp
  402440:	4813      	ldr	r0, [pc, #76]	; (402490 <nm_clkless_wake+0x118>)
  402442:	47d8      	blx	fp
  402444:	9b00      	ldr	r3, [sp, #0]
  402446:	f013 0f04 	tst.w	r3, #4
  40244a:	d110      	bne.n	40246e <nm_clkless_wake+0xf6>
  40244c:	3401      	adds	r4, #1
  40244e:	fba7 2304 	umull	r2, r3, r7, r4
  402452:	085b      	lsrs	r3, r3, #1
  402454:	eb03 0343 	add.w	r3, r3, r3, lsl #1
  402458:	429c      	cmp	r4, r3
  40245a:	d0df      	beq.n	40241c <nm_clkless_wake+0xa4>
  40245c:	9901      	ldr	r1, [sp, #4]
  40245e:	f041 0102 	orr.w	r1, r1, #2
  402462:	4640      	mov	r0, r8
  402464:	47c8      	blx	r9
  402466:	9b00      	ldr	r3, [sp, #0]
  402468:	f013 0f04 	tst.w	r3, #4
  40246c:	d0a1      	beq.n	4023b2 <nm_clkless_wake+0x3a>
  40246e:	4650      	mov	r0, sl
  402470:	b003      	add	sp, #12
  402472:	e8bd 8ff0 	ldmia.w	sp!, {r4, r5, r6, r7, r8, r9, sl, fp, pc}
  402476:	bf00      	nop
  402478:	00401151 	.word	0x00401151
  40247c:	00402809 	.word	0x00402809
  402480:	0040befc 	.word	0x0040befc
  402484:	0040b8f8 	.word	0x0040b8f8
  402488:	00405135 	.word	0x00405135
  40248c:	0040bf0c 	.word	0x0040bf0c
  402490:	0040ca54 	.word	0x0040ca54
  402494:	aaaaaaab 	.word	0xaaaaaaab
  402498:	20400034 	.word	0x20400034
  40249c:	0040bf2c 	.word	0x0040bf2c
  4024a0:	0040bf4c 	.word	0x0040bf4c
  4024a4:	00402815 	.word	0x00402815

004024a8 <enable_interrupts>:
  4024a8:	b500      	push	{lr}
  4024aa:	b083      	sub	sp, #12
  4024ac:	a901      	add	r1, sp, #4
  4024ae:	f241 4008 	movw	r0, #5128	; 0x1408
  4024b2:	4b15      	ldr	r3, [pc, #84]	; (402508 <enable_interrupts+0x60>)
  4024b4:	4798      	blx	r3
  4024b6:	b9e0      	cbnz	r0, 4024f2 <enable_interrupts+0x4a>
  4024b8:	9901      	ldr	r1, [sp, #4]
  4024ba:	f441 7180 	orr.w	r1, r1, #256	; 0x100
  4024be:	9101      	str	r1, [sp, #4]
  4024c0:	f241 4008 	movw	r0, #5128	; 0x1408
  4024c4:	4b11      	ldr	r3, [pc, #68]	; (40250c <enable_interrupts+0x64>)
  4024c6:	4798      	blx	r3
  4024c8:	b9b0      	cbnz	r0, 4024f8 <enable_interrupts+0x50>
  4024ca:	a901      	add	r1, sp, #4
  4024cc:	f44f 50d0 	mov.w	r0, #6656	; 0x1a00
  4024d0:	4b0d      	ldr	r3, [pc, #52]	; (402508 <enable_interrupts+0x60>)
  4024d2:	4798      	blx	r3
  4024d4:	b998      	cbnz	r0, 4024fe <enable_interrupts+0x56>
  4024d6:	9901      	ldr	r1, [sp, #4]
  4024d8:	f441 3180 	orr.w	r1, r1, #65536	; 0x10000
  4024dc:	9101      	str	r1, [sp, #4]
  4024de:	f44f 50d0 	mov.w	r0, #6656	; 0x1a00
  4024e2:	4b0a      	ldr	r3, [pc, #40]	; (40250c <enable_interrupts+0x64>)
  4024e4:	4798      	blx	r3
  4024e6:	2800      	cmp	r0, #0
  4024e8:	bf14      	ite	ne
  4024ea:	f06f 0005 	mvnne.w	r0, #5
  4024ee:	2000      	moveq	r0, #0
  4024f0:	e007      	b.n	402502 <enable_interrupts+0x5a>
  4024f2:	f06f 0005 	mvn.w	r0, #5
  4024f6:	e004      	b.n	402502 <enable_interrupts+0x5a>
  4024f8:	f06f 0005 	mvn.w	r0, #5
  4024fc:	e001      	b.n	402502 <enable_interrupts+0x5a>
  4024fe:	f06f 0005 	mvn.w	r0, #5
  402502:	b003      	add	sp, #12
  402504:	f85d fb04 	ldr.w	pc, [sp], #4
  402508:	00402809 	.word	0x00402809
  40250c:	00402815 	.word	0x00402815

00402510 <nmi_get_chipid>:
  402510:	b510      	push	{r4, lr}
  402512:	b082      	sub	sp, #8
  402514:	4b24      	ldr	r3, [pc, #144]	; (4025a8 <nmi_get_chipid+0x98>)
  402516:	681c      	ldr	r4, [r3, #0]
  402518:	2c00      	cmp	r4, #0
  40251a:	d140      	bne.n	40259e <nmi_get_chipid+0x8e>
  40251c:	4619      	mov	r1, r3
  40251e:	f44f 5080 	mov.w	r0, #4096	; 0x1000
  402522:	4b22      	ldr	r3, [pc, #136]	; (4025ac <nmi_get_chipid+0x9c>)
  402524:	4798      	blx	r3
  402526:	b118      	cbz	r0, 402530 <nmi_get_chipid+0x20>
  402528:	2200      	movs	r2, #0
  40252a:	4b1f      	ldr	r3, [pc, #124]	; (4025a8 <nmi_get_chipid+0x98>)
  40252c:	601a      	str	r2, [r3, #0]
  40252e:	e038      	b.n	4025a2 <nmi_get_chipid+0x92>
  402530:	a901      	add	r1, sp, #4
  402532:	f241 30f4 	movw	r0, #5108	; 0x13f4
  402536:	4b1d      	ldr	r3, [pc, #116]	; (4025ac <nmi_get_chipid+0x9c>)
  402538:	4798      	blx	r3
  40253a:	b118      	cbz	r0, 402544 <nmi_get_chipid+0x34>
  40253c:	2200      	movs	r2, #0
  40253e:	4b1a      	ldr	r3, [pc, #104]	; (4025a8 <nmi_get_chipid+0x98>)
  402540:	601a      	str	r2, [r3, #0]
  402542:	e02e      	b.n	4025a2 <nmi_get_chipid+0x92>
  402544:	4b18      	ldr	r3, [pc, #96]	; (4025a8 <nmi_get_chipid+0x98>)
  402546:	681b      	ldr	r3, [r3, #0]
  402548:	4a19      	ldr	r2, [pc, #100]	; (4025b0 <nmi_get_chipid+0xa0>)
  40254a:	4293      	cmp	r3, r2
  40254c:	d106      	bne.n	40255c <nmi_get_chipid+0x4c>
  40254e:	9b01      	ldr	r3, [sp, #4]
  402550:	2b01      	cmp	r3, #1
  402552:	d01d      	beq.n	402590 <nmi_get_chipid+0x80>
  402554:	3201      	adds	r2, #1
  402556:	4b14      	ldr	r3, [pc, #80]	; (4025a8 <nmi_get_chipid+0x98>)
  402558:	601a      	str	r2, [r3, #0]
  40255a:	e019      	b.n	402590 <nmi_get_chipid+0x80>
  40255c:	4a15      	ldr	r2, [pc, #84]	; (4025b4 <nmi_get_chipid+0xa4>)
  40255e:	4293      	cmp	r3, r2
  402560:	d109      	bne.n	402576 <nmi_get_chipid+0x66>
  402562:	9b01      	ldr	r3, [sp, #4]
  402564:	2b03      	cmp	r3, #3
  402566:	d013      	beq.n	402590 <nmi_get_chipid+0x80>
  402568:	2b04      	cmp	r3, #4
  40256a:	bf0c      	ite	eq
  40256c:	3201      	addeq	r2, #1
  40256e:	4a12      	ldrne	r2, [pc, #72]	; (4025b8 <nmi_get_chipid+0xa8>)
  402570:	4b0d      	ldr	r3, [pc, #52]	; (4025a8 <nmi_get_chipid+0x98>)
  402572:	601a      	str	r2, [r3, #0]
  402574:	e00c      	b.n	402590 <nmi_get_chipid+0x80>
  402576:	4a11      	ldr	r2, [pc, #68]	; (4025bc <nmi_get_chipid+0xac>)
  402578:	4293      	cmp	r3, r2
  40257a:	d109      	bne.n	402590 <nmi_get_chipid+0x80>
  40257c:	490a      	ldr	r1, [pc, #40]	; (4025a8 <nmi_get_chipid+0x98>)
  40257e:	f44f 106c 	mov.w	r0, #3866624	; 0x3b0000
  402582:	4b0a      	ldr	r3, [pc, #40]	; (4025ac <nmi_get_chipid+0x9c>)
  402584:	4798      	blx	r3
  402586:	b118      	cbz	r0, 402590 <nmi_get_chipid+0x80>
  402588:	2200      	movs	r2, #0
  40258a:	4b07      	ldr	r3, [pc, #28]	; (4025a8 <nmi_get_chipid+0x98>)
  40258c:	601a      	str	r2, [r3, #0]
  40258e:	e008      	b.n	4025a2 <nmi_get_chipid+0x92>
  402590:	4a05      	ldr	r2, [pc, #20]	; (4025a8 <nmi_get_chipid+0x98>)
  402592:	6813      	ldr	r3, [r2, #0]
  402594:	f423 2370 	bic.w	r3, r3, #983040	; 0xf0000
  402598:	f443 23a0 	orr.w	r3, r3, #327680	; 0x50000
  40259c:	6013      	str	r3, [r2, #0]
  40259e:	4b02      	ldr	r3, [pc, #8]	; (4025a8 <nmi_get_chipid+0x98>)
  4025a0:	681c      	ldr	r4, [r3, #0]
  4025a2:	4620      	mov	r0, r4
  4025a4:	b002      	add	sp, #8
  4025a6:	bd10      	pop	{r4, pc}
  4025a8:	2040094c 	.word	0x2040094c
  4025ac:	00402809 	.word	0x00402809
  4025b0:	001002a0 	.word	0x001002a0
  4025b4:	001002b0 	.word	0x001002b0
  4025b8:	001002b2 	.word	0x001002b2
  4025bc:	001000f0 	.word	0x001000f0

004025c0 <wait_for_bootrom>:
  4025c0:	e92d 41f0 	stmdb	sp!, {r4, r5, r6, r7, r8, lr}
  4025c4:	4607      	mov	r7, r0
  4025c6:	f241 0514 	movw	r5, #4116	; 0x1014
  4025ca:	4c28      	ldr	r4, [pc, #160]	; (40266c <wait_for_bootrom+0xac>)
  4025cc:	4e28      	ldr	r6, [pc, #160]	; (402670 <wait_for_bootrom+0xb0>)
  4025ce:	4628      	mov	r0, r5
  4025d0:	47a0      	blx	r4
  4025d2:	2800      	cmp	r0, #0
  4025d4:	db02      	blt.n	4025dc <wait_for_bootrom+0x1c>
  4025d6:	2001      	movs	r0, #1
  4025d8:	47b0      	blx	r6
  4025da:	e7f8      	b.n	4025ce <wait_for_bootrom+0xe>
  4025dc:	4825      	ldr	r0, [pc, #148]	; (402674 <wait_for_bootrom+0xb4>)
  4025de:	4b23      	ldr	r3, [pc, #140]	; (40266c <wait_for_bootrom+0xac>)
  4025e0:	4798      	blx	r3
  4025e2:	f010 0f01 	tst.w	r0, #1
  4025e6:	d110      	bne.n	40260a <wait_for_bootrom+0x4a>
  4025e8:	f8df 8084 	ldr.w	r8, [pc, #132]	; 402670 <wait_for_bootrom+0xb0>
  4025ec:	4e1f      	ldr	r6, [pc, #124]	; (40266c <wait_for_bootrom+0xac>)
  4025ee:	4d22      	ldr	r5, [pc, #136]	; (402678 <wait_for_bootrom+0xb8>)
  4025f0:	2001      	movs	r0, #1
  4025f2:	47c0      	blx	r8
  4025f4:	f04f 100c 	mov.w	r0, #786444	; 0xc000c
  4025f8:	47b0      	blx	r6
  4025fa:	4604      	mov	r4, r0
  4025fc:	462a      	mov	r2, r5
  4025fe:	4601      	mov	r1, r0
  402600:	481e      	ldr	r0, [pc, #120]	; (40267c <wait_for_bootrom+0xbc>)
  402602:	4b1f      	ldr	r3, [pc, #124]	; (402680 <wait_for_bootrom+0xc0>)
  402604:	4798      	blx	r3
  402606:	42ac      	cmp	r4, r5
  402608:	d1f2      	bne.n	4025f0 <wait_for_bootrom+0x30>
  40260a:	2f02      	cmp	r7, #2
  40260c:	d10a      	bne.n	402624 <wait_for_bootrom+0x64>
  40260e:	491d      	ldr	r1, [pc, #116]	; (402684 <wait_for_bootrom+0xc4>)
  402610:	481d      	ldr	r0, [pc, #116]	; (402688 <wait_for_bootrom+0xc8>)
  402612:	4c1e      	ldr	r4, [pc, #120]	; (40268c <wait_for_bootrom+0xcc>)
  402614:	47a0      	blx	r4
  402616:	f44f 1180 	mov.w	r1, #1048576	; 0x100000
  40261a:	f241 008c 	movw	r0, #4236	; 0x108c
  40261e:	47a0      	blx	r4
  402620:	2400      	movs	r4, #0
  402622:	e00f      	b.n	402644 <wait_for_bootrom+0x84>
  402624:	2f03      	cmp	r7, #3
  402626:	d109      	bne.n	40263c <wait_for_bootrom+0x7c>
  402628:	4916      	ldr	r1, [pc, #88]	; (402684 <wait_for_bootrom+0xc4>)
  40262a:	4817      	ldr	r0, [pc, #92]	; (402688 <wait_for_bootrom+0xc8>)
  40262c:	4c17      	ldr	r4, [pc, #92]	; (40268c <wait_for_bootrom+0xcc>)
  40262e:	47a0      	blx	r4
  402630:	2100      	movs	r1, #0
  402632:	f241 008c 	movw	r0, #4236	; 0x108c
  402636:	47a0      	blx	r4
  402638:	2400      	movs	r4, #0
  40263a:	e003      	b.n	402644 <wait_for_bootrom+0x84>
  40263c:	2f04      	cmp	r7, #4
  40263e:	bf14      	ite	ne
  402640:	2400      	movne	r4, #0
  402642:	2480      	moveq	r4, #128	; 0x80
  402644:	4b12      	ldr	r3, [pc, #72]	; (402690 <wait_for_bootrom+0xd0>)
  402646:	4798      	blx	r3
  402648:	f3c0 000b 	ubfx	r0, r0, #0, #12
  40264c:	f5b0 7f68 	cmp.w	r0, #928	; 0x3a0
  402650:	bf0c      	ite	eq
  402652:	f044 0002 	orreq.w	r0, r4, #2
  402656:	4620      	movne	r0, r4
  402658:	4b0e      	ldr	r3, [pc, #56]	; (402694 <wait_for_bootrom+0xd4>)
  40265a:	4798      	blx	r3
  40265c:	490e      	ldr	r1, [pc, #56]	; (402698 <wait_for_bootrom+0xd8>)
  40265e:	f04f 100c 	mov.w	r0, #786444	; 0xc000c
  402662:	4b0a      	ldr	r3, [pc, #40]	; (40268c <wait_for_bootrom+0xcc>)
  402664:	4798      	blx	r3
  402666:	2000      	movs	r0, #0
  402668:	e8bd 81f0 	ldmia.w	sp!, {r4, r5, r6, r7, r8, pc}
  40266c:	004027fd 	.word	0x004027fd
  402670:	00401151 	.word	0x00401151
  402674:	000207bc 	.word	0x000207bc
  402678:	10add09e 	.word	0x10add09e
  40267c:	0040bf98 	.word	0x0040bf98
  402680:	00405135 	.word	0x00405135
  402684:	3c1cd57d 	.word	0x3c1cd57d
  402688:	000207ac 	.word	0x000207ac
  40268c:	00402815 	.word	0x00402815
  402690:	00402511 	.word	0x00402511
  402694:	0040233d 	.word	0x0040233d
  402698:	ef522f61 	.word	0xef522f61

0040269c <wait_for_firmware_start>:
  40269c:	b5f0      	push	{r4, r5, r6, r7, lr}
  40269e:	b083      	sub	sp, #12
  4026a0:	f241 038c 	movw	r3, #4236	; 0x108c
  4026a4:	9301      	str	r3, [sp, #4]
  4026a6:	4b18      	ldr	r3, [pc, #96]	; (402708 <wait_for_firmware_start+0x6c>)
  4026a8:	9300      	str	r3, [sp, #0]
  4026aa:	3802      	subs	r0, #2
  4026ac:	b2c0      	uxtb	r0, r0
  4026ae:	2801      	cmp	r0, #1
  4026b0:	d810      	bhi.n	4026d4 <wait_for_firmware_start+0x38>
  4026b2:	4b16      	ldr	r3, [pc, #88]	; (40270c <wait_for_firmware_start+0x70>)
  4026b4:	9301      	str	r3, [sp, #4]
  4026b6:	f1a3 5322 	sub.w	r3, r3, #679477248	; 0x28800000
  4026ba:	f5a3 1311 	sub.w	r3, r3, #2375680	; 0x244000
  4026be:	f2a3 53e9 	subw	r3, r3, #1513	; 0x5e9
  4026c2:	9300      	str	r3, [sp, #0]
  4026c4:	e006      	b.n	4026d4 <wait_for_firmware_start+0x38>
  4026c6:	4638      	mov	r0, r7
  4026c8:	47b0      	blx	r6
  4026ca:	9801      	ldr	r0, [sp, #4]
  4026cc:	47a8      	blx	r5
  4026ce:	3c01      	subs	r4, #1
  4026d0:	d106      	bne.n	4026e0 <wait_for_firmware_start+0x44>
  4026d2:	e013      	b.n	4026fc <wait_for_firmware_start+0x60>
  4026d4:	f04f 34ff 	mov.w	r4, #4294967295
  4026d8:	2000      	movs	r0, #0
  4026da:	2702      	movs	r7, #2
  4026dc:	4e0c      	ldr	r6, [pc, #48]	; (402710 <wait_for_firmware_start+0x74>)
  4026de:	4d0d      	ldr	r5, [pc, #52]	; (402714 <wait_for_firmware_start+0x78>)
  4026e0:	9b00      	ldr	r3, [sp, #0]
  4026e2:	4298      	cmp	r0, r3
  4026e4:	d1ef      	bne.n	4026c6 <wait_for_firmware_start+0x2a>
  4026e6:	9a00      	ldr	r2, [sp, #0]
  4026e8:	4b07      	ldr	r3, [pc, #28]	; (402708 <wait_for_firmware_start+0x6c>)
  4026ea:	429a      	cmp	r2, r3
  4026ec:	d109      	bne.n	402702 <wait_for_firmware_start+0x66>
  4026ee:	2100      	movs	r1, #0
  4026f0:	f241 008c 	movw	r0, #4236	; 0x108c
  4026f4:	4b08      	ldr	r3, [pc, #32]	; (402718 <wait_for_firmware_start+0x7c>)
  4026f6:	4798      	blx	r3
  4026f8:	2000      	movs	r0, #0
  4026fa:	e003      	b.n	402704 <wait_for_firmware_start+0x68>
  4026fc:	f06f 0004 	mvn.w	r0, #4
  402700:	e000      	b.n	402704 <wait_for_firmware_start+0x68>
  402702:	2000      	movs	r0, #0
  402704:	b003      	add	sp, #12
  402706:	bdf0      	pop	{r4, r5, r6, r7, pc}
  402708:	02532636 	.word	0x02532636
  40270c:	000207ac 	.word	0x000207ac
  402710:	00401151 	.word	0x00401151
  402714:	004027fd 	.word	0x004027fd
  402718:	00402815 	.word	0x00402815

0040271c <chip_deinit>:
  40271c:	b5f0      	push	{r4, r5, r6, r7, lr}
  40271e:	b083      	sub	sp, #12
  402720:	a902      	add	r1, sp, #8
  402722:	2300      	movs	r3, #0
  402724:	f841 3d04 	str.w	r3, [r1, #-4]!
  402728:	f44f 50a0 	mov.w	r0, #5120	; 0x1400
  40272c:	4b24      	ldr	r3, [pc, #144]	; (4027c0 <chip_deinit+0xa4>)
  40272e:	4798      	blx	r3
  402730:	b148      	cbz	r0, 402746 <chip_deinit+0x2a>
  402732:	f240 2231 	movw	r2, #561	; 0x231
  402736:	4923      	ldr	r1, [pc, #140]	; (4027c4 <chip_deinit+0xa8>)
  402738:	4823      	ldr	r0, [pc, #140]	; (4027c8 <chip_deinit+0xac>)
  40273a:	4c24      	ldr	r4, [pc, #144]	; (4027cc <chip_deinit+0xb0>)
  40273c:	47a0      	blx	r4
  40273e:	4824      	ldr	r0, [pc, #144]	; (4027d0 <chip_deinit+0xb4>)
  402740:	47a0      	blx	r4
  402742:	4824      	ldr	r0, [pc, #144]	; (4027d4 <chip_deinit+0xb8>)
  402744:	47a0      	blx	r4
  402746:	9901      	ldr	r1, [sp, #4]
  402748:	f421 6180 	bic.w	r1, r1, #1024	; 0x400
  40274c:	9101      	str	r1, [sp, #4]
  40274e:	f44f 50a0 	mov.w	r0, #5120	; 0x1400
  402752:	4b21      	ldr	r3, [pc, #132]	; (4027d8 <chip_deinit+0xbc>)
  402754:	4798      	blx	r3
  402756:	4605      	mov	r5, r0
  402758:	b158      	cbz	r0, 402772 <chip_deinit+0x56>
  40275a:	f240 2237 	movw	r2, #567	; 0x237
  40275e:	4919      	ldr	r1, [pc, #100]	; (4027c4 <chip_deinit+0xa8>)
  402760:	4819      	ldr	r0, [pc, #100]	; (4027c8 <chip_deinit+0xac>)
  402762:	4c1a      	ldr	r4, [pc, #104]	; (4027cc <chip_deinit+0xb0>)
  402764:	47a0      	blx	r4
  402766:	481d      	ldr	r0, [pc, #116]	; (4027dc <chip_deinit+0xc0>)
  402768:	47a0      	blx	r4
  40276a:	481a      	ldr	r0, [pc, #104]	; (4027d4 <chip_deinit+0xb8>)
  40276c:	47a0      	blx	r4
  40276e:	4628      	mov	r0, r5
  402770:	e024      	b.n	4027bc <chip_deinit+0xa0>
  402772:	240a      	movs	r4, #10
  402774:	4e12      	ldr	r6, [pc, #72]	; (4027c0 <chip_deinit+0xa4>)
  402776:	4f18      	ldr	r7, [pc, #96]	; (4027d8 <chip_deinit+0xbc>)
  402778:	a901      	add	r1, sp, #4
  40277a:	f44f 50a0 	mov.w	r0, #5120	; 0x1400
  40277e:	47b0      	blx	r6
  402780:	4605      	mov	r5, r0
  402782:	b158      	cbz	r0, 40279c <chip_deinit+0x80>
  402784:	f240 223e 	movw	r2, #574	; 0x23e
  402788:	490e      	ldr	r1, [pc, #56]	; (4027c4 <chip_deinit+0xa8>)
  40278a:	480f      	ldr	r0, [pc, #60]	; (4027c8 <chip_deinit+0xac>)
  40278c:	4c0f      	ldr	r4, [pc, #60]	; (4027cc <chip_deinit+0xb0>)
  40278e:	47a0      	blx	r4
  402790:	4813      	ldr	r0, [pc, #76]	; (4027e0 <chip_deinit+0xc4>)
  402792:	47a0      	blx	r4
  402794:	480f      	ldr	r0, [pc, #60]	; (4027d4 <chip_deinit+0xb8>)
  402796:	47a0      	blx	r4
  402798:	4628      	mov	r0, r5
  40279a:	e00f      	b.n	4027bc <chip_deinit+0xa0>
  40279c:	9901      	ldr	r1, [sp, #4]
  40279e:	f411 6f80 	tst.w	r1, #1024	; 0x400
  4027a2:	d00a      	beq.n	4027ba <chip_deinit+0x9e>
  4027a4:	f421 6180 	bic.w	r1, r1, #1024	; 0x400
  4027a8:	9101      	str	r1, [sp, #4]
  4027aa:	f44f 50a0 	mov.w	r0, #5120	; 0x1400
  4027ae:	47b8      	blx	r7
  4027b0:	1e63      	subs	r3, r4, #1
  4027b2:	f013 04ff 	ands.w	r4, r3, #255	; 0xff
  4027b6:	d1df      	bne.n	402778 <chip_deinit+0x5c>
  4027b8:	e000      	b.n	4027bc <chip_deinit+0xa0>
  4027ba:	2000      	movs	r0, #0
  4027bc:	b003      	add	sp, #12
  4027be:	bdf0      	pop	{r4, r5, r6, r7, pc}
  4027c0:	00402809 	.word	0x00402809
  4027c4:	0040bef0 	.word	0x0040bef0
  4027c8:	0040b8f8 	.word	0x0040b8f8
  4027cc:	00405135 	.word	0x00405135
  4027d0:	0040bfa8 	.word	0x0040bfa8
  4027d4:	0040ca54 	.word	0x0040ca54
  4027d8:	00402815 	.word	0x00402815
  4027dc:	0040bfc4 	.word	0x0040bfc4
  4027e0:	0040bfe0 	.word	0x0040bfe0

004027e4 <nm_bus_iface_init>:
  4027e4:	b508      	push	{r3, lr}
  4027e6:	4b01      	ldr	r3, [pc, #4]	; (4027ec <nm_bus_iface_init+0x8>)
  4027e8:	4798      	blx	r3
  4027ea:	bd08      	pop	{r3, pc}
  4027ec:	004012c1 	.word	0x004012c1

004027f0 <nm_bus_iface_deinit>:
  4027f0:	b508      	push	{r3, lr}
  4027f2:	4b01      	ldr	r3, [pc, #4]	; (4027f8 <nm_bus_iface_deinit+0x8>)
  4027f4:	4798      	blx	r3
  4027f6:	bd08      	pop	{r3, pc}
  4027f8:	004014ad 	.word	0x004014ad

004027fc <nm_read_reg>:
  4027fc:	b508      	push	{r3, lr}
  4027fe:	4b01      	ldr	r3, [pc, #4]	; (402804 <nm_read_reg+0x8>)
  402800:	4798      	blx	r3
  402802:	bd08      	pop	{r3, pc}
  402804:	0040304d 	.word	0x0040304d

00402808 <nm_read_reg_with_ret>:
  402808:	b508      	push	{r3, lr}
  40280a:	4b01      	ldr	r3, [pc, #4]	; (402810 <nm_read_reg_with_ret+0x8>)
  40280c:	4798      	blx	r3
  40280e:	bd08      	pop	{r3, pc}
  402810:	00403065 	.word	0x00403065

00402814 <nm_write_reg>:
  402814:	b508      	push	{r3, lr}
  402816:	4b01      	ldr	r3, [pc, #4]	; (40281c <nm_write_reg+0x8>)
  402818:	4798      	blx	r3
  40281a:	bd08      	pop	{r3, pc}
  40281c:	0040307d 	.word	0x0040307d

00402820 <nm_read_block>:
  402820:	e92d 47f0 	stmdb	sp!, {r4, r5, r6, r7, r8, r9, sl, lr}
  402824:	4607      	mov	r7, r0
  402826:	4689      	mov	r9, r1
  402828:	4615      	mov	r5, r2
  40282a:	4b13      	ldr	r3, [pc, #76]	; (402878 <nm_read_block+0x58>)
  40282c:	f8b3 8000 	ldrh.w	r8, [r3]
  402830:	f1a8 0808 	sub.w	r8, r8, #8
  402834:	fa1f f888 	uxth.w	r8, r8
  402838:	4542      	cmp	r2, r8
  40283a:	d808      	bhi.n	40284e <nm_read_block+0x2e>
  40283c:	2600      	movs	r6, #0
  40283e:	b2aa      	uxth	r2, r5
  402840:	eb09 0106 	add.w	r1, r9, r6
  402844:	4638      	mov	r0, r7
  402846:	4b0d      	ldr	r3, [pc, #52]	; (40287c <nm_read_block+0x5c>)
  402848:	4798      	blx	r3
  40284a:	4603      	mov	r3, r0
  40284c:	e010      	b.n	402870 <nm_read_block+0x50>
  40284e:	4644      	mov	r4, r8
  402850:	2600      	movs	r6, #0
  402852:	f8df a028 	ldr.w	sl, [pc, #40]	; 40287c <nm_read_block+0x5c>
  402856:	4642      	mov	r2, r8
  402858:	eb09 0106 	add.w	r1, r9, r6
  40285c:	4638      	mov	r0, r7
  40285e:	47d0      	blx	sl
  402860:	4603      	mov	r3, r0
  402862:	b928      	cbnz	r0, 402870 <nm_read_block+0x50>
  402864:	1b2d      	subs	r5, r5, r4
  402866:	4426      	add	r6, r4
  402868:	4427      	add	r7, r4
  40286a:	42a5      	cmp	r5, r4
  40286c:	d8f3      	bhi.n	402856 <nm_read_block+0x36>
  40286e:	e7e6      	b.n	40283e <nm_read_block+0x1e>
  402870:	4618      	mov	r0, r3
  402872:	e8bd 87f0 	ldmia.w	sp!, {r4, r5, r6, r7, r8, r9, sl, pc}
  402876:	bf00      	nop
  402878:	20400030 	.word	0x20400030
  40287c:	004031a1 	.word	0x004031a1

00402880 <nm_write_block>:
  402880:	e92d 47f0 	stmdb	sp!, {r4, r5, r6, r7, r8, r9, sl, lr}
  402884:	4607      	mov	r7, r0
  402886:	4689      	mov	r9, r1
  402888:	4615      	mov	r5, r2
  40288a:	4b13      	ldr	r3, [pc, #76]	; (4028d8 <nm_write_block+0x58>)
  40288c:	f8b3 8000 	ldrh.w	r8, [r3]
  402890:	f1a8 0808 	sub.w	r8, r8, #8
  402894:	fa1f f888 	uxth.w	r8, r8
  402898:	4542      	cmp	r2, r8
  40289a:	d808      	bhi.n	4028ae <nm_write_block+0x2e>
  40289c:	2600      	movs	r6, #0
  40289e:	b2aa      	uxth	r2, r5
  4028a0:	eb09 0106 	add.w	r1, r9, r6
  4028a4:	4638      	mov	r0, r7
  4028a6:	4b0d      	ldr	r3, [pc, #52]	; (4028dc <nm_write_block+0x5c>)
  4028a8:	4798      	blx	r3
  4028aa:	4603      	mov	r3, r0
  4028ac:	e010      	b.n	4028d0 <nm_write_block+0x50>
  4028ae:	4644      	mov	r4, r8
  4028b0:	2600      	movs	r6, #0
  4028b2:	f8df a028 	ldr.w	sl, [pc, #40]	; 4028dc <nm_write_block+0x5c>
  4028b6:	4642      	mov	r2, r8
  4028b8:	eb09 0106 	add.w	r1, r9, r6
  4028bc:	4638      	mov	r0, r7
  4028be:	47d0      	blx	sl
  4028c0:	4603      	mov	r3, r0
  4028c2:	b928      	cbnz	r0, 4028d0 <nm_write_block+0x50>
  4028c4:	1b2d      	subs	r5, r5, r4
  4028c6:	4426      	add	r6, r4
  4028c8:	4427      	add	r7, r4
  4028ca:	42a5      	cmp	r5, r4
  4028cc:	d8f3      	bhi.n	4028b6 <nm_write_block+0x36>
  4028ce:	e7e6      	b.n	40289e <nm_write_block+0x1e>
  4028d0:	4618      	mov	r0, r3
  4028d2:	e8bd 87f0 	ldmia.w	sp!, {r4, r5, r6, r7, r8, r9, sl, pc}
  4028d6:	bf00      	nop
  4028d8:	20400030 	.word	0x20400030
  4028dc:	0040326d 	.word	0x0040326d

004028e0 <nm_get_firmware_info>:
  4028e0:	b530      	push	{r4, r5, lr}
  4028e2:	b083      	sub	sp, #12
  4028e4:	4604      	mov	r4, r0
  4028e6:	a902      	add	r1, sp, #8
  4028e8:	2300      	movs	r3, #0
  4028ea:	f841 3d04 	str.w	r3, [r1, #-4]!
  4028ee:	4823      	ldr	r0, [pc, #140]	; (40297c <nm_get_firmware_info+0x9c>)
  4028f0:	4b23      	ldr	r3, [pc, #140]	; (402980 <nm_get_firmware_info+0xa0>)
  4028f2:	4798      	blx	r3
  4028f4:	4605      	mov	r5, r0
  4028f6:	9a01      	ldr	r2, [sp, #4]
  4028f8:	4b22      	ldr	r3, [pc, #136]	; (402984 <nm_get_firmware_info+0xa4>)
  4028fa:	429a      	cmp	r2, r3
  4028fc:	d105      	bne.n	40290a <nm_get_firmware_info+0x2a>
  4028fe:	a901      	add	r1, sp, #4
  402900:	f241 0048 	movw	r0, #4168	; 0x1048
  402904:	4b1e      	ldr	r3, [pc, #120]	; (402980 <nm_get_firmware_info+0xa0>)
  402906:	4798      	blx	r3
  402908:	4605      	mov	r5, r0
  40290a:	9b01      	ldr	r3, [sp, #4]
  40290c:	0c1a      	lsrs	r2, r3, #16
  40290e:	1211      	asrs	r1, r2, #8
  402910:	71e1      	strb	r1, [r4, #7]
  402912:	f3c2 1103 	ubfx	r1, r2, #4, #4
  402916:	7221      	strb	r1, [r4, #8]
  402918:	f002 020f 	and.w	r2, r2, #15
  40291c:	7262      	strb	r2, [r4, #9]
  40291e:	121a      	asrs	r2, r3, #8
  402920:	7122      	strb	r2, [r4, #4]
  402922:	f3c3 1203 	ubfx	r2, r3, #4, #4
  402926:	7162      	strb	r2, [r4, #5]
  402928:	f003 030f 	and.w	r3, r3, #15
  40292c:	71a3      	strb	r3, [r4, #6]
  40292e:	4b16      	ldr	r3, [pc, #88]	; (402988 <nm_get_firmware_info+0xa8>)
  402930:	4798      	blx	r3
  402932:	6020      	str	r0, [r4, #0]
  402934:	7922      	ldrb	r2, [r4, #4]
  402936:	79a3      	ldrb	r3, [r4, #6]
  402938:	f003 030f 	and.w	r3, r3, #15
  40293c:	ea43 2202 	orr.w	r2, r3, r2, lsl #8
  402940:	7963      	ldrb	r3, [r4, #5]
  402942:	011b      	lsls	r3, r3, #4
  402944:	b2db      	uxtb	r3, r3
  402946:	4313      	orrs	r3, r2
  402948:	79e1      	ldrb	r1, [r4, #7]
  40294a:	7a62      	ldrb	r2, [r4, #9]
  40294c:	f002 020f 	and.w	r2, r2, #15
  402950:	ea42 2101 	orr.w	r1, r2, r1, lsl #8
  402954:	7a22      	ldrb	r2, [r4, #8]
  402956:	0112      	lsls	r2, r2, #4
  402958:	b2d2      	uxtb	r2, r2
  40295a:	430a      	orrs	r2, r1
  40295c:	f241 3130 	movw	r1, #4912	; 0x1330
  402960:	428a      	cmp	r2, r1
  402962:	bf88      	it	hi
  402964:	f06f 050c 	mvnhi.w	r5, #12
  402968:	f241 322f 	movw	r2, #4911	; 0x132f
  40296c:	4293      	cmp	r3, r2
  40296e:	bf8c      	ite	hi
  402970:	4628      	movhi	r0, r5
  402972:	f06f 000c 	mvnls.w	r0, #12
  402976:	b003      	add	sp, #12
  402978:	bd30      	pop	{r4, r5, pc}
  40297a:	bf00      	nop
  40297c:	000207ac 	.word	0x000207ac
  402980:	00402809 	.word	0x00402809
  402984:	d75dc1c3 	.word	0xd75dc1c3
  402988:	00402511 	.word	0x00402511

0040298c <nm_drv_init>:
  40298c:	b538      	push	{r3, r4, r5, lr}
  40298e:	b130      	cbz	r0, 40299e <nm_drv_init+0x12>
  402990:	7804      	ldrb	r4, [r0, #0]
  402992:	1e63      	subs	r3, r4, #1
  402994:	b2db      	uxtb	r3, r3
  402996:	2b04      	cmp	r3, #4
  402998:	bf28      	it	cs
  40299a:	2401      	movcs	r4, #1
  40299c:	e000      	b.n	4029a0 <nm_drv_init+0x14>
  40299e:	2401      	movs	r4, #1
  4029a0:	2000      	movs	r0, #0
  4029a2:	4b1d      	ldr	r3, [pc, #116]	; (402a18 <nm_drv_init+0x8c>)
  4029a4:	4798      	blx	r3
  4029a6:	4605      	mov	r5, r0
  4029a8:	b150      	cbz	r0, 4029c0 <nm_drv_init+0x34>
  4029aa:	f44f 7292 	mov.w	r2, #292	; 0x124
  4029ae:	491b      	ldr	r1, [pc, #108]	; (402a1c <nm_drv_init+0x90>)
  4029b0:	481b      	ldr	r0, [pc, #108]	; (402a20 <nm_drv_init+0x94>)
  4029b2:	4c1c      	ldr	r4, [pc, #112]	; (402a24 <nm_drv_init+0x98>)
  4029b4:	47a0      	blx	r4
  4029b6:	481c      	ldr	r0, [pc, #112]	; (402a28 <nm_drv_init+0x9c>)
  4029b8:	47a0      	blx	r4
  4029ba:	481c      	ldr	r0, [pc, #112]	; (402a2c <nm_drv_init+0xa0>)
  4029bc:	47a0      	blx	r4
  4029be:	e029      	b.n	402a14 <nm_drv_init+0x88>
  4029c0:	481b      	ldr	r0, [pc, #108]	; (402a30 <nm_drv_init+0xa4>)
  4029c2:	4d18      	ldr	r5, [pc, #96]	; (402a24 <nm_drv_init+0x98>)
  4029c4:	47a8      	blx	r5
  4029c6:	4b1b      	ldr	r3, [pc, #108]	; (402a34 <nm_drv_init+0xa8>)
  4029c8:	4798      	blx	r3
  4029ca:	4601      	mov	r1, r0
  4029cc:	481a      	ldr	r0, [pc, #104]	; (402a38 <nm_drv_init+0xac>)
  4029ce:	47a8      	blx	r5
  4029d0:	4816      	ldr	r0, [pc, #88]	; (402a2c <nm_drv_init+0xa0>)
  4029d2:	47a8      	blx	r5
  4029d4:	4b19      	ldr	r3, [pc, #100]	; (402a3c <nm_drv_init+0xb0>)
  4029d6:	4798      	blx	r3
  4029d8:	4620      	mov	r0, r4
  4029da:	4b19      	ldr	r3, [pc, #100]	; (402a40 <nm_drv_init+0xb4>)
  4029dc:	4798      	blx	r3
  4029de:	4605      	mov	r5, r0
  4029e0:	b9b0      	cbnz	r0, 402a10 <nm_drv_init+0x84>
  4029e2:	4620      	mov	r0, r4
  4029e4:	4b17      	ldr	r3, [pc, #92]	; (402a44 <nm_drv_init+0xb8>)
  4029e6:	4798      	blx	r3
  4029e8:	4605      	mov	r5, r0
  4029ea:	b988      	cbnz	r0, 402a10 <nm_drv_init+0x84>
  4029ec:	3c02      	subs	r4, #2
  4029ee:	b2e4      	uxtb	r4, r4
  4029f0:	2c01      	cmp	r4, #1
  4029f2:	d90f      	bls.n	402a14 <nm_drv_init+0x88>
  4029f4:	4b14      	ldr	r3, [pc, #80]	; (402a48 <nm_drv_init+0xbc>)
  4029f6:	4798      	blx	r3
  4029f8:	4605      	mov	r5, r0
  4029fa:	b158      	cbz	r0, 402a14 <nm_drv_init+0x88>
  4029fc:	f44f 72ae 	mov.w	r2, #348	; 0x15c
  402a00:	4906      	ldr	r1, [pc, #24]	; (402a1c <nm_drv_init+0x90>)
  402a02:	4807      	ldr	r0, [pc, #28]	; (402a20 <nm_drv_init+0x94>)
  402a04:	4c07      	ldr	r4, [pc, #28]	; (402a24 <nm_drv_init+0x98>)
  402a06:	47a0      	blx	r4
  402a08:	4810      	ldr	r0, [pc, #64]	; (402a4c <nm_drv_init+0xc0>)
  402a0a:	47a0      	blx	r4
  402a0c:	4807      	ldr	r0, [pc, #28]	; (402a2c <nm_drv_init+0xa0>)
  402a0e:	47a0      	blx	r4
  402a10:	4b0f      	ldr	r3, [pc, #60]	; (402a50 <nm_drv_init+0xc4>)
  402a12:	4798      	blx	r3
  402a14:	4628      	mov	r0, r5
  402a16:	bd38      	pop	{r3, r4, r5, pc}
  402a18:	004027e5 	.word	0x004027e5
  402a1c:	0040c0e8 	.word	0x0040c0e8
  402a20:	0040b8f8 	.word	0x0040b8f8
  402a24:	00405135 	.word	0x00405135
  402a28:	0040c03c 	.word	0x0040c03c
  402a2c:	0040ca54 	.word	0x0040ca54
  402a30:	0040bbb8 	.word	0x0040bbb8
  402a34:	00402511 	.word	0x00402511
  402a38:	0040c058 	.word	0x0040c058
  402a3c:	00403095 	.word	0x00403095
  402a40:	004025c1 	.word	0x004025c1
  402a44:	0040269d 	.word	0x0040269d
  402a48:	004024a9 	.word	0x004024a9
  402a4c:	0040c068 	.word	0x0040c068
  402a50:	004027f1 	.word	0x004027f1

00402a54 <nm_drv_deinit>:
  402a54:	b538      	push	{r3, r4, r5, lr}
  402a56:	4b19      	ldr	r3, [pc, #100]	; (402abc <nm_drv_deinit+0x68>)
  402a58:	4798      	blx	r3
  402a5a:	b158      	cbz	r0, 402a74 <nm_drv_deinit+0x20>
  402a5c:	4604      	mov	r4, r0
  402a5e:	f44f 72ba 	mov.w	r2, #372	; 0x174
  402a62:	4917      	ldr	r1, [pc, #92]	; (402ac0 <nm_drv_deinit+0x6c>)
  402a64:	4817      	ldr	r0, [pc, #92]	; (402ac4 <nm_drv_deinit+0x70>)
  402a66:	4d18      	ldr	r5, [pc, #96]	; (402ac8 <nm_drv_deinit+0x74>)
  402a68:	47a8      	blx	r5
  402a6a:	4818      	ldr	r0, [pc, #96]	; (402acc <nm_drv_deinit+0x78>)
  402a6c:	47a8      	blx	r5
  402a6e:	4818      	ldr	r0, [pc, #96]	; (402ad0 <nm_drv_deinit+0x7c>)
  402a70:	47a8      	blx	r5
  402a72:	e020      	b.n	402ab6 <nm_drv_deinit+0x62>
  402a74:	2000      	movs	r0, #0
  402a76:	4b17      	ldr	r3, [pc, #92]	; (402ad4 <nm_drv_deinit+0x80>)
  402a78:	4798      	blx	r3
  402a7a:	4604      	mov	r4, r0
  402a7c:	b150      	cbz	r0, 402a94 <nm_drv_deinit+0x40>
  402a7e:	f240 127b 	movw	r2, #379	; 0x17b
  402a82:	490f      	ldr	r1, [pc, #60]	; (402ac0 <nm_drv_deinit+0x6c>)
  402a84:	480f      	ldr	r0, [pc, #60]	; (402ac4 <nm_drv_deinit+0x70>)
  402a86:	4d10      	ldr	r5, [pc, #64]	; (402ac8 <nm_drv_deinit+0x74>)
  402a88:	47a8      	blx	r5
  402a8a:	4813      	ldr	r0, [pc, #76]	; (402ad8 <nm_drv_deinit+0x84>)
  402a8c:	47a8      	blx	r5
  402a8e:	4810      	ldr	r0, [pc, #64]	; (402ad0 <nm_drv_deinit+0x7c>)
  402a90:	47a8      	blx	r5
  402a92:	e010      	b.n	402ab6 <nm_drv_deinit+0x62>
  402a94:	4b11      	ldr	r3, [pc, #68]	; (402adc <nm_drv_deinit+0x88>)
  402a96:	4798      	blx	r3
  402a98:	4604      	mov	r4, r0
  402a9a:	b150      	cbz	r0, 402ab2 <nm_drv_deinit+0x5e>
  402a9c:	f240 1281 	movw	r2, #385	; 0x181
  402aa0:	4907      	ldr	r1, [pc, #28]	; (402ac0 <nm_drv_deinit+0x6c>)
  402aa2:	4808      	ldr	r0, [pc, #32]	; (402ac4 <nm_drv_deinit+0x70>)
  402aa4:	4d08      	ldr	r5, [pc, #32]	; (402ac8 <nm_drv_deinit+0x74>)
  402aa6:	47a8      	blx	r5
  402aa8:	480d      	ldr	r0, [pc, #52]	; (402ae0 <nm_drv_deinit+0x8c>)
  402aaa:	47a8      	blx	r5
  402aac:	4808      	ldr	r0, [pc, #32]	; (402ad0 <nm_drv_deinit+0x7c>)
  402aae:	47a8      	blx	r5
  402ab0:	e001      	b.n	402ab6 <nm_drv_deinit+0x62>
  402ab2:	4b0c      	ldr	r3, [pc, #48]	; (402ae4 <nm_drv_deinit+0x90>)
  402ab4:	4798      	blx	r3
  402ab6:	4620      	mov	r0, r4
  402ab8:	bd38      	pop	{r3, r4, r5, pc}
  402aba:	bf00      	nop
  402abc:	0040271d 	.word	0x0040271d
  402ac0:	0040c0f4 	.word	0x0040c0f4
  402ac4:	0040b8f8 	.word	0x0040b8f8
  402ac8:	00405135 	.word	0x00405135
  402acc:	0040c088 	.word	0x0040c088
  402ad0:	0040ca54 	.word	0x0040ca54
  402ad4:	00403afd 	.word	0x00403afd
  402ad8:	0040c0a8 	.word	0x0040c0a8
  402adc:	004027f1 	.word	0x004027f1
  402ae0:	0040c0cc 	.word	0x0040c0cc
  402ae4:	00403041 	.word	0x00403041

00402ae8 <nmi_spi_read>:
  402ae8:	b500      	push	{lr}
  402aea:	b085      	sub	sp, #20
  402aec:	2300      	movs	r3, #0
  402aee:	9301      	str	r3, [sp, #4]
  402af0:	9002      	str	r0, [sp, #8]
  402af2:	f8ad 100c 	strh.w	r1, [sp, #12]
  402af6:	a901      	add	r1, sp, #4
  402af8:	2003      	movs	r0, #3
  402afa:	4b02      	ldr	r3, [pc, #8]	; (402b04 <nmi_spi_read+0x1c>)
  402afc:	4798      	blx	r3
  402afe:	b005      	add	sp, #20
  402b00:	f85d fb04 	ldr.w	pc, [sp], #4
  402b04:	004013dd 	.word	0x004013dd

00402b08 <spi_cmd_rsp>:
  402b08:	b5f0      	push	{r4, r5, r6, r7, lr}
  402b0a:	b083      	sub	sp, #12
  402b0c:	4605      	mov	r5, r0
  402b0e:	f100 033b 	add.w	r3, r0, #59	; 0x3b
  402b12:	b2db      	uxtb	r3, r3
  402b14:	2b01      	cmp	r3, #1
  402b16:	d901      	bls.n	402b1c <spi_cmd_rsp+0x14>
  402b18:	28cf      	cmp	r0, #207	; 0xcf
  402b1a:	d106      	bne.n	402b2a <spi_cmd_rsp+0x22>
  402b1c:	2101      	movs	r1, #1
  402b1e:	f10d 0007 	add.w	r0, sp, #7
  402b22:	4b22      	ldr	r3, [pc, #136]	; (402bac <spi_cmd_rsp+0xa4>)
  402b24:	4798      	blx	r3
  402b26:	2800      	cmp	r0, #0
  402b28:	d13a      	bne.n	402ba0 <spi_cmd_rsp+0x98>
  402b2a:	240b      	movs	r4, #11
  402b2c:	2701      	movs	r7, #1
  402b2e:	4e1f      	ldr	r6, [pc, #124]	; (402bac <spi_cmd_rsp+0xa4>)
  402b30:	4639      	mov	r1, r7
  402b32:	f10d 0007 	add.w	r0, sp, #7
  402b36:	47b0      	blx	r6
  402b38:	b158      	cbz	r0, 402b52 <spi_cmd_rsp+0x4a>
  402b3a:	f240 1227 	movw	r2, #295	; 0x127
  402b3e:	491c      	ldr	r1, [pc, #112]	; (402bb0 <spi_cmd_rsp+0xa8>)
  402b40:	481c      	ldr	r0, [pc, #112]	; (402bb4 <spi_cmd_rsp+0xac>)
  402b42:	4c1d      	ldr	r4, [pc, #116]	; (402bb8 <spi_cmd_rsp+0xb0>)
  402b44:	47a0      	blx	r4
  402b46:	481d      	ldr	r0, [pc, #116]	; (402bbc <spi_cmd_rsp+0xb4>)
  402b48:	47a0      	blx	r4
  402b4a:	481d      	ldr	r0, [pc, #116]	; (402bc0 <spi_cmd_rsp+0xb8>)
  402b4c:	47a0      	blx	r4
  402b4e:	2000      	movs	r0, #0
  402b50:	e029      	b.n	402ba6 <spi_cmd_rsp+0x9e>
  402b52:	f89d 3007 	ldrb.w	r3, [sp, #7]
  402b56:	42ab      	cmp	r3, r5
  402b58:	d005      	beq.n	402b66 <spi_cmd_rsp+0x5e>
  402b5a:	1e63      	subs	r3, r4, #1
  402b5c:	f013 04ff 	ands.w	r4, r3, #255	; 0xff
  402b60:	d1e6      	bne.n	402b30 <spi_cmd_rsp+0x28>
  402b62:	240b      	movs	r4, #11
  402b64:	e000      	b.n	402b68 <spi_cmd_rsp+0x60>
  402b66:	240b      	movs	r4, #11
  402b68:	2601      	movs	r6, #1
  402b6a:	4d10      	ldr	r5, [pc, #64]	; (402bac <spi_cmd_rsp+0xa4>)
  402b6c:	4631      	mov	r1, r6
  402b6e:	f10d 0007 	add.w	r0, sp, #7
  402b72:	47a8      	blx	r5
  402b74:	b158      	cbz	r0, 402b8e <spi_cmd_rsp+0x86>
  402b76:	f240 1235 	movw	r2, #309	; 0x135
  402b7a:	490d      	ldr	r1, [pc, #52]	; (402bb0 <spi_cmd_rsp+0xa8>)
  402b7c:	480d      	ldr	r0, [pc, #52]	; (402bb4 <spi_cmd_rsp+0xac>)
  402b7e:	4c0e      	ldr	r4, [pc, #56]	; (402bb8 <spi_cmd_rsp+0xb0>)
  402b80:	47a0      	blx	r4
  402b82:	480e      	ldr	r0, [pc, #56]	; (402bbc <spi_cmd_rsp+0xb4>)
  402b84:	47a0      	blx	r4
  402b86:	480e      	ldr	r0, [pc, #56]	; (402bc0 <spi_cmd_rsp+0xb8>)
  402b88:	47a0      	blx	r4
  402b8a:	2000      	movs	r0, #0
  402b8c:	e00b      	b.n	402ba6 <spi_cmd_rsp+0x9e>
  402b8e:	f89d 3007 	ldrb.w	r3, [sp, #7]
  402b92:	b13b      	cbz	r3, 402ba4 <spi_cmd_rsp+0x9c>
  402b94:	1e63      	subs	r3, r4, #1
  402b96:	f013 04ff 	ands.w	r4, r3, #255	; 0xff
  402b9a:	d1e7      	bne.n	402b6c <spi_cmd_rsp+0x64>
  402b9c:	2001      	movs	r0, #1
  402b9e:	e002      	b.n	402ba6 <spi_cmd_rsp+0x9e>
  402ba0:	2000      	movs	r0, #0
  402ba2:	e000      	b.n	402ba6 <spi_cmd_rsp+0x9e>
  402ba4:	2001      	movs	r0, #1
  402ba6:	b003      	add	sp, #12
  402ba8:	bdf0      	pop	{r4, r5, r6, r7, pc}
  402baa:	bf00      	nop
  402bac:	00402ae9 	.word	0x00402ae9
  402bb0:	0040c718 	.word	0x0040c718
  402bb4:	0040b8f8 	.word	0x0040b8f8
  402bb8:	00405135 	.word	0x00405135
  402bbc:	0040c23c 	.word	0x0040c23c
  402bc0:	0040ca54 	.word	0x0040ca54

00402bc4 <spi_data_read>:
  402bc4:	e92d 4ff0 	stmdb	sp!, {r4, r5, r6, r7, r8, r9, sl, fp, lr}
  402bc8:	b083      	sub	sp, #12
  402bca:	4682      	mov	sl, r0
  402bcc:	4689      	mov	r9, r1
  402bce:	4693      	mov	fp, r2
  402bd0:	f04f 0800 	mov.w	r8, #0
  402bd4:	4d35      	ldr	r5, [pc, #212]	; (402cac <spi_data_read+0xe8>)
  402bd6:	f5b9 5f00 	cmp.w	r9, #8192	; 0x2000
  402bda:	bf94      	ite	ls
  402bdc:	fa0f f789 	sxthls.w	r7, r9
  402be0:	f44f 5700 	movhi.w	r7, #8192	; 0x2000
  402be4:	240a      	movs	r4, #10
  402be6:	2601      	movs	r6, #1
  402be8:	4631      	mov	r1, r6
  402bea:	f10d 0003 	add.w	r0, sp, #3
  402bee:	47a8      	blx	r5
  402bf0:	b158      	cbz	r0, 402c0a <spi_data_read+0x46>
  402bf2:	f240 1257 	movw	r2, #343	; 0x157
  402bf6:	492e      	ldr	r1, [pc, #184]	; (402cb0 <spi_data_read+0xec>)
  402bf8:	482e      	ldr	r0, [pc, #184]	; (402cb4 <spi_data_read+0xf0>)
  402bfa:	4c2f      	ldr	r4, [pc, #188]	; (402cb8 <spi_data_read+0xf4>)
  402bfc:	47a0      	blx	r4
  402bfe:	482f      	ldr	r0, [pc, #188]	; (402cbc <spi_data_read+0xf8>)
  402c00:	47a0      	blx	r4
  402c02:	482f      	ldr	r0, [pc, #188]	; (402cc0 <spi_data_read+0xfc>)
  402c04:	47a0      	blx	r4
  402c06:	2000      	movs	r0, #0
  402c08:	e04d      	b.n	402ca6 <spi_data_read+0xe2>
  402c0a:	f89d 3003 	ldrb.w	r3, [sp, #3]
  402c0e:	091b      	lsrs	r3, r3, #4
  402c10:	2b0f      	cmp	r3, #15
  402c12:	d005      	beq.n	402c20 <spi_data_read+0x5c>
  402c14:	3c01      	subs	r4, #1
  402c16:	b224      	sxth	r4, r4
  402c18:	f1b4 3fff 	cmp.w	r4, #4294967295
  402c1c:	d1e4      	bne.n	402be8 <spi_data_read+0x24>
  402c1e:	e001      	b.n	402c24 <spi_data_read+0x60>
  402c20:	2c00      	cmp	r4, #0
  402c22:	dc0d      	bgt.n	402c40 <spi_data_read+0x7c>
  402c24:	f240 1263 	movw	r2, #355	; 0x163
  402c28:	4921      	ldr	r1, [pc, #132]	; (402cb0 <spi_data_read+0xec>)
  402c2a:	4822      	ldr	r0, [pc, #136]	; (402cb4 <spi_data_read+0xf0>)
  402c2c:	4c22      	ldr	r4, [pc, #136]	; (402cb8 <spi_data_read+0xf4>)
  402c2e:	47a0      	blx	r4
  402c30:	f89d 1003 	ldrb.w	r1, [sp, #3]
  402c34:	4823      	ldr	r0, [pc, #140]	; (402cc4 <spi_data_read+0x100>)
  402c36:	47a0      	blx	r4
  402c38:	4821      	ldr	r0, [pc, #132]	; (402cc0 <spi_data_read+0xfc>)
  402c3a:	47a0      	blx	r4
  402c3c:	2000      	movs	r0, #0
  402c3e:	e032      	b.n	402ca6 <spi_data_read+0xe2>
  402c40:	b2bf      	uxth	r7, r7
  402c42:	4639      	mov	r1, r7
  402c44:	eb0a 0008 	add.w	r0, sl, r8
  402c48:	47a8      	blx	r5
  402c4a:	b158      	cbz	r0, 402c64 <spi_data_read+0xa0>
  402c4c:	f44f 72b6 	mov.w	r2, #364	; 0x16c
  402c50:	4917      	ldr	r1, [pc, #92]	; (402cb0 <spi_data_read+0xec>)
  402c52:	4818      	ldr	r0, [pc, #96]	; (402cb4 <spi_data_read+0xf0>)
  402c54:	4c18      	ldr	r4, [pc, #96]	; (402cb8 <spi_data_read+0xf4>)
  402c56:	47a0      	blx	r4
  402c58:	481b      	ldr	r0, [pc, #108]	; (402cc8 <spi_data_read+0x104>)
  402c5a:	47a0      	blx	r4
  402c5c:	4818      	ldr	r0, [pc, #96]	; (402cc0 <spi_data_read+0xfc>)
  402c5e:	47a0      	blx	r4
  402c60:	2000      	movs	r0, #0
  402c62:	e020      	b.n	402ca6 <spi_data_read+0xe2>
  402c64:	f1bb 0f00 	cmp.w	fp, #0
  402c68:	d112      	bne.n	402c90 <spi_data_read+0xcc>
  402c6a:	4b18      	ldr	r3, [pc, #96]	; (402ccc <spi_data_read+0x108>)
  402c6c:	781b      	ldrb	r3, [r3, #0]
  402c6e:	b97b      	cbnz	r3, 402c90 <spi_data_read+0xcc>
  402c70:	2102      	movs	r1, #2
  402c72:	a801      	add	r0, sp, #4
  402c74:	47a8      	blx	r5
  402c76:	b158      	cbz	r0, 402c90 <spi_data_read+0xcc>
  402c78:	f240 1277 	movw	r2, #375	; 0x177
  402c7c:	490c      	ldr	r1, [pc, #48]	; (402cb0 <spi_data_read+0xec>)
  402c7e:	480d      	ldr	r0, [pc, #52]	; (402cb4 <spi_data_read+0xf0>)
  402c80:	4c0d      	ldr	r4, [pc, #52]	; (402cb8 <spi_data_read+0xf4>)
  402c82:	47a0      	blx	r4
  402c84:	4812      	ldr	r0, [pc, #72]	; (402cd0 <spi_data_read+0x10c>)
  402c86:	47a0      	blx	r4
  402c88:	480d      	ldr	r0, [pc, #52]	; (402cc0 <spi_data_read+0xfc>)
  402c8a:	47a0      	blx	r4
  402c8c:	2000      	movs	r0, #0
  402c8e:	e00a      	b.n	402ca6 <spi_data_read+0xe2>
  402c90:	44b8      	add	r8, r7
  402c92:	fa0f f888 	sxth.w	r8, r8
  402c96:	ebc7 0709 	rsb	r7, r7, r9
  402c9a:	fa1f f987 	uxth.w	r9, r7
  402c9e:	f1b9 0f00 	cmp.w	r9, #0
  402ca2:	d198      	bne.n	402bd6 <spi_data_read+0x12>
  402ca4:	2001      	movs	r0, #1
  402ca6:	b003      	add	sp, #12
  402ca8:	e8bd 8ff0 	ldmia.w	sp!, {r4, r5, r6, r7, r8, r9, sl, fp, pc}
  402cac:	00402ae9 	.word	0x00402ae9
  402cb0:	0040c104 	.word	0x0040c104
  402cb4:	0040b8f8 	.word	0x0040b8f8
  402cb8:	00405135 	.word	0x00405135
  402cbc:	0040c270 	.word	0x0040c270
  402cc0:	0040ca54 	.word	0x0040ca54
  402cc4:	0040c2a4 	.word	0x0040c2a4
  402cc8:	0040c2d4 	.word	0x0040c2d4
  402ccc:	20400950 	.word	0x20400950
  402cd0:	0040c308 	.word	0x0040c308

00402cd4 <nmi_spi_write>:
  402cd4:	b500      	push	{lr}
  402cd6:	b085      	sub	sp, #20
  402cd8:	9001      	str	r0, [sp, #4]
  402cda:	2300      	movs	r3, #0
  402cdc:	9302      	str	r3, [sp, #8]
  402cde:	f8ad 100c 	strh.w	r1, [sp, #12]
  402ce2:	a901      	add	r1, sp, #4
  402ce4:	2003      	movs	r0, #3
  402ce6:	4b02      	ldr	r3, [pc, #8]	; (402cf0 <nmi_spi_write+0x1c>)
  402ce8:	4798      	blx	r3
  402cea:	b005      	add	sp, #20
  402cec:	f85d fb04 	ldr.w	pc, [sp], #4
  402cf0:	004013dd 	.word	0x004013dd

00402cf4 <spi_cmd>:
  402cf4:	b570      	push	{r4, r5, r6, lr}
  402cf6:	b084      	sub	sp, #16
  402cf8:	f89d 4020 	ldrb.w	r4, [sp, #32]
  402cfc:	f88d 0004 	strb.w	r0, [sp, #4]
  402d00:	38c1      	subs	r0, #193	; 0xc1
  402d02:	280e      	cmp	r0, #14
  402d04:	f200 80ae 	bhi.w	402e64 <spi_cmd+0x170>
  402d08:	e8df f000 	tbb	[pc, r0]
  402d0c:	125f3e3e 	.word	0x125f3e3e
  402d10:	4d4d2c23 	.word	0x4d4d2c23
  402d14:	acac0878 	.word	0xacac0878
  402d18:	acac      	.short	0xacac
  402d1a:	35          	.byte	0x35
  402d1b:	00          	.byte	0x00
  402d1c:	0c0b      	lsrs	r3, r1, #16
  402d1e:	f88d 3005 	strb.w	r3, [sp, #5]
  402d22:	0a0b      	lsrs	r3, r1, #8
  402d24:	f88d 3006 	strb.w	r3, [sp, #6]
  402d28:	f88d 1007 	strb.w	r1, [sp, #7]
  402d2c:	2105      	movs	r1, #5
  402d2e:	e0a4      	b.n	402e7a <spi_cmd+0x186>
  402d30:	f3c1 2307 	ubfx	r3, r1, #8, #8
  402d34:	b914      	cbnz	r4, 402d3c <spi_cmd+0x48>
  402d36:	f88d 3005 	strb.w	r3, [sp, #5]
  402d3a:	e003      	b.n	402d44 <spi_cmd+0x50>
  402d3c:	f063 037f 	orn	r3, r3, #127	; 0x7f
  402d40:	f88d 3005 	strb.w	r3, [sp, #5]
  402d44:	f88d 1006 	strb.w	r1, [sp, #6]
  402d48:	2300      	movs	r3, #0
  402d4a:	f88d 3007 	strb.w	r3, [sp, #7]
  402d4e:	2105      	movs	r1, #5
  402d50:	e093      	b.n	402e7a <spi_cmd+0x186>
  402d52:	2300      	movs	r3, #0
  402d54:	f88d 3005 	strb.w	r3, [sp, #5]
  402d58:	f88d 3006 	strb.w	r3, [sp, #6]
  402d5c:	f88d 3007 	strb.w	r3, [sp, #7]
  402d60:	2105      	movs	r1, #5
  402d62:	e08a      	b.n	402e7a <spi_cmd+0x186>
  402d64:	2300      	movs	r3, #0
  402d66:	f88d 3005 	strb.w	r3, [sp, #5]
  402d6a:	f88d 3006 	strb.w	r3, [sp, #6]
  402d6e:	f88d 3007 	strb.w	r3, [sp, #7]
  402d72:	2105      	movs	r1, #5
  402d74:	e081      	b.n	402e7a <spi_cmd+0x186>
  402d76:	23ff      	movs	r3, #255	; 0xff
  402d78:	f88d 3005 	strb.w	r3, [sp, #5]
  402d7c:	f88d 3006 	strb.w	r3, [sp, #6]
  402d80:	f88d 3007 	strb.w	r3, [sp, #7]
  402d84:	2105      	movs	r1, #5
  402d86:	e078      	b.n	402e7a <spi_cmd+0x186>
  402d88:	0c0a      	lsrs	r2, r1, #16
  402d8a:	f88d 2005 	strb.w	r2, [sp, #5]
  402d8e:	0a0a      	lsrs	r2, r1, #8
  402d90:	f88d 2006 	strb.w	r2, [sp, #6]
  402d94:	f88d 1007 	strb.w	r1, [sp, #7]
  402d98:	0a1a      	lsrs	r2, r3, #8
  402d9a:	f88d 2008 	strb.w	r2, [sp, #8]
  402d9e:	f88d 3009 	strb.w	r3, [sp, #9]
  402da2:	2107      	movs	r1, #7
  402da4:	e069      	b.n	402e7a <spi_cmd+0x186>
  402da6:	0c0a      	lsrs	r2, r1, #16
  402da8:	f88d 2005 	strb.w	r2, [sp, #5]
  402dac:	0a0a      	lsrs	r2, r1, #8
  402dae:	f88d 2006 	strb.w	r2, [sp, #6]
  402db2:	f88d 1007 	strb.w	r1, [sp, #7]
  402db6:	0c1a      	lsrs	r2, r3, #16
  402db8:	f88d 2008 	strb.w	r2, [sp, #8]
  402dbc:	0a1a      	lsrs	r2, r3, #8
  402dbe:	f88d 2009 	strb.w	r2, [sp, #9]
  402dc2:	f88d 300a 	strb.w	r3, [sp, #10]
  402dc6:	2108      	movs	r1, #8
  402dc8:	e057      	b.n	402e7a <spi_cmd+0x186>
  402dca:	f3c1 2307 	ubfx	r3, r1, #8, #8
  402dce:	b914      	cbnz	r4, 402dd6 <spi_cmd+0xe2>
  402dd0:	f88d 3005 	strb.w	r3, [sp, #5]
  402dd4:	e003      	b.n	402dde <spi_cmd+0xea>
  402dd6:	f063 037f 	orn	r3, r3, #127	; 0x7f
  402dda:	f88d 3005 	strb.w	r3, [sp, #5]
  402dde:	f88d 1006 	strb.w	r1, [sp, #6]
  402de2:	0e13      	lsrs	r3, r2, #24
  402de4:	f88d 3007 	strb.w	r3, [sp, #7]
  402de8:	0c13      	lsrs	r3, r2, #16
  402dea:	f88d 3008 	strb.w	r3, [sp, #8]
  402dee:	0a13      	lsrs	r3, r2, #8
  402df0:	f88d 3009 	strb.w	r3, [sp, #9]
  402df4:	f88d 200a 	strb.w	r2, [sp, #10]
  402df8:	2108      	movs	r1, #8
  402dfa:	e03e      	b.n	402e7a <spi_cmd+0x186>
  402dfc:	0c0b      	lsrs	r3, r1, #16
  402dfe:	f88d 3005 	strb.w	r3, [sp, #5]
  402e02:	0a0b      	lsrs	r3, r1, #8
  402e04:	f88d 3006 	strb.w	r3, [sp, #6]
  402e08:	f88d 1007 	strb.w	r1, [sp, #7]
  402e0c:	0e13      	lsrs	r3, r2, #24
  402e0e:	f88d 3008 	strb.w	r3, [sp, #8]
  402e12:	0c13      	lsrs	r3, r2, #16
  402e14:	f88d 3009 	strb.w	r3, [sp, #9]
  402e18:	0a13      	lsrs	r3, r2, #8
  402e1a:	f88d 300a 	strb.w	r3, [sp, #10]
  402e1e:	f88d 200b 	strb.w	r2, [sp, #11]
  402e22:	2109      	movs	r1, #9
  402e24:	e029      	b.n	402e7a <spi_cmd+0x186>
  402e26:	f812 3b01 	ldrb.w	r3, [r2], #1
  402e2a:	ea83 0340 	eor.w	r3, r3, r0, lsl #1
  402e2e:	5ce0      	ldrb	r0, [r4, r3]
  402e30:	4295      	cmp	r5, r2
  402e32:	d1f8      	bne.n	402e26 <spi_cmd+0x132>
  402e34:	ab04      	add	r3, sp, #16
  402e36:	441e      	add	r6, r3
  402e38:	0043      	lsls	r3, r0, #1
  402e3a:	f806 3c0c 	strb.w	r3, [r6, #-12]
  402e3e:	e001      	b.n	402e44 <spi_cmd+0x150>
  402e40:	3901      	subs	r1, #1
  402e42:	b2c9      	uxtb	r1, r1
  402e44:	a801      	add	r0, sp, #4
  402e46:	4b10      	ldr	r3, [pc, #64]	; (402e88 <spi_cmd+0x194>)
  402e48:	4798      	blx	r3
  402e4a:	b168      	cbz	r0, 402e68 <spi_cmd+0x174>
  402e4c:	f44f 7284 	mov.w	r2, #264	; 0x108
  402e50:	490e      	ldr	r1, [pc, #56]	; (402e8c <spi_cmd+0x198>)
  402e52:	480f      	ldr	r0, [pc, #60]	; (402e90 <spi_cmd+0x19c>)
  402e54:	4c0f      	ldr	r4, [pc, #60]	; (402e94 <spi_cmd+0x1a0>)
  402e56:	47a0      	blx	r4
  402e58:	480f      	ldr	r0, [pc, #60]	; (402e98 <spi_cmd+0x1a4>)
  402e5a:	47a0      	blx	r4
  402e5c:	480f      	ldr	r0, [pc, #60]	; (402e9c <spi_cmd+0x1a8>)
  402e5e:	47a0      	blx	r4
  402e60:	2000      	movs	r0, #0
  402e62:	e00f      	b.n	402e84 <spi_cmd+0x190>
  402e64:	2000      	movs	r0, #0
  402e66:	e00d      	b.n	402e84 <spi_cmd+0x190>
  402e68:	2001      	movs	r0, #1
  402e6a:	e00b      	b.n	402e84 <spi_cmd+0x190>
  402e6c:	1e4e      	subs	r6, r1, #1
  402e6e:	ab01      	add	r3, sp, #4
  402e70:	199d      	adds	r5, r3, r6
  402e72:	207f      	movs	r0, #127	; 0x7f
  402e74:	461a      	mov	r2, r3
  402e76:	4c0a      	ldr	r4, [pc, #40]	; (402ea0 <spi_cmd+0x1ac>)
  402e78:	e7d5      	b.n	402e26 <spi_cmd+0x132>
  402e7a:	4b0a      	ldr	r3, [pc, #40]	; (402ea4 <spi_cmd+0x1b0>)
  402e7c:	781b      	ldrb	r3, [r3, #0]
  402e7e:	2b00      	cmp	r3, #0
  402e80:	d1de      	bne.n	402e40 <spi_cmd+0x14c>
  402e82:	e7f3      	b.n	402e6c <spi_cmd+0x178>
  402e84:	b004      	add	sp, #16
  402e86:	bd70      	pop	{r4, r5, r6, pc}
  402e88:	00402cd5 	.word	0x00402cd5
  402e8c:	0040c700 	.word	0x0040c700
  402e90:	0040b8f8 	.word	0x0040b8f8
  402e94:	00405135 	.word	0x00405135
  402e98:	0040c340 	.word	0x0040c340
  402e9c:	0040ca54 	.word	0x0040ca54
  402ea0:	0040c114 	.word	0x0040c114
  402ea4:	20400950 	.word	0x20400950

00402ea8 <spi_write_reg>:
  402ea8:	b570      	push	{r4, r5, r6, lr}
  402eaa:	b082      	sub	sp, #8
  402eac:	4604      	mov	r4, r0
  402eae:	2831      	cmp	r0, #49	; 0x31
  402eb0:	bf35      	itete	cc
  402eb2:	2301      	movcc	r3, #1
  402eb4:	2300      	movcs	r3, #0
  402eb6:	25c3      	movcc	r5, #195	; 0xc3
  402eb8:	25c9      	movcs	r5, #201	; 0xc9
  402eba:	9300      	str	r3, [sp, #0]
  402ebc:	2304      	movs	r3, #4
  402ebe:	460a      	mov	r2, r1
  402ec0:	4601      	mov	r1, r0
  402ec2:	4628      	mov	r0, r5
  402ec4:	4e16      	ldr	r6, [pc, #88]	; (402f20 <spi_write_reg+0x78>)
  402ec6:	47b0      	blx	r6
  402ec8:	2801      	cmp	r0, #1
  402eca:	d00c      	beq.n	402ee6 <spi_write_reg+0x3e>
  402ecc:	f240 12eb 	movw	r2, #491	; 0x1eb
  402ed0:	4914      	ldr	r1, [pc, #80]	; (402f24 <spi_write_reg+0x7c>)
  402ed2:	4815      	ldr	r0, [pc, #84]	; (402f28 <spi_write_reg+0x80>)
  402ed4:	4d15      	ldr	r5, [pc, #84]	; (402f2c <spi_write_reg+0x84>)
  402ed6:	47a8      	blx	r5
  402ed8:	4621      	mov	r1, r4
  402eda:	4815      	ldr	r0, [pc, #84]	; (402f30 <spi_write_reg+0x88>)
  402edc:	47a8      	blx	r5
  402ede:	4815      	ldr	r0, [pc, #84]	; (402f34 <spi_write_reg+0x8c>)
  402ee0:	47a8      	blx	r5
  402ee2:	2000      	movs	r0, #0
  402ee4:	e01a      	b.n	402f1c <spi_write_reg+0x74>
  402ee6:	4628      	mov	r0, r5
  402ee8:	4b13      	ldr	r3, [pc, #76]	; (402f38 <spi_write_reg+0x90>)
  402eea:	4798      	blx	r3
  402eec:	2801      	cmp	r0, #1
  402eee:	d014      	beq.n	402f1a <spi_write_reg+0x72>
  402ef0:	f240 12f1 	movw	r2, #497	; 0x1f1
  402ef4:	490b      	ldr	r1, [pc, #44]	; (402f24 <spi_write_reg+0x7c>)
  402ef6:	480c      	ldr	r0, [pc, #48]	; (402f28 <spi_write_reg+0x80>)
  402ef8:	4d0c      	ldr	r5, [pc, #48]	; (402f2c <spi_write_reg+0x84>)
  402efa:	47a8      	blx	r5
  402efc:	4621      	mov	r1, r4
  402efe:	480f      	ldr	r0, [pc, #60]	; (402f3c <spi_write_reg+0x94>)
  402f00:	47a8      	blx	r5
  402f02:	480c      	ldr	r0, [pc, #48]	; (402f34 <spi_write_reg+0x8c>)
  402f04:	47a8      	blx	r5
  402f06:	2400      	movs	r4, #0
  402f08:	9400      	str	r4, [sp, #0]
  402f0a:	4623      	mov	r3, r4
  402f0c:	4622      	mov	r2, r4
  402f0e:	4621      	mov	r1, r4
  402f10:	20cf      	movs	r0, #207	; 0xcf
  402f12:	4d03      	ldr	r5, [pc, #12]	; (402f20 <spi_write_reg+0x78>)
  402f14:	47a8      	blx	r5
  402f16:	4620      	mov	r0, r4
  402f18:	e000      	b.n	402f1c <spi_write_reg+0x74>
  402f1a:	2001      	movs	r0, #1
  402f1c:	b002      	add	sp, #8
  402f1e:	bd70      	pop	{r4, r5, r6, pc}
  402f20:	00402cf5 	.word	0x00402cf5
  402f24:	0040c6f0 	.word	0x0040c6f0
  402f28:	0040b8f8 	.word	0x0040b8f8
  402f2c:	00405135 	.word	0x00405135
  402f30:	0040c36c 	.word	0x0040c36c
  402f34:	0040ca54 	.word	0x0040ca54
  402f38:	00402b09 	.word	0x00402b09
  402f3c:	0040c398 	.word	0x0040c398

00402f40 <spi_read_reg>:
  402f40:	e92d 41f0 	stmdb	sp!, {r4, r5, r6, r7, r8, lr}
  402f44:	b084      	sub	sp, #16
  402f46:	4604      	mov	r4, r0
  402f48:	4688      	mov	r8, r1
  402f4a:	f5b0 7f80 	cmp.w	r0, #256	; 0x100
  402f4e:	bf35      	itete	cc
  402f50:	2601      	movcc	r6, #1
  402f52:	2600      	movcs	r6, #0
  402f54:	25c4      	movcc	r5, #196	; 0xc4
  402f56:	25ca      	movcs	r5, #202	; 0xca
  402f58:	9600      	str	r6, [sp, #0]
  402f5a:	2304      	movs	r3, #4
  402f5c:	2200      	movs	r2, #0
  402f5e:	4601      	mov	r1, r0
  402f60:	4628      	mov	r0, r5
  402f62:	4f2d      	ldr	r7, [pc, #180]	; (403018 <spi_read_reg+0xd8>)
  402f64:	47b8      	blx	r7
  402f66:	2801      	cmp	r0, #1
  402f68:	d00c      	beq.n	402f84 <spi_read_reg+0x44>
  402f6a:	f240 2245 	movw	r2, #581	; 0x245
  402f6e:	492b      	ldr	r1, [pc, #172]	; (40301c <spi_read_reg+0xdc>)
  402f70:	482b      	ldr	r0, [pc, #172]	; (403020 <spi_read_reg+0xe0>)
  402f72:	4d2c      	ldr	r5, [pc, #176]	; (403024 <spi_read_reg+0xe4>)
  402f74:	47a8      	blx	r5
  402f76:	4621      	mov	r1, r4
  402f78:	482b      	ldr	r0, [pc, #172]	; (403028 <spi_read_reg+0xe8>)
  402f7a:	47a8      	blx	r5
  402f7c:	482b      	ldr	r0, [pc, #172]	; (40302c <spi_read_reg+0xec>)
  402f7e:	47a8      	blx	r5
  402f80:	2000      	movs	r0, #0
  402f82:	e045      	b.n	403010 <spi_read_reg+0xd0>
  402f84:	4628      	mov	r0, r5
  402f86:	4b2a      	ldr	r3, [pc, #168]	; (403030 <spi_read_reg+0xf0>)
  402f88:	4798      	blx	r3
  402f8a:	2801      	cmp	r0, #1
  402f8c:	d014      	beq.n	402fb8 <spi_read_reg+0x78>
  402f8e:	f240 224b 	movw	r2, #587	; 0x24b
  402f92:	4922      	ldr	r1, [pc, #136]	; (40301c <spi_read_reg+0xdc>)
  402f94:	4822      	ldr	r0, [pc, #136]	; (403020 <spi_read_reg+0xe0>)
  402f96:	4d23      	ldr	r5, [pc, #140]	; (403024 <spi_read_reg+0xe4>)
  402f98:	47a8      	blx	r5
  402f9a:	4621      	mov	r1, r4
  402f9c:	4825      	ldr	r0, [pc, #148]	; (403034 <spi_read_reg+0xf4>)
  402f9e:	47a8      	blx	r5
  402fa0:	4822      	ldr	r0, [pc, #136]	; (40302c <spi_read_reg+0xec>)
  402fa2:	47a8      	blx	r5
  402fa4:	2400      	movs	r4, #0
  402fa6:	9400      	str	r4, [sp, #0]
  402fa8:	4623      	mov	r3, r4
  402faa:	4622      	mov	r2, r4
  402fac:	4621      	mov	r1, r4
  402fae:	20cf      	movs	r0, #207	; 0xcf
  402fb0:	4d19      	ldr	r5, [pc, #100]	; (403018 <spi_read_reg+0xd8>)
  402fb2:	47a8      	blx	r5
  402fb4:	4620      	mov	r0, r4
  402fb6:	e02b      	b.n	403010 <spi_read_reg+0xd0>
  402fb8:	4632      	mov	r2, r6
  402fba:	2104      	movs	r1, #4
  402fbc:	a803      	add	r0, sp, #12
  402fbe:	4b1e      	ldr	r3, [pc, #120]	; (403038 <spi_read_reg+0xf8>)
  402fc0:	4798      	blx	r3
  402fc2:	2801      	cmp	r0, #1
  402fc4:	d013      	beq.n	402fee <spi_read_reg+0xae>
  402fc6:	f240 2253 	movw	r2, #595	; 0x253
  402fca:	4914      	ldr	r1, [pc, #80]	; (40301c <spi_read_reg+0xdc>)
  402fcc:	4814      	ldr	r0, [pc, #80]	; (403020 <spi_read_reg+0xe0>)
  402fce:	4c15      	ldr	r4, [pc, #84]	; (403024 <spi_read_reg+0xe4>)
  402fd0:	47a0      	blx	r4
  402fd2:	481a      	ldr	r0, [pc, #104]	; (40303c <spi_read_reg+0xfc>)
  402fd4:	47a0      	blx	r4
  402fd6:	4815      	ldr	r0, [pc, #84]	; (40302c <spi_read_reg+0xec>)
  402fd8:	47a0      	blx	r4
  402fda:	2400      	movs	r4, #0
  402fdc:	9400      	str	r4, [sp, #0]
  402fde:	4623      	mov	r3, r4
  402fe0:	4622      	mov	r2, r4
  402fe2:	4621      	mov	r1, r4
  402fe4:	20cf      	movs	r0, #207	; 0xcf
  402fe6:	4d0c      	ldr	r5, [pc, #48]	; (403018 <spi_read_reg+0xd8>)
  402fe8:	47a8      	blx	r5
  402fea:	4620      	mov	r0, r4
  402fec:	e010      	b.n	403010 <spi_read_reg+0xd0>
  402fee:	f89d 100d 	ldrb.w	r1, [sp, #13]
  402ff2:	f89d 200e 	ldrb.w	r2, [sp, #14]
  402ff6:	0413      	lsls	r3, r2, #16
  402ff8:	ea43 2201 	orr.w	r2, r3, r1, lsl #8
  402ffc:	f89d 300c 	ldrb.w	r3, [sp, #12]
  403000:	4313      	orrs	r3, r2
  403002:	f89d 200f 	ldrb.w	r2, [sp, #15]
  403006:	ea43 6302 	orr.w	r3, r3, r2, lsl #24
  40300a:	f8c8 3000 	str.w	r3, [r8]
  40300e:	2001      	movs	r0, #1
  403010:	b004      	add	sp, #16
  403012:	e8bd 81f0 	ldmia.w	sp!, {r4, r5, r6, r7, r8, pc}
  403016:	bf00      	nop
  403018:	00402cf5 	.word	0x00402cf5
  40301c:	0040c724 	.word	0x0040c724
  403020:	0040b8f8 	.word	0x0040b8f8
  403024:	00405135 	.word	0x00405135
  403028:	0040c3d0 	.word	0x0040c3d0
  40302c:	0040ca54 	.word	0x0040ca54
  403030:	00402b09 	.word	0x00402b09
  403034:	0040c3fc 	.word	0x0040c3fc
  403038:	00402bc5 	.word	0x00402bc5
  40303c:	0040c430 	.word	0x0040c430

00403040 <nm_spi_deinit>:
  403040:	2000      	movs	r0, #0
  403042:	4b01      	ldr	r3, [pc, #4]	; (403048 <nm_spi_deinit+0x8>)
  403044:	7018      	strb	r0, [r3, #0]
  403046:	4770      	bx	lr
  403048:	20400950 	.word	0x20400950

0040304c <nm_spi_read_reg>:
  40304c:	b500      	push	{lr}
  40304e:	b083      	sub	sp, #12
  403050:	a901      	add	r1, sp, #4
  403052:	4b03      	ldr	r3, [pc, #12]	; (403060 <nm_spi_read_reg+0x14>)
  403054:	4798      	blx	r3
  403056:	9801      	ldr	r0, [sp, #4]
  403058:	b003      	add	sp, #12
  40305a:	f85d fb04 	ldr.w	pc, [sp], #4
  40305e:	bf00      	nop
  403060:	00402f41 	.word	0x00402f41

00403064 <nm_spi_read_reg_with_ret>:
  403064:	b508      	push	{r3, lr}
  403066:	4b04      	ldr	r3, [pc, #16]	; (403078 <nm_spi_read_reg_with_ret+0x14>)
  403068:	4798      	blx	r3
  40306a:	2801      	cmp	r0, #1
  40306c:	bf0c      	ite	eq
  40306e:	2000      	moveq	r0, #0
  403070:	f06f 0005 	mvnne.w	r0, #5
  403074:	bd08      	pop	{r3, pc}
  403076:	bf00      	nop
  403078:	00402f41 	.word	0x00402f41

0040307c <nm_spi_write_reg>:
  40307c:	b508      	push	{r3, lr}
  40307e:	4b04      	ldr	r3, [pc, #16]	; (403090 <nm_spi_write_reg+0x14>)
  403080:	4798      	blx	r3
  403082:	2801      	cmp	r0, #1
  403084:	bf0c      	ite	eq
  403086:	2000      	moveq	r0, #0
  403088:	f06f 0005 	mvnne.w	r0, #5
  40308c:	bd08      	pop	{r3, pc}
  40308e:	bf00      	nop
  403090:	00402ea9 	.word	0x00402ea9

00403094 <nm_spi_init>:
  403094:	b530      	push	{r4, r5, lr}
  403096:	b083      	sub	sp, #12
  403098:	2300      	movs	r3, #0
  40309a:	a902      	add	r1, sp, #8
  40309c:	f841 3d08 	str.w	r3, [r1, #-8]!
  4030a0:	4a32      	ldr	r2, [pc, #200]	; (40316c <nm_spi_init+0xd8>)
  4030a2:	7013      	strb	r3, [r2, #0]
  4030a4:	f64e 0024 	movw	r0, #59428	; 0xe824
  4030a8:	4b31      	ldr	r3, [pc, #196]	; (403170 <nm_spi_init+0xdc>)
  4030aa:	4798      	blx	r3
  4030ac:	b9f0      	cbnz	r0, 4030ec <nm_spi_init+0x58>
  4030ae:	2201      	movs	r2, #1
  4030b0:	4b2e      	ldr	r3, [pc, #184]	; (40316c <nm_spi_init+0xd8>)
  4030b2:	701a      	strb	r2, [r3, #0]
  4030b4:	f240 22c5 	movw	r2, #709	; 0x2c5
  4030b8:	492e      	ldr	r1, [pc, #184]	; (403174 <nm_spi_init+0xe0>)
  4030ba:	482f      	ldr	r0, [pc, #188]	; (403178 <nm_spi_init+0xe4>)
  4030bc:	4c2f      	ldr	r4, [pc, #188]	; (40317c <nm_spi_init+0xe8>)
  4030be:	47a0      	blx	r4
  4030c0:	482f      	ldr	r0, [pc, #188]	; (403180 <nm_spi_init+0xec>)
  4030c2:	47a0      	blx	r4
  4030c4:	482f      	ldr	r0, [pc, #188]	; (403184 <nm_spi_init+0xf0>)
  4030c6:	47a0      	blx	r4
  4030c8:	4669      	mov	r1, sp
  4030ca:	f64e 0024 	movw	r0, #59428	; 0xe824
  4030ce:	4b28      	ldr	r3, [pc, #160]	; (403170 <nm_spi_init+0xdc>)
  4030d0:	4798      	blx	r3
  4030d2:	4604      	mov	r4, r0
  4030d4:	b950      	cbnz	r0, 4030ec <nm_spi_init+0x58>
  4030d6:	f44f 7232 	mov.w	r2, #712	; 0x2c8
  4030da:	4926      	ldr	r1, [pc, #152]	; (403174 <nm_spi_init+0xe0>)
  4030dc:	4826      	ldr	r0, [pc, #152]	; (403178 <nm_spi_init+0xe4>)
  4030de:	4d27      	ldr	r5, [pc, #156]	; (40317c <nm_spi_init+0xe8>)
  4030e0:	47a8      	blx	r5
  4030e2:	4829      	ldr	r0, [pc, #164]	; (403188 <nm_spi_init+0xf4>)
  4030e4:	47a8      	blx	r5
  4030e6:	4827      	ldr	r0, [pc, #156]	; (403184 <nm_spi_init+0xf0>)
  4030e8:	47a8      	blx	r5
  4030ea:	e03c      	b.n	403166 <nm_spi_init+0xd2>
  4030ec:	4b1f      	ldr	r3, [pc, #124]	; (40316c <nm_spi_init+0xd8>)
  4030ee:	781b      	ldrb	r3, [r3, #0]
  4030f0:	b9cb      	cbnz	r3, 403126 <nm_spi_init+0x92>
  4030f2:	9900      	ldr	r1, [sp, #0]
  4030f4:	f021 017c 	bic.w	r1, r1, #124	; 0x7c
  4030f8:	f041 0150 	orr.w	r1, r1, #80	; 0x50
  4030fc:	9100      	str	r1, [sp, #0]
  4030fe:	f64e 0024 	movw	r0, #59428	; 0xe824
  403102:	4b22      	ldr	r3, [pc, #136]	; (40318c <nm_spi_init+0xf8>)
  403104:	4798      	blx	r3
  403106:	4604      	mov	r4, r0
  403108:	b950      	cbnz	r0, 403120 <nm_spi_init+0x8c>
  40310a:	f240 22d2 	movw	r2, #722	; 0x2d2
  40310e:	4919      	ldr	r1, [pc, #100]	; (403174 <nm_spi_init+0xe0>)
  403110:	4819      	ldr	r0, [pc, #100]	; (403178 <nm_spi_init+0xe4>)
  403112:	4d1a      	ldr	r5, [pc, #104]	; (40317c <nm_spi_init+0xe8>)
  403114:	47a8      	blx	r5
  403116:	481e      	ldr	r0, [pc, #120]	; (403190 <nm_spi_init+0xfc>)
  403118:	47a8      	blx	r5
  40311a:	481a      	ldr	r0, [pc, #104]	; (403184 <nm_spi_init+0xf0>)
  40311c:	47a8      	blx	r5
  40311e:	e022      	b.n	403166 <nm_spi_init+0xd2>
  403120:	2201      	movs	r2, #1
  403122:	4b12      	ldr	r3, [pc, #72]	; (40316c <nm_spi_init+0xd8>)
  403124:	701a      	strb	r2, [r3, #0]
  403126:	a901      	add	r1, sp, #4
  403128:	f44f 5080 	mov.w	r0, #4096	; 0x1000
  40312c:	4b10      	ldr	r3, [pc, #64]	; (403170 <nm_spi_init+0xdc>)
  40312e:	4798      	blx	r3
  403130:	b960      	cbnz	r0, 40314c <nm_spi_init+0xb8>
  403132:	f44f 7237 	mov.w	r2, #732	; 0x2dc
  403136:	490f      	ldr	r1, [pc, #60]	; (403174 <nm_spi_init+0xe0>)
  403138:	480f      	ldr	r0, [pc, #60]	; (403178 <nm_spi_init+0xe4>)
  40313a:	4c10      	ldr	r4, [pc, #64]	; (40317c <nm_spi_init+0xe8>)
  40313c:	47a0      	blx	r4
  40313e:	4815      	ldr	r0, [pc, #84]	; (403194 <nm_spi_init+0x100>)
  403140:	47a0      	blx	r4
  403142:	4810      	ldr	r0, [pc, #64]	; (403184 <nm_spi_init+0xf0>)
  403144:	47a0      	blx	r4
  403146:	f06f 0405 	mvn.w	r4, #5
  40314a:	e00c      	b.n	403166 <nm_spi_init+0xd2>
  40314c:	f64e 0024 	movw	r0, #59428	; 0xe824
  403150:	4b11      	ldr	r3, [pc, #68]	; (403198 <nm_spi_init+0x104>)
  403152:	4798      	blx	r3
  403154:	f020 0170 	bic.w	r1, r0, #112	; 0x70
  403158:	f041 0150 	orr.w	r1, r1, #80	; 0x50
  40315c:	f64e 0024 	movw	r0, #59428	; 0xe824
  403160:	4b0e      	ldr	r3, [pc, #56]	; (40319c <nm_spi_init+0x108>)
  403162:	4798      	blx	r3
  403164:	2400      	movs	r4, #0
  403166:	4620      	mov	r0, r4
  403168:	b003      	add	sp, #12
  40316a:	bd30      	pop	{r4, r5, pc}
  40316c:	20400950 	.word	0x20400950
  403170:	00402f41 	.word	0x00402f41
  403174:	0040c214 	.word	0x0040c214
  403178:	0040b8f8 	.word	0x0040b8f8
  40317c:	00405135 	.word	0x00405135
  403180:	0040c450 	.word	0x0040c450
  403184:	0040ca54 	.word	0x0040ca54
  403188:	0040c4a0 	.word	0x0040c4a0
  40318c:	00402ea9 	.word	0x00402ea9
  403190:	0040c4d0 	.word	0x0040c4d0
  403194:	0040c504 	.word	0x0040c504
  403198:	0040304d 	.word	0x0040304d
  40319c:	0040307d 	.word	0x0040307d

004031a0 <nm_spi_read_block>:
  4031a0:	b5f0      	push	{r4, r5, r6, r7, lr}
  4031a2:	b083      	sub	sp, #12
  4031a4:	4604      	mov	r4, r0
  4031a6:	460f      	mov	r7, r1
  4031a8:	4615      	mov	r5, r2
  4031aa:	2200      	movs	r2, #0
  4031ac:	9200      	str	r2, [sp, #0]
  4031ae:	462b      	mov	r3, r5
  4031b0:	4601      	mov	r1, r0
  4031b2:	20c8      	movs	r0, #200	; 0xc8
  4031b4:	4e23      	ldr	r6, [pc, #140]	; (403244 <nm_spi_read_block+0xa4>)
  4031b6:	47b0      	blx	r6
  4031b8:	2801      	cmp	r0, #1
  4031ba:	d00b      	beq.n	4031d4 <nm_spi_read_block+0x34>
  4031bc:	f44f 721d 	mov.w	r2, #628	; 0x274
  4031c0:	4921      	ldr	r1, [pc, #132]	; (403248 <nm_spi_read_block+0xa8>)
  4031c2:	4822      	ldr	r0, [pc, #136]	; (40324c <nm_spi_read_block+0xac>)
  4031c4:	4d22      	ldr	r5, [pc, #136]	; (403250 <nm_spi_read_block+0xb0>)
  4031c6:	47a8      	blx	r5
  4031c8:	4621      	mov	r1, r4
  4031ca:	4822      	ldr	r0, [pc, #136]	; (403254 <nm_spi_read_block+0xb4>)
  4031cc:	47a8      	blx	r5
  4031ce:	4822      	ldr	r0, [pc, #136]	; (403258 <nm_spi_read_block+0xb8>)
  4031d0:	47a8      	blx	r5
  4031d2:	e032      	b.n	40323a <nm_spi_read_block+0x9a>
  4031d4:	20c8      	movs	r0, #200	; 0xc8
  4031d6:	4b21      	ldr	r3, [pc, #132]	; (40325c <nm_spi_read_block+0xbc>)
  4031d8:	4798      	blx	r3
  4031da:	2801      	cmp	r0, #1
  4031dc:	d012      	beq.n	403204 <nm_spi_read_block+0x64>
  4031de:	f240 227a 	movw	r2, #634	; 0x27a
  4031e2:	4919      	ldr	r1, [pc, #100]	; (403248 <nm_spi_read_block+0xa8>)
  4031e4:	4819      	ldr	r0, [pc, #100]	; (40324c <nm_spi_read_block+0xac>)
  4031e6:	4d1a      	ldr	r5, [pc, #104]	; (403250 <nm_spi_read_block+0xb0>)
  4031e8:	47a8      	blx	r5
  4031ea:	4621      	mov	r1, r4
  4031ec:	481c      	ldr	r0, [pc, #112]	; (403260 <nm_spi_read_block+0xc0>)
  4031ee:	47a8      	blx	r5
  4031f0:	4819      	ldr	r0, [pc, #100]	; (403258 <nm_spi_read_block+0xb8>)
  4031f2:	47a8      	blx	r5
  4031f4:	2100      	movs	r1, #0
  4031f6:	9100      	str	r1, [sp, #0]
  4031f8:	460b      	mov	r3, r1
  4031fa:	460a      	mov	r2, r1
  4031fc:	20cf      	movs	r0, #207	; 0xcf
  4031fe:	4c11      	ldr	r4, [pc, #68]	; (403244 <nm_spi_read_block+0xa4>)
  403200:	47a0      	blx	r4
  403202:	e01a      	b.n	40323a <nm_spi_read_block+0x9a>
  403204:	2200      	movs	r2, #0
  403206:	4629      	mov	r1, r5
  403208:	4638      	mov	r0, r7
  40320a:	4b16      	ldr	r3, [pc, #88]	; (403264 <nm_spi_read_block+0xc4>)
  40320c:	4798      	blx	r3
  40320e:	2801      	cmp	r0, #1
  403210:	d011      	beq.n	403236 <nm_spi_read_block+0x96>
  403212:	f44f 7221 	mov.w	r2, #644	; 0x284
  403216:	490c      	ldr	r1, [pc, #48]	; (403248 <nm_spi_read_block+0xa8>)
  403218:	480c      	ldr	r0, [pc, #48]	; (40324c <nm_spi_read_block+0xac>)
  40321a:	4c0d      	ldr	r4, [pc, #52]	; (403250 <nm_spi_read_block+0xb0>)
  40321c:	47a0      	blx	r4
  40321e:	4812      	ldr	r0, [pc, #72]	; (403268 <nm_spi_read_block+0xc8>)
  403220:	47a0      	blx	r4
  403222:	480d      	ldr	r0, [pc, #52]	; (403258 <nm_spi_read_block+0xb8>)
  403224:	47a0      	blx	r4
  403226:	2100      	movs	r1, #0
  403228:	9100      	str	r1, [sp, #0]
  40322a:	460b      	mov	r3, r1
  40322c:	460a      	mov	r2, r1
  40322e:	20cf      	movs	r0, #207	; 0xcf
  403230:	4c04      	ldr	r4, [pc, #16]	; (403244 <nm_spi_read_block+0xa4>)
  403232:	47a0      	blx	r4
  403234:	e001      	b.n	40323a <nm_spi_read_block+0x9a>
  403236:	2000      	movs	r0, #0
  403238:	e001      	b.n	40323e <nm_spi_read_block+0x9e>
  40323a:	f06f 0005 	mvn.w	r0, #5
  40323e:	b003      	add	sp, #12
  403240:	bdf0      	pop	{r4, r5, r6, r7, pc}
  403242:	bf00      	nop
  403244:	00402cf5 	.word	0x00402cf5
  403248:	0040c230 	.word	0x0040c230
  40324c:	0040b8f8 	.word	0x0040b8f8
  403250:	00405135 	.word	0x00405135
  403254:	0040c52c 	.word	0x0040c52c
  403258:	0040ca54 	.word	0x0040ca54
  40325c:	00402b09 	.word	0x00402b09
  403260:	0040c55c 	.word	0x0040c55c
  403264:	00402bc5 	.word	0x00402bc5
  403268:	0040c594 	.word	0x0040c594

0040326c <nm_spi_write_block>:
  40326c:	e92d 43f0 	stmdb	sp!, {r4, r5, r6, r7, r8, r9, lr}
  403270:	b085      	sub	sp, #20
  403272:	4604      	mov	r4, r0
  403274:	4688      	mov	r8, r1
  403276:	4615      	mov	r5, r2
  403278:	2200      	movs	r2, #0
  40327a:	9200      	str	r2, [sp, #0]
  40327c:	462b      	mov	r3, r5
  40327e:	4601      	mov	r1, r0
  403280:	20c7      	movs	r0, #199	; 0xc7
  403282:	4e4c      	ldr	r6, [pc, #304]	; (4033b4 <nm_spi_write_block+0x148>)
  403284:	47b0      	blx	r6
  403286:	2801      	cmp	r0, #1
  403288:	d00b      	beq.n	4032a2 <nm_spi_write_block+0x36>
  40328a:	f240 220f 	movw	r2, #527	; 0x20f
  40328e:	494a      	ldr	r1, [pc, #296]	; (4033b8 <nm_spi_write_block+0x14c>)
  403290:	484a      	ldr	r0, [pc, #296]	; (4033bc <nm_spi_write_block+0x150>)
  403292:	4d4b      	ldr	r5, [pc, #300]	; (4033c0 <nm_spi_write_block+0x154>)
  403294:	47a8      	blx	r5
  403296:	4621      	mov	r1, r4
  403298:	484a      	ldr	r0, [pc, #296]	; (4033c4 <nm_spi_write_block+0x158>)
  40329a:	47a8      	blx	r5
  40329c:	484a      	ldr	r0, [pc, #296]	; (4033c8 <nm_spi_write_block+0x15c>)
  40329e:	47a8      	blx	r5
  4032a0:	e082      	b.n	4033a8 <nm_spi_write_block+0x13c>
  4032a2:	20c7      	movs	r0, #199	; 0xc7
  4032a4:	4b49      	ldr	r3, [pc, #292]	; (4033cc <nm_spi_write_block+0x160>)
  4032a6:	4798      	blx	r3
  4032a8:	2801      	cmp	r0, #1
  4032aa:	d012      	beq.n	4032d2 <nm_spi_write_block+0x66>
  4032ac:	f240 2215 	movw	r2, #533	; 0x215
  4032b0:	4941      	ldr	r1, [pc, #260]	; (4033b8 <nm_spi_write_block+0x14c>)
  4032b2:	4842      	ldr	r0, [pc, #264]	; (4033bc <nm_spi_write_block+0x150>)
  4032b4:	4d42      	ldr	r5, [pc, #264]	; (4033c0 <nm_spi_write_block+0x154>)
  4032b6:	47a8      	blx	r5
  4032b8:	4621      	mov	r1, r4
  4032ba:	4845      	ldr	r0, [pc, #276]	; (4033d0 <nm_spi_write_block+0x164>)
  4032bc:	47a8      	blx	r5
  4032be:	4842      	ldr	r0, [pc, #264]	; (4033c8 <nm_spi_write_block+0x15c>)
  4032c0:	47a8      	blx	r5
  4032c2:	2100      	movs	r1, #0
  4032c4:	9100      	str	r1, [sp, #0]
  4032c6:	460b      	mov	r3, r1
  4032c8:	460a      	mov	r2, r1
  4032ca:	20cf      	movs	r0, #207	; 0xcf
  4032cc:	4c39      	ldr	r4, [pc, #228]	; (4033b4 <nm_spi_write_block+0x148>)
  4032ce:	47a0      	blx	r4
  4032d0:	e06a      	b.n	4033a8 <nm_spi_write_block+0x13c>
  4032d2:	2400      	movs	r4, #0
  4032d4:	f8ad 400c 	strh.w	r4, [sp, #12]
  4032d8:	4f3e      	ldr	r7, [pc, #248]	; (4033d4 <nm_spi_write_block+0x168>)
  4032da:	f8df 9110 	ldr.w	r9, [pc, #272]	; 4033ec <nm_spi_write_block+0x180>
  4032de:	462e      	mov	r6, r5
  4032e0:	f5b5 5f00 	cmp.w	r5, #8192	; 0x2000
  4032e4:	bf28      	it	cs
  4032e6:	f44f 5600 	movcs.w	r6, #8192	; 0x2000
  4032ea:	b92c      	cbnz	r4, 4032f8 <nm_spi_write_block+0x8c>
  4032ec:	f5b5 5f00 	cmp.w	r5, #8192	; 0x2000
  4032f0:	bf94      	ite	ls
  4032f2:	2303      	movls	r3, #3
  4032f4:	2301      	movhi	r3, #1
  4032f6:	e004      	b.n	403302 <nm_spi_write_block+0x96>
  4032f8:	f5b5 5f00 	cmp.w	r5, #8192	; 0x2000
  4032fc:	bf94      	ite	ls
  4032fe:	2303      	movls	r3, #3
  403300:	2302      	movhi	r3, #2
  403302:	f063 030f 	orn	r3, r3, #15
  403306:	f88d 300b 	strb.w	r3, [sp, #11]
  40330a:	2101      	movs	r1, #1
  40330c:	f10d 000b 	add.w	r0, sp, #11
  403310:	47b8      	blx	r7
  403312:	b150      	cbz	r0, 40332a <nm_spi_write_block+0xbe>
  403314:	f44f 72d4 	mov.w	r2, #424	; 0x1a8
  403318:	492f      	ldr	r1, [pc, #188]	; (4033d8 <nm_spi_write_block+0x16c>)
  40331a:	4828      	ldr	r0, [pc, #160]	; (4033bc <nm_spi_write_block+0x150>)
  40331c:	4c28      	ldr	r4, [pc, #160]	; (4033c0 <nm_spi_write_block+0x154>)
  40331e:	47a0      	blx	r4
  403320:	482e      	ldr	r0, [pc, #184]	; (4033dc <nm_spi_write_block+0x170>)
  403322:	47a0      	blx	r4
  403324:	4828      	ldr	r0, [pc, #160]	; (4033c8 <nm_spi_write_block+0x15c>)
  403326:	47a0      	blx	r4
  403328:	e028      	b.n	40337c <nm_spi_write_block+0x110>
  40332a:	4631      	mov	r1, r6
  40332c:	eb08 0004 	add.w	r0, r8, r4
  403330:	47b8      	blx	r7
  403332:	b150      	cbz	r0, 40334a <nm_spi_write_block+0xde>
  403334:	f240 12b1 	movw	r2, #433	; 0x1b1
  403338:	4927      	ldr	r1, [pc, #156]	; (4033d8 <nm_spi_write_block+0x16c>)
  40333a:	4820      	ldr	r0, [pc, #128]	; (4033bc <nm_spi_write_block+0x150>)
  40333c:	4c20      	ldr	r4, [pc, #128]	; (4033c0 <nm_spi_write_block+0x154>)
  40333e:	47a0      	blx	r4
  403340:	4827      	ldr	r0, [pc, #156]	; (4033e0 <nm_spi_write_block+0x174>)
  403342:	47a0      	blx	r4
  403344:	4820      	ldr	r0, [pc, #128]	; (4033c8 <nm_spi_write_block+0x15c>)
  403346:	47a0      	blx	r4
  403348:	e018      	b.n	40337c <nm_spi_write_block+0x110>
  40334a:	f899 3000 	ldrb.w	r3, [r9]
  40334e:	b973      	cbnz	r3, 40336e <nm_spi_write_block+0x102>
  403350:	2102      	movs	r1, #2
  403352:	a803      	add	r0, sp, #12
  403354:	47b8      	blx	r7
  403356:	b150      	cbz	r0, 40336e <nm_spi_write_block+0x102>
  403358:	f240 12bb 	movw	r2, #443	; 0x1bb
  40335c:	491e      	ldr	r1, [pc, #120]	; (4033d8 <nm_spi_write_block+0x16c>)
  40335e:	4817      	ldr	r0, [pc, #92]	; (4033bc <nm_spi_write_block+0x150>)
  403360:	4c17      	ldr	r4, [pc, #92]	; (4033c0 <nm_spi_write_block+0x154>)
  403362:	47a0      	blx	r4
  403364:	481f      	ldr	r0, [pc, #124]	; (4033e4 <nm_spi_write_block+0x178>)
  403366:	47a0      	blx	r4
  403368:	4817      	ldr	r0, [pc, #92]	; (4033c8 <nm_spi_write_block+0x15c>)
  40336a:	47a0      	blx	r4
  40336c:	e006      	b.n	40337c <nm_spi_write_block+0x110>
  40336e:	4434      	add	r4, r6
  403370:	b224      	sxth	r4, r4
  403372:	1bad      	subs	r5, r5, r6
  403374:	b2ad      	uxth	r5, r5
  403376:	2d00      	cmp	r5, #0
  403378:	d1b1      	bne.n	4032de <nm_spi_write_block+0x72>
  40337a:	e013      	b.n	4033a4 <nm_spi_write_block+0x138>
  40337c:	f240 2226 	movw	r2, #550	; 0x226
  403380:	490d      	ldr	r1, [pc, #52]	; (4033b8 <nm_spi_write_block+0x14c>)
  403382:	480e      	ldr	r0, [pc, #56]	; (4033bc <nm_spi_write_block+0x150>)
  403384:	4c0e      	ldr	r4, [pc, #56]	; (4033c0 <nm_spi_write_block+0x154>)
  403386:	47a0      	blx	r4
  403388:	4817      	ldr	r0, [pc, #92]	; (4033e8 <nm_spi_write_block+0x17c>)
  40338a:	47a0      	blx	r4
  40338c:	480e      	ldr	r0, [pc, #56]	; (4033c8 <nm_spi_write_block+0x15c>)
  40338e:	47a0      	blx	r4
  403390:	2400      	movs	r4, #0
  403392:	9400      	str	r4, [sp, #0]
  403394:	4623      	mov	r3, r4
  403396:	4622      	mov	r2, r4
  403398:	4621      	mov	r1, r4
  40339a:	20cf      	movs	r0, #207	; 0xcf
  40339c:	4d05      	ldr	r5, [pc, #20]	; (4033b4 <nm_spi_write_block+0x148>)
  40339e:	47a8      	blx	r5
  4033a0:	4620      	mov	r0, r4
  4033a2:	e003      	b.n	4033ac <nm_spi_write_block+0x140>
  4033a4:	2000      	movs	r0, #0
  4033a6:	e001      	b.n	4033ac <nm_spi_write_block+0x140>
  4033a8:	f06f 0005 	mvn.w	r0, #5
  4033ac:	b005      	add	sp, #20
  4033ae:	e8bd 83f0 	ldmia.w	sp!, {r4, r5, r6, r7, r8, r9, pc}
  4033b2:	bf00      	nop
  4033b4:	00402cf5 	.word	0x00402cf5
  4033b8:	0040c708 	.word	0x0040c708
  4033bc:	0040b8f8 	.word	0x0040b8f8
  4033c0:	00405135 	.word	0x00405135
  4033c4:	0040c5bc 	.word	0x0040c5bc
  4033c8:	0040ca54 	.word	0x0040ca54
  4033cc:	00402b09 	.word	0x00402b09
  4033d0:	0040c5ec 	.word	0x0040c5ec
  4033d4:	00402cd5 	.word	0x00402cd5
  4033d8:	0040c220 	.word	0x0040c220
  4033dc:	0040c624 	.word	0x0040c624
  4033e0:	0040c65c 	.word	0x0040c65c
  4033e4:	0040c690 	.word	0x0040c690
  4033e8:	0040c6c8 	.word	0x0040c6c8
  4033ec:	20400950 	.word	0x20400950

004033f0 <Socket_ReadSocketData>:
  4033f0:	e92d 4ff8 	stmdb	sp!, {r3, r4, r5, r6, r7, r8, r9, sl, fp, lr}
  4033f4:	f8bd 4028 	ldrh.w	r4, [sp, #40]	; 0x28
  4033f8:	2c00      	cmp	r4, #0
  4033fa:	d047      	beq.n	40348c <Socket_ReadSocketData+0x9c>
  4033fc:	4681      	mov	r9, r0
  4033fe:	460e      	mov	r6, r1
  403400:	4692      	mov	sl, r2
  403402:	4698      	mov	r8, r3
  403404:	0103      	lsls	r3, r0, #4
  403406:	4922      	ldr	r1, [pc, #136]	; (403490 <Socket_ReadSocketData+0xa0>)
  403408:	58cb      	ldr	r3, [r1, r3]
  40340a:	2b00      	cmp	r3, #0
  40340c:	d03e      	beq.n	40348c <Socket_ReadSocketData+0x9c>
  40340e:	eb01 1300 	add.w	r3, r1, r0, lsl #4
  403412:	889b      	ldrh	r3, [r3, #4]
  403414:	b29b      	uxth	r3, r3
  403416:	2b00      	cmp	r3, #0
  403418:	d038      	beq.n	40348c <Socket_ReadSocketData+0x9c>
  40341a:	eb01 1300 	add.w	r3, r1, r0, lsl #4
  40341e:	7a9b      	ldrb	r3, [r3, #10]
  403420:	b2db      	uxtb	r3, r3
  403422:	2b01      	cmp	r3, #1
  403424:	d132      	bne.n	40348c <Socket_ReadSocketData+0x9c>
  403426:	80f4      	strh	r4, [r6, #6]
  403428:	eb01 1700 	add.w	r7, r1, r0, lsl #4
  40342c:	f8df b078 	ldr.w	fp, [pc, #120]	; 4034a8 <Socket_ReadSocketData+0xb8>
  403430:	88bb      	ldrh	r3, [r7, #4]
  403432:	1ae3      	subs	r3, r4, r3
  403434:	b21b      	sxth	r3, r3
  403436:	2b00      	cmp	r3, #0
  403438:	dd03      	ble.n	403442 <Socket_ReadSocketData+0x52>
  40343a:	88bd      	ldrh	r5, [r7, #4]
  40343c:	b2ad      	uxth	r5, r5
  40343e:	2300      	movs	r3, #0
  403440:	e001      	b.n	403446 <Socket_ReadSocketData+0x56>
  403442:	4625      	mov	r5, r4
  403444:	2301      	movs	r3, #1
  403446:	6839      	ldr	r1, [r7, #0]
  403448:	462a      	mov	r2, r5
  40344a:	4640      	mov	r0, r8
  40344c:	47d8      	blx	fp
  40344e:	b9a8      	cbnz	r0, 40347c <Socket_ReadSocketData+0x8c>
  403450:	683b      	ldr	r3, [r7, #0]
  403452:	6033      	str	r3, [r6, #0]
  403454:	80b5      	strh	r5, [r6, #4]
  403456:	88f3      	ldrh	r3, [r6, #6]
  403458:	1b5b      	subs	r3, r3, r5
  40345a:	80f3      	strh	r3, [r6, #6]
  40345c:	4b0d      	ldr	r3, [pc, #52]	; (403494 <Socket_ReadSocketData+0xa4>)
  40345e:	681b      	ldr	r3, [r3, #0]
  403460:	b12b      	cbz	r3, 40346e <Socket_ReadSocketData+0x7e>
  403462:	4b0c      	ldr	r3, [pc, #48]	; (403494 <Socket_ReadSocketData+0xa4>)
  403464:	681b      	ldr	r3, [r3, #0]
  403466:	4632      	mov	r2, r6
  403468:	4651      	mov	r1, sl
  40346a:	4648      	mov	r0, r9
  40346c:	4798      	blx	r3
  40346e:	1b64      	subs	r4, r4, r5
  403470:	b2a4      	uxth	r4, r4
  403472:	44a8      	add	r8, r5
  403474:	2c00      	cmp	r4, #0
  403476:	d1db      	bne.n	403430 <Socket_ReadSocketData+0x40>
  403478:	e8bd 8ff8 	ldmia.w	sp!, {r3, r4, r5, r6, r7, r8, r9, sl, fp, pc}
  40347c:	4806      	ldr	r0, [pc, #24]	; (403498 <Socket_ReadSocketData+0xa8>)
  40347e:	4d07      	ldr	r5, [pc, #28]	; (40349c <Socket_ReadSocketData+0xac>)
  403480:	47a8      	blx	r5
  403482:	4621      	mov	r1, r4
  403484:	4806      	ldr	r0, [pc, #24]	; (4034a0 <Socket_ReadSocketData+0xb0>)
  403486:	47a8      	blx	r5
  403488:	4806      	ldr	r0, [pc, #24]	; (4034a4 <Socket_ReadSocketData+0xb4>)
  40348a:	47a8      	blx	r5
  40348c:	e8bd 8ff8 	ldmia.w	sp!, {r3, r4, r5, r6, r7, r8, r9, sl, fp, pc}
  403490:	20401578 	.word	0x20401578
  403494:	20401628 	.word	0x20401628
  403498:	0040bbb8 	.word	0x0040bbb8
  40349c:	00405135 	.word	0x00405135
  4034a0:	0040c734 	.word	0x0040c734
  4034a4:	0040ca54 	.word	0x0040ca54
  4034a8:	00401b5d 	.word	0x00401b5d

004034ac <m2m_ip_cb>:
  4034ac:	b5f0      	push	{r4, r5, r6, r7, lr}
  4034ae:	b099      	sub	sp, #100	; 0x64
  4034b0:	4614      	mov	r4, r2
  4034b2:	2841      	cmp	r0, #65	; 0x41
  4034b4:	d119      	bne.n	4034ea <m2m_ip_cb+0x3e>
  4034b6:	2300      	movs	r3, #0
  4034b8:	2204      	movs	r2, #4
  4034ba:	a907      	add	r1, sp, #28
  4034bc:	4620      	mov	r0, r4
  4034be:	4ca4      	ldr	r4, [pc, #656]	; (403750 <m2m_ip_cb+0x2a4>)
  4034c0:	47a0      	blx	r4
  4034c2:	2800      	cmp	r0, #0
  4034c4:	f040 8141 	bne.w	40374a <m2m_ip_cb+0x29e>
  4034c8:	f89d 301d 	ldrb.w	r3, [sp, #29]
  4034cc:	f88d 300c 	strb.w	r3, [sp, #12]
  4034d0:	4ba0      	ldr	r3, [pc, #640]	; (403754 <m2m_ip_cb+0x2a8>)
  4034d2:	681b      	ldr	r3, [r3, #0]
  4034d4:	2b00      	cmp	r3, #0
  4034d6:	f000 8138 	beq.w	40374a <m2m_ip_cb+0x29e>
  4034da:	4b9e      	ldr	r3, [pc, #632]	; (403754 <m2m_ip_cb+0x2a8>)
  4034dc:	681b      	ldr	r3, [r3, #0]
  4034de:	aa03      	add	r2, sp, #12
  4034e0:	2101      	movs	r1, #1
  4034e2:	f99d 001c 	ldrsb.w	r0, [sp, #28]
  4034e6:	4798      	blx	r3
  4034e8:	e12f      	b.n	40374a <m2m_ip_cb+0x29e>
  4034ea:	460d      	mov	r5, r1
  4034ec:	2842      	cmp	r0, #66	; 0x42
  4034ee:	d119      	bne.n	403524 <m2m_ip_cb+0x78>
  4034f0:	2300      	movs	r3, #0
  4034f2:	2204      	movs	r2, #4
  4034f4:	a907      	add	r1, sp, #28
  4034f6:	4620      	mov	r0, r4
  4034f8:	4c95      	ldr	r4, [pc, #596]	; (403750 <m2m_ip_cb+0x2a4>)
  4034fa:	47a0      	blx	r4
  4034fc:	2800      	cmp	r0, #0
  4034fe:	f040 8124 	bne.w	40374a <m2m_ip_cb+0x29e>
  403502:	f89d 301d 	ldrb.w	r3, [sp, #29]
  403506:	f88d 300c 	strb.w	r3, [sp, #12]
  40350a:	4b92      	ldr	r3, [pc, #584]	; (403754 <m2m_ip_cb+0x2a8>)
  40350c:	681b      	ldr	r3, [r3, #0]
  40350e:	2b00      	cmp	r3, #0
  403510:	f000 811b 	beq.w	40374a <m2m_ip_cb+0x29e>
  403514:	4b8f      	ldr	r3, [pc, #572]	; (403754 <m2m_ip_cb+0x2a8>)
  403516:	681b      	ldr	r3, [r3, #0]
  403518:	aa03      	add	r2, sp, #12
  40351a:	2102      	movs	r1, #2
  40351c:	f99d 001c 	ldrsb.w	r0, [sp, #28]
  403520:	4798      	blx	r3
  403522:	e112      	b.n	40374a <m2m_ip_cb+0x29e>
  403524:	2843      	cmp	r0, #67	; 0x43
  403526:	d13f      	bne.n	4035a8 <m2m_ip_cb+0xfc>
  403528:	2300      	movs	r3, #0
  40352a:	220c      	movs	r2, #12
  40352c:	eb0d 0102 	add.w	r1, sp, r2
  403530:	4620      	mov	r0, r4
  403532:	4c87      	ldr	r4, [pc, #540]	; (403750 <m2m_ip_cb+0x2a4>)
  403534:	47a0      	blx	r4
  403536:	2800      	cmp	r0, #0
  403538:	f040 8107 	bne.w	40374a <m2m_ip_cb+0x29e>
  40353c:	f99d 3015 	ldrsb.w	r3, [sp, #21]
  403540:	2b00      	cmp	r3, #0
  403542:	db19      	blt.n	403578 <m2m_ip_cb+0xcc>
  403544:	4a84      	ldr	r2, [pc, #528]	; (403758 <m2m_ip_cb+0x2ac>)
  403546:	eb02 1203 	add.w	r2, r2, r3, lsl #4
  40354a:	2100      	movs	r1, #0
  40354c:	72d1      	strb	r1, [r2, #11]
  40354e:	2101      	movs	r1, #1
  403550:	7291      	strb	r1, [r2, #10]
  403552:	4982      	ldr	r1, [pc, #520]	; (40375c <m2m_ip_cb+0x2b0>)
  403554:	880a      	ldrh	r2, [r1, #0]
  403556:	3201      	adds	r2, #1
  403558:	b292      	uxth	r2, r2
  40355a:	800a      	strh	r2, [r1, #0]
  40355c:	880a      	ldrh	r2, [r1, #0]
  40355e:	b292      	uxth	r2, r2
  403560:	b91a      	cbnz	r2, 40356a <m2m_ip_cb+0xbe>
  403562:	880a      	ldrh	r2, [r1, #0]
  403564:	3201      	adds	r2, #1
  403566:	b292      	uxth	r2, r2
  403568:	800a      	strh	r2, [r1, #0]
  40356a:	4a7c      	ldr	r2, [pc, #496]	; (40375c <m2m_ip_cb+0x2b0>)
  40356c:	8811      	ldrh	r1, [r2, #0]
  40356e:	b289      	uxth	r1, r1
  403570:	4a79      	ldr	r2, [pc, #484]	; (403758 <m2m_ip_cb+0x2ac>)
  403572:	eb02 1203 	add.w	r2, r2, r3, lsl #4
  403576:	80d1      	strh	r1, [r2, #6]
  403578:	f88d 301c 	strb.w	r3, [sp, #28]
  40357c:	2302      	movs	r3, #2
  40357e:	f8ad 3020 	strh.w	r3, [sp, #32]
  403582:	f8bd 300e 	ldrh.w	r3, [sp, #14]
  403586:	f8ad 3022 	strh.w	r3, [sp, #34]	; 0x22
  40358a:	9b04      	ldr	r3, [sp, #16]
  40358c:	9309      	str	r3, [sp, #36]	; 0x24
  40358e:	4b71      	ldr	r3, [pc, #452]	; (403754 <m2m_ip_cb+0x2a8>)
  403590:	681b      	ldr	r3, [r3, #0]
  403592:	2b00      	cmp	r3, #0
  403594:	f000 80d9 	beq.w	40374a <m2m_ip_cb+0x29e>
  403598:	4b6e      	ldr	r3, [pc, #440]	; (403754 <m2m_ip_cb+0x2a8>)
  40359a:	681b      	ldr	r3, [r3, #0]
  40359c:	aa07      	add	r2, sp, #28
  40359e:	2104      	movs	r1, #4
  4035a0:	f99d 0014 	ldrsb.w	r0, [sp, #20]
  4035a4:	4798      	blx	r3
  4035a6:	e0d0      	b.n	40374a <m2m_ip_cb+0x29e>
  4035a8:	2844      	cmp	r0, #68	; 0x44
  4035aa:	d001      	beq.n	4035b0 <m2m_ip_cb+0x104>
  4035ac:	284b      	cmp	r0, #75	; 0x4b
  4035ae:	d124      	bne.n	4035fa <m2m_ip_cb+0x14e>
  4035b0:	2300      	movs	r3, #0
  4035b2:	2204      	movs	r2, #4
  4035b4:	a907      	add	r1, sp, #28
  4035b6:	4620      	mov	r0, r4
  4035b8:	4c65      	ldr	r4, [pc, #404]	; (403750 <m2m_ip_cb+0x2a4>)
  4035ba:	47a0      	blx	r4
  4035bc:	2800      	cmp	r0, #0
  4035be:	f040 80c4 	bne.w	40374a <m2m_ip_cb+0x29e>
  4035c2:	f99d 001c 	ldrsb.w	r0, [sp, #28]
  4035c6:	f88d 000c 	strb.w	r0, [sp, #12]
  4035ca:	f99d 301d 	ldrsb.w	r3, [sp, #29]
  4035ce:	f88d 300d 	strb.w	r3, [sp, #13]
  4035d2:	b93b      	cbnz	r3, 4035e4 <m2m_ip_cb+0x138>
  4035d4:	f8bd 301e 	ldrh.w	r3, [sp, #30]
  4035d8:	3b08      	subs	r3, #8
  4035da:	b29b      	uxth	r3, r3
  4035dc:	4a5e      	ldr	r2, [pc, #376]	; (403758 <m2m_ip_cb+0x2ac>)
  4035de:	eb02 1200 	add.w	r2, r2, r0, lsl #4
  4035e2:	8113      	strh	r3, [r2, #8]
  4035e4:	4b5b      	ldr	r3, [pc, #364]	; (403754 <m2m_ip_cb+0x2a8>)
  4035e6:	681b      	ldr	r3, [r3, #0]
  4035e8:	2b00      	cmp	r3, #0
  4035ea:	f000 80ae 	beq.w	40374a <m2m_ip_cb+0x29e>
  4035ee:	4b59      	ldr	r3, [pc, #356]	; (403754 <m2m_ip_cb+0x2a8>)
  4035f0:	681b      	ldr	r3, [r3, #0]
  4035f2:	aa03      	add	r2, sp, #12
  4035f4:	2105      	movs	r1, #5
  4035f6:	4798      	blx	r3
  4035f8:	e0a7      	b.n	40374a <m2m_ip_cb+0x29e>
  4035fa:	284a      	cmp	r0, #74	; 0x4a
  4035fc:	d113      	bne.n	403626 <m2m_ip_cb+0x17a>
  4035fe:	2300      	movs	r3, #0
  403600:	2244      	movs	r2, #68	; 0x44
  403602:	a907      	add	r1, sp, #28
  403604:	4620      	mov	r0, r4
  403606:	4c52      	ldr	r4, [pc, #328]	; (403750 <m2m_ip_cb+0x2a4>)
  403608:	47a0      	blx	r4
  40360a:	2800      	cmp	r0, #0
  40360c:	f040 809d 	bne.w	40374a <m2m_ip_cb+0x29e>
  403610:	4b53      	ldr	r3, [pc, #332]	; (403760 <m2m_ip_cb+0x2b4>)
  403612:	681b      	ldr	r3, [r3, #0]
  403614:	2b00      	cmp	r3, #0
  403616:	f000 8098 	beq.w	40374a <m2m_ip_cb+0x29e>
  40361a:	4b51      	ldr	r3, [pc, #324]	; (403760 <m2m_ip_cb+0x2b4>)
  40361c:	681b      	ldr	r3, [r3, #0]
  40361e:	9917      	ldr	r1, [sp, #92]	; 0x5c
  403620:	a807      	add	r0, sp, #28
  403622:	4798      	blx	r3
  403624:	e091      	b.n	40374a <m2m_ip_cb+0x29e>
  403626:	f1a0 0346 	sub.w	r3, r0, #70	; 0x46
  40362a:	b2db      	uxtb	r3, r3
  40362c:	2b07      	cmp	r3, #7
  40362e:	d84d      	bhi.n	4036cc <m2m_ip_cb+0x220>
  403630:	2285      	movs	r2, #133	; 0x85
  403632:	fa22 f303 	lsr.w	r3, r2, r3
  403636:	f013 0f01 	tst.w	r3, #1
  40363a:	d047      	beq.n	4036cc <m2m_ip_cb+0x220>
  40363c:	2848      	cmp	r0, #72	; 0x48
  40363e:	bf14      	ite	ne
  403640:	2706      	movne	r7, #6
  403642:	2709      	moveq	r7, #9
  403644:	2300      	movs	r3, #0
  403646:	2210      	movs	r2, #16
  403648:	a903      	add	r1, sp, #12
  40364a:	4620      	mov	r0, r4
  40364c:	4e40      	ldr	r6, [pc, #256]	; (403750 <m2m_ip_cb+0x2a4>)
  40364e:	47b0      	blx	r6
  403650:	2800      	cmp	r0, #0
  403652:	d17a      	bne.n	40374a <m2m_ip_cb+0x29e>
  403654:	f99d 0018 	ldrsb.w	r0, [sp, #24]
  403658:	f8bd 101a 	ldrh.w	r1, [sp, #26]
  40365c:	4a3e      	ldr	r2, [pc, #248]	; (403758 <m2m_ip_cb+0x2ac>)
  40365e:	eb02 1200 	add.w	r2, r2, r0, lsl #4
  403662:	2300      	movs	r3, #0
  403664:	7313      	strb	r3, [r2, #12]
  403666:	f9bd e014 	ldrsh.w	lr, [sp, #20]
  40366a:	f8bd 3016 	ldrh.w	r3, [sp, #22]
  40366e:	f8bd 600e 	ldrh.w	r6, [sp, #14]
  403672:	f8ad 6026 	strh.w	r6, [sp, #38]	; 0x26
  403676:	9e04      	ldr	r6, [sp, #16]
  403678:	960a      	str	r6, [sp, #40]	; 0x28
  40367a:	88d2      	ldrh	r2, [r2, #6]
  40367c:	b292      	uxth	r2, r2
  40367e:	4291      	cmp	r1, r2
  403680:	d11b      	bne.n	4036ba <m2m_ip_cb+0x20e>
  403682:	f1be 0f00 	cmp.w	lr, #0
  403686:	dd0a      	ble.n	40369e <m2m_ip_cb+0x1f2>
  403688:	45ae      	cmp	lr, r5
  40368a:	da08      	bge.n	40369e <m2m_ip_cb+0x1f2>
  40368c:	fa1f f28e 	uxth.w	r2, lr
  403690:	9200      	str	r2, [sp, #0]
  403692:	4423      	add	r3, r4
  403694:	463a      	mov	r2, r7
  403696:	a907      	add	r1, sp, #28
  403698:	4c32      	ldr	r4, [pc, #200]	; (403764 <m2m_ip_cb+0x2b8>)
  40369a:	47a0      	blx	r4
  40369c:	e055      	b.n	40374a <m2m_ip_cb+0x29e>
  40369e:	f8ad e020 	strh.w	lr, [sp, #32]
  4036a2:	2300      	movs	r3, #0
  4036a4:	9307      	str	r3, [sp, #28]
  4036a6:	4b2b      	ldr	r3, [pc, #172]	; (403754 <m2m_ip_cb+0x2a8>)
  4036a8:	681b      	ldr	r3, [r3, #0]
  4036aa:	2b00      	cmp	r3, #0
  4036ac:	d04d      	beq.n	40374a <m2m_ip_cb+0x29e>
  4036ae:	4b29      	ldr	r3, [pc, #164]	; (403754 <m2m_ip_cb+0x2a8>)
  4036b0:	681b      	ldr	r3, [r3, #0]
  4036b2:	aa07      	add	r2, sp, #28
  4036b4:	4639      	mov	r1, r7
  4036b6:	4798      	blx	r3
  4036b8:	e047      	b.n	40374a <m2m_ip_cb+0x29e>
  4036ba:	2d10      	cmp	r5, #16
  4036bc:	d945      	bls.n	40374a <m2m_ip_cb+0x29e>
  4036be:	2301      	movs	r3, #1
  4036c0:	2200      	movs	r2, #0
  4036c2:	4611      	mov	r1, r2
  4036c4:	4610      	mov	r0, r2
  4036c6:	4c22      	ldr	r4, [pc, #136]	; (403750 <m2m_ip_cb+0x2a4>)
  4036c8:	47a0      	blx	r4
  4036ca:	e03e      	b.n	40374a <m2m_ip_cb+0x29e>
  4036cc:	f000 03fd 	and.w	r3, r0, #253	; 0xfd
  4036d0:	2b45      	cmp	r3, #69	; 0x45
  4036d2:	d001      	beq.n	4036d8 <m2m_ip_cb+0x22c>
  4036d4:	284c      	cmp	r0, #76	; 0x4c
  4036d6:	d123      	bne.n	403720 <m2m_ip_cb+0x274>
  4036d8:	2847      	cmp	r0, #71	; 0x47
  4036da:	bf14      	ite	ne
  4036dc:	2507      	movne	r5, #7
  4036de:	2508      	moveq	r5, #8
  4036e0:	2300      	movs	r3, #0
  4036e2:	2208      	movs	r2, #8
  4036e4:	a907      	add	r1, sp, #28
  4036e6:	4620      	mov	r0, r4
  4036e8:	4c19      	ldr	r4, [pc, #100]	; (403750 <m2m_ip_cb+0x2a4>)
  4036ea:	47a0      	blx	r4
  4036ec:	2800      	cmp	r0, #0
  4036ee:	d12c      	bne.n	40374a <m2m_ip_cb+0x29e>
  4036f0:	f99d 001c 	ldrsb.w	r0, [sp, #28]
  4036f4:	f8bd 2020 	ldrh.w	r2, [sp, #32]
  4036f8:	f8bd 301e 	ldrh.w	r3, [sp, #30]
  4036fc:	f8ad 300c 	strh.w	r3, [sp, #12]
  403700:	4b15      	ldr	r3, [pc, #84]	; (403758 <m2m_ip_cb+0x2ac>)
  403702:	eb03 1300 	add.w	r3, r3, r0, lsl #4
  403706:	88db      	ldrh	r3, [r3, #6]
  403708:	b29b      	uxth	r3, r3
  40370a:	429a      	cmp	r2, r3
  40370c:	d11d      	bne.n	40374a <m2m_ip_cb+0x29e>
  40370e:	4b11      	ldr	r3, [pc, #68]	; (403754 <m2m_ip_cb+0x2a8>)
  403710:	681b      	ldr	r3, [r3, #0]
  403712:	b1d3      	cbz	r3, 40374a <m2m_ip_cb+0x29e>
  403714:	4b0f      	ldr	r3, [pc, #60]	; (403754 <m2m_ip_cb+0x2a8>)
  403716:	681b      	ldr	r3, [r3, #0]
  403718:	aa03      	add	r2, sp, #12
  40371a:	4629      	mov	r1, r5
  40371c:	4798      	blx	r3
  40371e:	e014      	b.n	40374a <m2m_ip_cb+0x29e>
  403720:	2852      	cmp	r0, #82	; 0x52
  403722:	d112      	bne.n	40374a <m2m_ip_cb+0x29e>
  403724:	2301      	movs	r3, #1
  403726:	2214      	movs	r2, #20
  403728:	a907      	add	r1, sp, #28
  40372a:	4620      	mov	r0, r4
  40372c:	4c08      	ldr	r4, [pc, #32]	; (403750 <m2m_ip_cb+0x2a4>)
  40372e:	47a0      	blx	r4
  403730:	b958      	cbnz	r0, 40374a <m2m_ip_cb+0x29e>
  403732:	4b0d      	ldr	r3, [pc, #52]	; (403768 <m2m_ip_cb+0x2bc>)
  403734:	9a08      	ldr	r2, [sp, #32]
  403736:	601a      	str	r2, [r3, #0]
  403738:	681b      	ldr	r3, [r3, #0]
  40373a:	b133      	cbz	r3, 40374a <m2m_ip_cb+0x29e>
  40373c:	4b0a      	ldr	r3, [pc, #40]	; (403768 <m2m_ip_cb+0x2bc>)
  40373e:	681b      	ldr	r3, [r3, #0]
  403740:	f89d 202c 	ldrb.w	r2, [sp, #44]	; 0x2c
  403744:	9909      	ldr	r1, [sp, #36]	; 0x24
  403746:	9807      	ldr	r0, [sp, #28]
  403748:	4798      	blx	r3
  40374a:	b019      	add	sp, #100	; 0x64
  40374c:	bdf0      	pop	{r4, r5, r6, r7, pc}
  40374e:	bf00      	nop
  403750:	00401b5d 	.word	0x00401b5d
  403754:	20401628 	.word	0x20401628
  403758:	20401578 	.word	0x20401578
  40375c:	20400952 	.word	0x20400952
  403760:	20401630 	.word	0x20401630
  403764:	004033f1 	.word	0x004033f1
  403768:	2040162c 	.word	0x2040162c

0040376c <socketInit>:
  40376c:	b508      	push	{r3, lr}
  40376e:	4b0a      	ldr	r3, [pc, #40]	; (403798 <socketInit+0x2c>)
  403770:	781b      	ldrb	r3, [r3, #0]
  403772:	f013 0fff 	tst.w	r3, #255	; 0xff
  403776:	d10e      	bne.n	403796 <socketInit+0x2a>
  403778:	22b0      	movs	r2, #176	; 0xb0
  40377a:	2100      	movs	r1, #0
  40377c:	4807      	ldr	r0, [pc, #28]	; (40379c <socketInit+0x30>)
  40377e:	4b08      	ldr	r3, [pc, #32]	; (4037a0 <socketInit+0x34>)
  403780:	4798      	blx	r3
  403782:	4908      	ldr	r1, [pc, #32]	; (4037a4 <socketInit+0x38>)
  403784:	2002      	movs	r0, #2
  403786:	4b08      	ldr	r3, [pc, #32]	; (4037a8 <socketInit+0x3c>)
  403788:	4798      	blx	r3
  40378a:	2201      	movs	r2, #1
  40378c:	4b02      	ldr	r3, [pc, #8]	; (403798 <socketInit+0x2c>)
  40378e:	701a      	strb	r2, [r3, #0]
  403790:	2200      	movs	r2, #0
  403792:	4b06      	ldr	r3, [pc, #24]	; (4037ac <socketInit+0x40>)
  403794:	801a      	strh	r2, [r3, #0]
  403796:	bd08      	pop	{r3, pc}
  403798:	20400951 	.word	0x20400951
  40379c:	20401578 	.word	0x20401578
  4037a0:	00401501 	.word	0x00401501
  4037a4:	004034ad 	.word	0x004034ad
  4037a8:	00401c6d 	.word	0x00401c6d
  4037ac:	20400952 	.word	0x20400952

004037b0 <registerSocketCallback>:
  4037b0:	4b02      	ldr	r3, [pc, #8]	; (4037bc <registerSocketCallback+0xc>)
  4037b2:	6018      	str	r0, [r3, #0]
  4037b4:	4b02      	ldr	r3, [pc, #8]	; (4037c0 <registerSocketCallback+0x10>)
  4037b6:	6019      	str	r1, [r3, #0]
  4037b8:	4770      	bx	lr
  4037ba:	bf00      	nop
  4037bc:	20401628 	.word	0x20401628
  4037c0:	20401630 	.word	0x20401630

004037c4 <socket>:
  4037c4:	b570      	push	{r4, r5, r6, lr}
  4037c6:	b086      	sub	sp, #24
  4037c8:	2802      	cmp	r0, #2
  4037ca:	d14b      	bne.n	403864 <socket+0xa0>
  4037cc:	2901      	cmp	r1, #1
  4037ce:	d04c      	beq.n	40386a <socket+0xa6>
  4037d0:	2902      	cmp	r1, #2
  4037d2:	d04d      	beq.n	403870 <socket+0xac>
  4037d4:	f04f 34ff 	mov.w	r4, #4294967295
  4037d8:	e058      	b.n	40388c <socket+0xc8>
  4037da:	4625      	mov	r5, r4
  4037dc:	eb00 1304 	add.w	r3, r0, r4, lsl #4
  4037e0:	7a9b      	ldrb	r3, [r3, #10]
  4037e2:	f013 0fff 	tst.w	r3, #255	; 0xff
  4037e6:	d136      	bne.n	403856 <socket+0x92>
  4037e8:	482a      	ldr	r0, [pc, #168]	; (403894 <socket+0xd0>)
  4037ea:	eb00 1004 	add.w	r0, r0, r4, lsl #4
  4037ee:	4616      	mov	r6, r2
  4037f0:	2210      	movs	r2, #16
  4037f2:	2100      	movs	r1, #0
  4037f4:	4b28      	ldr	r3, [pc, #160]	; (403898 <socket+0xd4>)
  4037f6:	4798      	blx	r3
  4037f8:	4b26      	ldr	r3, [pc, #152]	; (403894 <socket+0xd0>)
  4037fa:	eb03 1305 	add.w	r3, r3, r5, lsl #4
  4037fe:	2201      	movs	r2, #1
  403800:	729a      	strb	r2, [r3, #10]
  403802:	4a26      	ldr	r2, [pc, #152]	; (40389c <socket+0xd8>)
  403804:	8813      	ldrh	r3, [r2, #0]
  403806:	3301      	adds	r3, #1
  403808:	b29b      	uxth	r3, r3
  40380a:	8013      	strh	r3, [r2, #0]
  40380c:	8813      	ldrh	r3, [r2, #0]
  40380e:	b29b      	uxth	r3, r3
  403810:	b91b      	cbnz	r3, 40381a <socket+0x56>
  403812:	8813      	ldrh	r3, [r2, #0]
  403814:	3301      	adds	r3, #1
  403816:	b29b      	uxth	r3, r3
  403818:	8013      	strh	r3, [r2, #0]
  40381a:	4b20      	ldr	r3, [pc, #128]	; (40389c <socket+0xd8>)
  40381c:	881a      	ldrh	r2, [r3, #0]
  40381e:	b292      	uxth	r2, r2
  403820:	4b1c      	ldr	r3, [pc, #112]	; (403894 <socket+0xd0>)
  403822:	eb03 1305 	add.w	r3, r3, r5, lsl #4
  403826:	80da      	strh	r2, [r3, #6]
  403828:	b264      	sxtb	r4, r4
  40382a:	f016 0f01 	tst.w	r6, #1
  40382e:	d02d      	beq.n	40388c <socket+0xc8>
  403830:	aa06      	add	r2, sp, #24
  403832:	f802 4d04 	strb.w	r4, [r2, #-4]!
  403836:	4b17      	ldr	r3, [pc, #92]	; (403894 <socket+0xd0>)
  403838:	eb03 1505 	add.w	r5, r3, r5, lsl #4
  40383c:	2321      	movs	r3, #33	; 0x21
  40383e:	72eb      	strb	r3, [r5, #11]
  403840:	2300      	movs	r3, #0
  403842:	9302      	str	r3, [sp, #8]
  403844:	9301      	str	r3, [sp, #4]
  403846:	9300      	str	r3, [sp, #0]
  403848:	2304      	movs	r3, #4
  40384a:	2150      	movs	r1, #80	; 0x50
  40384c:	2002      	movs	r0, #2
  40384e:	4d14      	ldr	r5, [pc, #80]	; (4038a0 <socket+0xdc>)
  403850:	47a8      	blx	r5
  403852:	e01b      	b.n	40388c <socket+0xc8>
  403854:	480f      	ldr	r0, [pc, #60]	; (403894 <socket+0xd0>)
  403856:	3401      	adds	r4, #1
  403858:	b2e4      	uxtb	r4, r4
  40385a:	428c      	cmp	r4, r1
  40385c:	d3bd      	bcc.n	4037da <socket+0x16>
  40385e:	f04f 34ff 	mov.w	r4, #4294967295
  403862:	e013      	b.n	40388c <socket+0xc8>
  403864:	f04f 34ff 	mov.w	r4, #4294967295
  403868:	e010      	b.n	40388c <socket+0xc8>
  40386a:	2107      	movs	r1, #7
  40386c:	2400      	movs	r4, #0
  40386e:	e001      	b.n	403874 <socket+0xb0>
  403870:	210b      	movs	r1, #11
  403872:	2407      	movs	r4, #7
  403874:	4625      	mov	r5, r4
  403876:	4b07      	ldr	r3, [pc, #28]	; (403894 <socket+0xd0>)
  403878:	eb03 1304 	add.w	r3, r3, r4, lsl #4
  40387c:	7a9b      	ldrb	r3, [r3, #10]
  40387e:	f013 0fff 	tst.w	r3, #255	; 0xff
  403882:	d1e7      	bne.n	403854 <socket+0x90>
  403884:	4803      	ldr	r0, [pc, #12]	; (403894 <socket+0xd0>)
  403886:	eb00 1004 	add.w	r0, r0, r4, lsl #4
  40388a:	e7b0      	b.n	4037ee <socket+0x2a>
  40388c:	4620      	mov	r0, r4
  40388e:	b006      	add	sp, #24
  403890:	bd70      	pop	{r4, r5, r6, pc}
  403892:	bf00      	nop
  403894:	20401578 	.word	0x20401578
  403898:	00401501 	.word	0x00401501
  40389c:	20400952 	.word	0x20400952
  4038a0:	00401665 	.word	0x00401665

004038a4 <connect>:
  4038a4:	2800      	cmp	r0, #0
  4038a6:	db38      	blt.n	40391a <connect+0x76>
  4038a8:	2900      	cmp	r1, #0
  4038aa:	d036      	beq.n	40391a <connect+0x76>
  4038ac:	4b1f      	ldr	r3, [pc, #124]	; (40392c <connect+0x88>)
  4038ae:	eb03 1300 	add.w	r3, r3, r0, lsl #4
  4038b2:	7a9b      	ldrb	r3, [r3, #10]
  4038b4:	b2db      	uxtb	r3, r3
  4038b6:	2a00      	cmp	r2, #0
  4038b8:	d032      	beq.n	403920 <connect+0x7c>
  4038ba:	2b01      	cmp	r3, #1
  4038bc:	d130      	bne.n	403920 <connect+0x7c>
  4038be:	b530      	push	{r4, r5, lr}
  4038c0:	b089      	sub	sp, #36	; 0x24
  4038c2:	4b1a      	ldr	r3, [pc, #104]	; (40392c <connect+0x88>)
  4038c4:	eb03 1300 	add.w	r3, r3, r0, lsl #4
  4038c8:	7adb      	ldrb	r3, [r3, #11]
  4038ca:	f013 0f01 	tst.w	r3, #1
  4038ce:	d007      	beq.n	4038e0 <connect+0x3c>
  4038d0:	4b16      	ldr	r3, [pc, #88]	; (40392c <connect+0x88>)
  4038d2:	eb03 1300 	add.w	r3, r3, r0, lsl #4
  4038d6:	7adb      	ldrb	r3, [r3, #11]
  4038d8:	f88d 301d 	strb.w	r3, [sp, #29]
  4038dc:	254b      	movs	r5, #75	; 0x4b
  4038de:	e000      	b.n	4038e2 <connect+0x3e>
  4038e0:	2544      	movs	r5, #68	; 0x44
  4038e2:	4604      	mov	r4, r0
  4038e4:	f88d 001c 	strb.w	r0, [sp, #28]
  4038e8:	2208      	movs	r2, #8
  4038ea:	a805      	add	r0, sp, #20
  4038ec:	4b10      	ldr	r3, [pc, #64]	; (403930 <connect+0x8c>)
  4038ee:	4798      	blx	r3
  4038f0:	480e      	ldr	r0, [pc, #56]	; (40392c <connect+0x88>)
  4038f2:	eb00 1004 	add.w	r0, r0, r4, lsl #4
  4038f6:	88c3      	ldrh	r3, [r0, #6]
  4038f8:	f8ad 301e 	strh.w	r3, [sp, #30]
  4038fc:	2300      	movs	r3, #0
  4038fe:	9302      	str	r3, [sp, #8]
  403900:	9301      	str	r3, [sp, #4]
  403902:	9300      	str	r3, [sp, #0]
  403904:	230c      	movs	r3, #12
  403906:	aa05      	add	r2, sp, #20
  403908:	4629      	mov	r1, r5
  40390a:	2002      	movs	r0, #2
  40390c:	4c09      	ldr	r4, [pc, #36]	; (403934 <connect+0x90>)
  40390e:	47a0      	blx	r4
  403910:	2800      	cmp	r0, #0
  403912:	bf18      	it	ne
  403914:	f06f 0008 	mvnne.w	r0, #8
  403918:	e005      	b.n	403926 <connect+0x82>
  40391a:	f06f 0005 	mvn.w	r0, #5
  40391e:	4770      	bx	lr
  403920:	f06f 0005 	mvn.w	r0, #5
  403924:	4770      	bx	lr
  403926:	b009      	add	sp, #36	; 0x24
  403928:	bd30      	pop	{r4, r5, pc}
  40392a:	bf00      	nop
  40392c:	20401578 	.word	0x20401578
  403930:	004014ed 	.word	0x004014ed
  403934:	00401665 	.word	0x00401665

00403938 <send>:
  403938:	b530      	push	{r4, r5, lr}
  40393a:	b089      	sub	sp, #36	; 0x24
  40393c:	460c      	mov	r4, r1
  40393e:	3100      	adds	r1, #0
  403940:	bf18      	it	ne
  403942:	2101      	movne	r1, #1
  403944:	f5b2 6faf 	cmp.w	r2, #1400	; 0x578
  403948:	bf88      	it	hi
  40394a:	2100      	movhi	r1, #0
  40394c:	2900      	cmp	r1, #0
  40394e:	d036      	beq.n	4039be <send+0x86>
  403950:	2800      	cmp	r0, #0
  403952:	db34      	blt.n	4039be <send+0x86>
  403954:	4b1d      	ldr	r3, [pc, #116]	; (4039cc <send+0x94>)
  403956:	eb03 1300 	add.w	r3, r3, r0, lsl #4
  40395a:	7a9b      	ldrb	r3, [r3, #10]
  40395c:	b2db      	uxtb	r3, r3
  40395e:	2b01      	cmp	r3, #1
  403960:	d130      	bne.n	4039c4 <send+0x8c>
  403962:	f88d 0010 	strb.w	r0, [sp, #16]
  403966:	f8ad 2012 	strh.w	r2, [sp, #18]
  40396a:	4b18      	ldr	r3, [pc, #96]	; (4039cc <send+0x94>)
  40396c:	eb03 1300 	add.w	r3, r3, r0, lsl #4
  403970:	88db      	ldrh	r3, [r3, #6]
  403972:	f8ad 301c 	strh.w	r3, [sp, #28]
  403976:	2807      	cmp	r0, #7
  403978:	bfb4      	ite	lt
  40397a:	2550      	movlt	r5, #80	; 0x50
  40397c:	2544      	movge	r5, #68	; 0x44
  40397e:	4b13      	ldr	r3, [pc, #76]	; (4039cc <send+0x94>)
  403980:	eb03 1300 	add.w	r3, r3, r0, lsl #4
  403984:	7adb      	ldrb	r3, [r3, #11]
  403986:	f013 0f01 	tst.w	r3, #1
  40398a:	d006      	beq.n	40399a <send+0x62>
  40398c:	4b0f      	ldr	r3, [pc, #60]	; (4039cc <send+0x94>)
  40398e:	eb03 1000 	add.w	r0, r3, r0, lsl #4
  403992:	8905      	ldrh	r5, [r0, #8]
  403994:	b2ad      	uxth	r5, r5
  403996:	214c      	movs	r1, #76	; 0x4c
  403998:	e000      	b.n	40399c <send+0x64>
  40399a:	2145      	movs	r1, #69	; 0x45
  40399c:	9502      	str	r5, [sp, #8]
  40399e:	9201      	str	r2, [sp, #4]
  4039a0:	9400      	str	r4, [sp, #0]
  4039a2:	2310      	movs	r3, #16
  4039a4:	eb0d 0203 	add.w	r2, sp, r3
  4039a8:	f041 0180 	orr.w	r1, r1, #128	; 0x80
  4039ac:	2002      	movs	r0, #2
  4039ae:	4c08      	ldr	r4, [pc, #32]	; (4039d0 <send+0x98>)
  4039b0:	47a0      	blx	r4
  4039b2:	2800      	cmp	r0, #0
  4039b4:	bf0c      	ite	eq
  4039b6:	2000      	moveq	r0, #0
  4039b8:	f06f 000d 	mvnne.w	r0, #13
  4039bc:	e004      	b.n	4039c8 <send+0x90>
  4039be:	f06f 0005 	mvn.w	r0, #5
  4039c2:	e001      	b.n	4039c8 <send+0x90>
  4039c4:	f06f 0005 	mvn.w	r0, #5
  4039c8:	b009      	add	sp, #36	; 0x24
  4039ca:	bd30      	pop	{r4, r5, pc}
  4039cc:	20401578 	.word	0x20401578
  4039d0:	00401665 	.word	0x00401665

004039d4 <recv>:
  4039d4:	2900      	cmp	r1, #0
  4039d6:	bf18      	it	ne
  4039d8:	2a00      	cmpne	r2, #0
  4039da:	d045      	beq.n	403a68 <recv+0x94>
  4039dc:	b570      	push	{r4, r5, r6, lr}
  4039de:	b086      	sub	sp, #24
  4039e0:	460e      	mov	r6, r1
  4039e2:	4615      	mov	r5, r2
  4039e4:	2800      	cmp	r0, #0
  4039e6:	db36      	blt.n	403a56 <recv+0x82>
  4039e8:	4a21      	ldr	r2, [pc, #132]	; (403a70 <recv+0x9c>)
  4039ea:	eb02 1200 	add.w	r2, r2, r0, lsl #4
  4039ee:	7a92      	ldrb	r2, [r2, #10]
  4039f0:	b2d2      	uxtb	r2, r2
  4039f2:	2a01      	cmp	r2, #1
  4039f4:	d132      	bne.n	403a5c <recv+0x88>
  4039f6:	4c1e      	ldr	r4, [pc, #120]	; (403a70 <recv+0x9c>)
  4039f8:	0101      	lsls	r1, r0, #4
  4039fa:	1862      	adds	r2, r4, r1
  4039fc:	5066      	str	r6, [r4, r1]
  4039fe:	8095      	strh	r5, [r2, #4]
  403a00:	7b12      	ldrb	r2, [r2, #12]
  403a02:	f012 0fff 	tst.w	r2, #255	; 0xff
  403a06:	d12c      	bne.n	403a62 <recv+0x8e>
  403a08:	eb04 1200 	add.w	r2, r4, r0, lsl #4
  403a0c:	2101      	movs	r1, #1
  403a0e:	7311      	strb	r1, [r2, #12]
  403a10:	7ad2      	ldrb	r2, [r2, #11]
  403a12:	400a      	ands	r2, r1
  403a14:	2a00      	cmp	r2, #0
  403a16:	bf0c      	ite	eq
  403a18:	2146      	moveq	r1, #70	; 0x46
  403a1a:	214d      	movne	r1, #77	; 0x4d
  403a1c:	b91b      	cbnz	r3, 403a26 <recv+0x52>
  403a1e:	f04f 33ff 	mov.w	r3, #4294967295
  403a22:	9304      	str	r3, [sp, #16]
  403a24:	e000      	b.n	403a28 <recv+0x54>
  403a26:	9304      	str	r3, [sp, #16]
  403a28:	f88d 0014 	strb.w	r0, [sp, #20]
  403a2c:	4b10      	ldr	r3, [pc, #64]	; (403a70 <recv+0x9c>)
  403a2e:	eb03 1000 	add.w	r0, r3, r0, lsl #4
  403a32:	88c3      	ldrh	r3, [r0, #6]
  403a34:	f8ad 3016 	strh.w	r3, [sp, #22]
  403a38:	2300      	movs	r3, #0
  403a3a:	9302      	str	r3, [sp, #8]
  403a3c:	9301      	str	r3, [sp, #4]
  403a3e:	9300      	str	r3, [sp, #0]
  403a40:	2308      	movs	r3, #8
  403a42:	aa04      	add	r2, sp, #16
  403a44:	2002      	movs	r0, #2
  403a46:	4c0b      	ldr	r4, [pc, #44]	; (403a74 <recv+0xa0>)
  403a48:	47a0      	blx	r4
  403a4a:	2800      	cmp	r0, #0
  403a4c:	bf0c      	ite	eq
  403a4e:	2000      	moveq	r0, #0
  403a50:	f06f 000d 	mvnne.w	r0, #13
  403a54:	e006      	b.n	403a64 <recv+0x90>
  403a56:	f06f 0005 	mvn.w	r0, #5
  403a5a:	e003      	b.n	403a64 <recv+0x90>
  403a5c:	f06f 0005 	mvn.w	r0, #5
  403a60:	e000      	b.n	403a64 <recv+0x90>
  403a62:	2000      	movs	r0, #0
  403a64:	b006      	add	sp, #24
  403a66:	bd70      	pop	{r4, r5, r6, pc}
  403a68:	f06f 0005 	mvn.w	r0, #5
  403a6c:	4770      	bx	lr
  403a6e:	bf00      	nop
  403a70:	20401578 	.word	0x20401578
  403a74:	00401665 	.word	0x00401665

00403a78 <close>:
  403a78:	b530      	push	{r4, r5, lr}
  403a7a:	b087      	sub	sp, #28
  403a7c:	2800      	cmp	r0, #0
  403a7e:	db2e      	blt.n	403ade <close+0x66>
  403a80:	4b1b      	ldr	r3, [pc, #108]	; (403af0 <close+0x78>)
  403a82:	eb03 1300 	add.w	r3, r3, r0, lsl #4
  403a86:	7a9b      	ldrb	r3, [r3, #10]
  403a88:	b2db      	uxtb	r3, r3
  403a8a:	2b01      	cmp	r3, #1
  403a8c:	d12a      	bne.n	403ae4 <close+0x6c>
  403a8e:	4604      	mov	r4, r0
  403a90:	f88d 0014 	strb.w	r0, [sp, #20]
  403a94:	4b16      	ldr	r3, [pc, #88]	; (403af0 <close+0x78>)
  403a96:	eb03 1300 	add.w	r3, r3, r0, lsl #4
  403a9a:	88da      	ldrh	r2, [r3, #6]
  403a9c:	f8ad 2016 	strh.w	r2, [sp, #22]
  403aa0:	2200      	movs	r2, #0
  403aa2:	729a      	strb	r2, [r3, #10]
  403aa4:	80da      	strh	r2, [r3, #6]
  403aa6:	7adb      	ldrb	r3, [r3, #11]
  403aa8:	f003 0301 	and.w	r3, r3, #1
  403aac:	4293      	cmp	r3, r2
  403aae:	9202      	str	r2, [sp, #8]
  403ab0:	9201      	str	r2, [sp, #4]
  403ab2:	9200      	str	r2, [sp, #0]
  403ab4:	f04f 0304 	mov.w	r3, #4
  403ab8:	aa05      	add	r2, sp, #20
  403aba:	bf0c      	ite	eq
  403abc:	2149      	moveq	r1, #73	; 0x49
  403abe:	214e      	movne	r1, #78	; 0x4e
  403ac0:	2002      	movs	r0, #2
  403ac2:	4d0c      	ldr	r5, [pc, #48]	; (403af4 <close+0x7c>)
  403ac4:	47a8      	blx	r5
  403ac6:	1e05      	subs	r5, r0, #0
  403ac8:	bf18      	it	ne
  403aca:	f06f 0508 	mvnne.w	r5, #8
  403ace:	2210      	movs	r2, #16
  403ad0:	2100      	movs	r1, #0
  403ad2:	4807      	ldr	r0, [pc, #28]	; (403af0 <close+0x78>)
  403ad4:	eb00 1004 	add.w	r0, r0, r4, lsl #4
  403ad8:	4b07      	ldr	r3, [pc, #28]	; (403af8 <close+0x80>)
  403ada:	4798      	blx	r3
  403adc:	e004      	b.n	403ae8 <close+0x70>
  403ade:	f06f 0505 	mvn.w	r5, #5
  403ae2:	e001      	b.n	403ae8 <close+0x70>
  403ae4:	f06f 0505 	mvn.w	r5, #5
  403ae8:	4628      	mov	r0, r5
  403aea:	b007      	add	sp, #28
  403aec:	bd30      	pop	{r4, r5, pc}
  403aee:	bf00      	nop
  403af0:	20401578 	.word	0x20401578
  403af4:	00401665 	.word	0x00401665
  403af8:	00401501 	.word	0x00401501

00403afc <spi_flash_enable>:
  403afc:	b570      	push	{r4, r5, r6, lr}
  403afe:	b082      	sub	sp, #8
  403b00:	4605      	mov	r5, r0
  403b02:	4b2b      	ldr	r3, [pc, #172]	; (403bb0 <spi_flash_enable+0xb4>)
  403b04:	4798      	blx	r3
  403b06:	f3c0 000b 	ubfx	r0, r0, #0, #12
  403b0a:	f5b0 7f68 	cmp.w	r0, #928	; 0x3a0
  403b0e:	d34a      	bcc.n	403ba6 <spi_flash_enable+0xaa>
  403b10:	a901      	add	r1, sp, #4
  403b12:	f241 4010 	movw	r0, #5136	; 0x1410
  403b16:	4b27      	ldr	r3, [pc, #156]	; (403bb4 <spi_flash_enable+0xb8>)
  403b18:	4798      	blx	r3
  403b1a:	4604      	mov	r4, r0
  403b1c:	2800      	cmp	r0, #0
  403b1e:	d143      	bne.n	403ba8 <spi_flash_enable+0xac>
  403b20:	4b25      	ldr	r3, [pc, #148]	; (403bb8 <spi_flash_enable+0xbc>)
  403b22:	9a01      	ldr	r2, [sp, #4]
  403b24:	4013      	ands	r3, r2
  403b26:	4925      	ldr	r1, [pc, #148]	; (403bbc <spi_flash_enable+0xc0>)
  403b28:	4319      	orrs	r1, r3
  403b2a:	9101      	str	r1, [sp, #4]
  403b2c:	f241 4010 	movw	r0, #5136	; 0x1410
  403b30:	4b23      	ldr	r3, [pc, #140]	; (403bc0 <spi_flash_enable+0xc4>)
  403b32:	4798      	blx	r3
  403b34:	b1b5      	cbz	r5, 403b64 <spi_flash_enable+0x68>
  403b36:	2100      	movs	r1, #0
  403b38:	4822      	ldr	r0, [pc, #136]	; (403bc4 <spi_flash_enable+0xc8>)
  403b3a:	4d21      	ldr	r5, [pc, #132]	; (403bc0 <spi_flash_enable+0xc4>)
  403b3c:	47a8      	blx	r5
  403b3e:	21ab      	movs	r1, #171	; 0xab
  403b40:	4821      	ldr	r0, [pc, #132]	; (403bc8 <spi_flash_enable+0xcc>)
  403b42:	47a8      	blx	r5
  403b44:	2101      	movs	r1, #1
  403b46:	4821      	ldr	r0, [pc, #132]	; (403bcc <spi_flash_enable+0xd0>)
  403b48:	47a8      	blx	r5
  403b4a:	2100      	movs	r1, #0
  403b4c:	4820      	ldr	r0, [pc, #128]	; (403bd0 <spi_flash_enable+0xd4>)
  403b4e:	47a8      	blx	r5
  403b50:	2181      	movs	r1, #129	; 0x81
  403b52:	4820      	ldr	r0, [pc, #128]	; (403bd4 <spi_flash_enable+0xd8>)
  403b54:	47a8      	blx	r5
  403b56:	4e20      	ldr	r6, [pc, #128]	; (403bd8 <spi_flash_enable+0xdc>)
  403b58:	4d20      	ldr	r5, [pc, #128]	; (403bdc <spi_flash_enable+0xe0>)
  403b5a:	4630      	mov	r0, r6
  403b5c:	47a8      	blx	r5
  403b5e:	2801      	cmp	r0, #1
  403b60:	d1fb      	bne.n	403b5a <spi_flash_enable+0x5e>
  403b62:	e015      	b.n	403b90 <spi_flash_enable+0x94>
  403b64:	2100      	movs	r1, #0
  403b66:	4817      	ldr	r0, [pc, #92]	; (403bc4 <spi_flash_enable+0xc8>)
  403b68:	4d15      	ldr	r5, [pc, #84]	; (403bc0 <spi_flash_enable+0xc4>)
  403b6a:	47a8      	blx	r5
  403b6c:	21b9      	movs	r1, #185	; 0xb9
  403b6e:	4816      	ldr	r0, [pc, #88]	; (403bc8 <spi_flash_enable+0xcc>)
  403b70:	47a8      	blx	r5
  403b72:	2101      	movs	r1, #1
  403b74:	4815      	ldr	r0, [pc, #84]	; (403bcc <spi_flash_enable+0xd0>)
  403b76:	47a8      	blx	r5
  403b78:	2100      	movs	r1, #0
  403b7a:	4815      	ldr	r0, [pc, #84]	; (403bd0 <spi_flash_enable+0xd4>)
  403b7c:	47a8      	blx	r5
  403b7e:	2181      	movs	r1, #129	; 0x81
  403b80:	4814      	ldr	r0, [pc, #80]	; (403bd4 <spi_flash_enable+0xd8>)
  403b82:	47a8      	blx	r5
  403b84:	4e14      	ldr	r6, [pc, #80]	; (403bd8 <spi_flash_enable+0xdc>)
  403b86:	4d15      	ldr	r5, [pc, #84]	; (403bdc <spi_flash_enable+0xe0>)
  403b88:	4630      	mov	r0, r6
  403b8a:	47a8      	blx	r5
  403b8c:	2801      	cmp	r0, #1
  403b8e:	d1fb      	bne.n	403b88 <spi_flash_enable+0x8c>
  403b90:	4909      	ldr	r1, [pc, #36]	; (403bb8 <spi_flash_enable+0xbc>)
  403b92:	9b01      	ldr	r3, [sp, #4]
  403b94:	4019      	ands	r1, r3
  403b96:	f441 3180 	orr.w	r1, r1, #65536	; 0x10000
  403b9a:	9101      	str	r1, [sp, #4]
  403b9c:	f241 4010 	movw	r0, #5136	; 0x1410
  403ba0:	4b07      	ldr	r3, [pc, #28]	; (403bc0 <spi_flash_enable+0xc4>)
  403ba2:	4798      	blx	r3
  403ba4:	e000      	b.n	403ba8 <spi_flash_enable+0xac>
  403ba6:	2400      	movs	r4, #0
  403ba8:	4620      	mov	r0, r4
  403baa:	b002      	add	sp, #8
  403bac:	bd70      	pop	{r4, r5, r6, pc}
  403bae:	bf00      	nop
  403bb0:	00402511 	.word	0x00402511
  403bb4:	00402809 	.word	0x00402809
  403bb8:	f8888fff 	.word	0xf8888fff
  403bbc:	01111000 	.word	0x01111000
  403bc0:	00402815 	.word	0x00402815
  403bc4:	00010208 	.word	0x00010208
  403bc8:	0001020c 	.word	0x0001020c
  403bcc:	00010214 	.word	0x00010214
  403bd0:	0001021c 	.word	0x0001021c
  403bd4:	00010204 	.word	0x00010204
  403bd8:	00010218 	.word	0x00010218
  403bdc:	004027fd 	.word	0x004027fd

00403be0 <sysclk_init>:
  403be0:	b510      	push	{r4, lr}
  403be2:	4810      	ldr	r0, [pc, #64]	; (403c24 <sysclk_init+0x44>)
  403be4:	4b10      	ldr	r3, [pc, #64]	; (403c28 <sysclk_init+0x48>)
  403be6:	4798      	blx	r3
  403be8:	213e      	movs	r1, #62	; 0x3e
  403bea:	2000      	movs	r0, #0
  403bec:	4b0f      	ldr	r3, [pc, #60]	; (403c2c <sysclk_init+0x4c>)
  403bee:	4798      	blx	r3
  403bf0:	4c0f      	ldr	r4, [pc, #60]	; (403c30 <sysclk_init+0x50>)
  403bf2:	47a0      	blx	r4
  403bf4:	2800      	cmp	r0, #0
  403bf6:	d0fc      	beq.n	403bf2 <sysclk_init+0x12>
  403bf8:	4b0e      	ldr	r3, [pc, #56]	; (403c34 <sysclk_init+0x54>)
  403bfa:	4798      	blx	r3
  403bfc:	4a0e      	ldr	r2, [pc, #56]	; (403c38 <sysclk_init+0x58>)
  403bfe:	4b0f      	ldr	r3, [pc, #60]	; (403c3c <sysclk_init+0x5c>)
  403c00:	629a      	str	r2, [r3, #40]	; 0x28
  403c02:	4c0f      	ldr	r4, [pc, #60]	; (403c40 <sysclk_init+0x60>)
  403c04:	47a0      	blx	r4
  403c06:	2800      	cmp	r0, #0
  403c08:	d0fc      	beq.n	403c04 <sysclk_init+0x24>
  403c0a:	2002      	movs	r0, #2
  403c0c:	4b0d      	ldr	r3, [pc, #52]	; (403c44 <sysclk_init+0x64>)
  403c0e:	4798      	blx	r3
  403c10:	2000      	movs	r0, #0
  403c12:	4b0d      	ldr	r3, [pc, #52]	; (403c48 <sysclk_init+0x68>)
  403c14:	4798      	blx	r3
  403c16:	4b0d      	ldr	r3, [pc, #52]	; (403c4c <sysclk_init+0x6c>)
  403c18:	4798      	blx	r3
  403c1a:	4802      	ldr	r0, [pc, #8]	; (403c24 <sysclk_init+0x44>)
  403c1c:	4b02      	ldr	r3, [pc, #8]	; (403c28 <sysclk_init+0x48>)
  403c1e:	4798      	blx	r3
  403c20:	bd10      	pop	{r4, pc}
  403c22:	bf00      	nop
  403c24:	11e1a300 	.word	0x11e1a300
  403c28:	00404ac5 	.word	0x00404ac5
  403c2c:	00404551 	.word	0x00404551
  403c30:	004045a5 	.word	0x004045a5
  403c34:	004045b5 	.word	0x004045b5
  403c38:	20183f01 	.word	0x20183f01
  403c3c:	400e0600 	.word	0x400e0600
  403c40:	004045c5 	.word	0x004045c5
  403c44:	004044ad 	.word	0x004044ad
  403c48:	004044e9 	.word	0x004044e9
  403c4c:	004049b5 	.word	0x004049b5

00403c50 <_read>:
  403c50:	b990      	cbnz	r0, 403c78 <_read+0x28>
  403c52:	e92d 41f0 	stmdb	sp!, {r4, r5, r6, r7, r8, lr}
  403c56:	460c      	mov	r4, r1
  403c58:	4690      	mov	r8, r2
  403c5a:	2a00      	cmp	r2, #0
  403c5c:	dd0f      	ble.n	403c7e <_read+0x2e>
  403c5e:	188f      	adds	r7, r1, r2
  403c60:	4e08      	ldr	r6, [pc, #32]	; (403c84 <_read+0x34>)
  403c62:	4d09      	ldr	r5, [pc, #36]	; (403c88 <_read+0x38>)
  403c64:	6830      	ldr	r0, [r6, #0]
  403c66:	4621      	mov	r1, r4
  403c68:	682b      	ldr	r3, [r5, #0]
  403c6a:	4798      	blx	r3
  403c6c:	3401      	adds	r4, #1
  403c6e:	42a7      	cmp	r7, r4
  403c70:	d1f8      	bne.n	403c64 <_read+0x14>
  403c72:	4640      	mov	r0, r8
  403c74:	e8bd 81f0 	ldmia.w	sp!, {r4, r5, r6, r7, r8, pc}
  403c78:	f04f 30ff 	mov.w	r0, #4294967295
  403c7c:	4770      	bx	lr
  403c7e:	2000      	movs	r0, #0
  403c80:	e8bd 81f0 	ldmia.w	sp!, {r4, r5, r6, r7, r8, pc}
  403c84:	2040163c 	.word	0x2040163c
  403c88:	20401634 	.word	0x20401634

00403c8c <_write>:
  403c8c:	3801      	subs	r0, #1
  403c8e:	2802      	cmp	r0, #2
  403c90:	d815      	bhi.n	403cbe <_write+0x32>
  403c92:	e92d 41f0 	stmdb	sp!, {r4, r5, r6, r7, r8, lr}
  403c96:	460e      	mov	r6, r1
  403c98:	4614      	mov	r4, r2
  403c9a:	b19a      	cbz	r2, 403cc4 <_write+0x38>
  403c9c:	460d      	mov	r5, r1
  403c9e:	f8df 8038 	ldr.w	r8, [pc, #56]	; 403cd8 <_write+0x4c>
  403ca2:	4f0c      	ldr	r7, [pc, #48]	; (403cd4 <_write+0x48>)
  403ca4:	f8d8 0000 	ldr.w	r0, [r8]
  403ca8:	f815 1b01 	ldrb.w	r1, [r5], #1
  403cac:	683b      	ldr	r3, [r7, #0]
  403cae:	4798      	blx	r3
  403cb0:	2800      	cmp	r0, #0
  403cb2:	db0a      	blt.n	403cca <_write+0x3e>
  403cb4:	1ba8      	subs	r0, r5, r6
  403cb6:	3c01      	subs	r4, #1
  403cb8:	d1f4      	bne.n	403ca4 <_write+0x18>
  403cba:	e8bd 81f0 	ldmia.w	sp!, {r4, r5, r6, r7, r8, pc}
  403cbe:	f04f 30ff 	mov.w	r0, #4294967295
  403cc2:	4770      	bx	lr
  403cc4:	2000      	movs	r0, #0
  403cc6:	e8bd 81f0 	ldmia.w	sp!, {r4, r5, r6, r7, r8, pc}
  403cca:	f04f 30ff 	mov.w	r0, #4294967295
  403cce:	e8bd 81f0 	ldmia.w	sp!, {r4, r5, r6, r7, r8, pc}
  403cd2:	bf00      	nop
  403cd4:	20401638 	.word	0x20401638
  403cd8:	2040163c 	.word	0x2040163c

00403cdc <board_init>:
  403cdc:	b5f8      	push	{r3, r4, r5, r6, r7, lr}
  403cde:	f44f 4200 	mov.w	r2, #32768	; 0x8000
  403ce2:	4bb6      	ldr	r3, [pc, #728]	; (403fbc <board_init+0x2e0>)
  403ce4:	605a      	str	r2, [r3, #4]
  403ce6:	f3bf 8f5f 	dmb	sy
  403cea:	4fb5      	ldr	r7, [pc, #724]	; (403fc0 <board_init+0x2e4>)
  403cec:	4638      	mov	r0, r7
  403cee:	4db5      	ldr	r5, [pc, #724]	; (403fc4 <board_init+0x2e8>)
  403cf0:	47a8      	blx	r5
  403cf2:	4eb5      	ldr	r6, [pc, #724]	; (403fc8 <board_init+0x2ec>)
  403cf4:	ea40 0106 	orr.w	r1, r0, r6
  403cf8:	2011      	movs	r0, #17
  403cfa:	4cb4      	ldr	r4, [pc, #720]	; (403fcc <board_init+0x2f0>)
  403cfc:	47a0      	blx	r4
  403cfe:	48b4      	ldr	r0, [pc, #720]	; (403fd0 <board_init+0x2f4>)
  403d00:	47a8      	blx	r5
  403d02:	49b4      	ldr	r1, [pc, #720]	; (403fd4 <board_init+0x2f8>)
  403d04:	4301      	orrs	r1, r0
  403d06:	48b4      	ldr	r0, [pc, #720]	; (403fd8 <board_init+0x2fc>)
  403d08:	47a0      	blx	r4
  403d0a:	4638      	mov	r0, r7
  403d0c:	47a8      	blx	r5
  403d0e:	ea40 0106 	orr.w	r1, r0, r6
  403d12:	48b2      	ldr	r0, [pc, #712]	; (403fdc <board_init+0x300>)
  403d14:	47a0      	blx	r4
  403d16:	48b2      	ldr	r0, [pc, #712]	; (403fe0 <board_init+0x304>)
  403d18:	47a8      	blx	r5
  403d1a:	f106 7608 	add.w	r6, r6, #35651584	; 0x2200000
  403d1e:	f506 3640 	add.w	r6, r6, #196608	; 0x30000
  403d22:	ea40 0106 	orr.w	r1, r0, r6
  403d26:	48af      	ldr	r0, [pc, #700]	; (403fe4 <board_init+0x308>)
  403d28:	47a0      	blx	r4
  403d2a:	48af      	ldr	r0, [pc, #700]	; (403fe8 <board_init+0x30c>)
  403d2c:	47a8      	blx	r5
  403d2e:	ea40 0106 	orr.w	r1, r0, r6
  403d32:	48ae      	ldr	r0, [pc, #696]	; (403fec <board_init+0x310>)
  403d34:	47a0      	blx	r4
  403d36:	f06f 4060 	mvn.w	r0, #3758096384	; 0xe0000000
  403d3a:	47a8      	blx	r5
  403d3c:	4eac      	ldr	r6, [pc, #688]	; (403ff0 <board_init+0x314>)
  403d3e:	ea40 0106 	orr.w	r1, r0, r6
  403d42:	48ac      	ldr	r0, [pc, #688]	; (403ff4 <board_init+0x318>)
  403d44:	47a0      	blx	r4
  403d46:	f06f 4070 	mvn.w	r0, #4026531840	; 0xf0000000
  403d4a:	47a8      	blx	r5
  403d4c:	4faa      	ldr	r7, [pc, #680]	; (403ff8 <board_init+0x31c>)
  403d4e:	ea40 0107 	orr.w	r1, r0, r7
  403d52:	48aa      	ldr	r0, [pc, #680]	; (403ffc <board_init+0x320>)
  403d54:	47a0      	blx	r4
  403d56:	f06f 4070 	mvn.w	r0, #4026531840	; 0xf0000000
  403d5a:	47a8      	blx	r5
  403d5c:	49a8      	ldr	r1, [pc, #672]	; (404000 <board_init+0x324>)
  403d5e:	4301      	orrs	r1, r0
  403d60:	48a8      	ldr	r0, [pc, #672]	; (404004 <board_init+0x328>)
  403d62:	47a0      	blx	r4
  403d64:	f06f 4060 	mvn.w	r0, #3758096384	; 0xe0000000
  403d68:	47a8      	blx	r5
  403d6a:	ea40 0107 	orr.w	r1, r0, r7
  403d6e:	48a6      	ldr	r0, [pc, #664]	; (404008 <board_init+0x32c>)
  403d70:	47a0      	blx	r4
  403d72:	48a6      	ldr	r0, [pc, #664]	; (40400c <board_init+0x330>)
  403d74:	47a8      	blx	r5
  403d76:	ea40 0106 	orr.w	r1, r0, r6
  403d7a:	48a5      	ldr	r0, [pc, #660]	; (404010 <board_init+0x334>)
  403d7c:	47a0      	blx	r4
  403d7e:	4ca5      	ldr	r4, [pc, #660]	; (404014 <board_init+0x338>)
  403d80:	6a63      	ldr	r3, [r4, #36]	; 0x24
  403d82:	f443 23e0 	orr.w	r3, r3, #458752	; 0x70000
  403d86:	6263      	str	r3, [r4, #36]	; 0x24
  403d88:	2005      	movs	r0, #5
  403d8a:	4ba3      	ldr	r3, [pc, #652]	; (404018 <board_init+0x33c>)
  403d8c:	4798      	blx	r3
  403d8e:	f3bf 8f4f 	dsb	sy
  403d92:	f3bf 8f6f 	isb	sy
  403d96:	f3bf 8f4f 	dsb	sy
  403d9a:	f3bf 8f6f 	isb	sy
  403d9e:	2300      	movs	r3, #0
  403da0:	f8c4 3250 	str.w	r3, [r4, #592]	; 0x250
  403da4:	6963      	ldr	r3, [r4, #20]
  403da6:	f443 3300 	orr.w	r3, r3, #131072	; 0x20000
  403daa:	6163      	str	r3, [r4, #20]
  403dac:	f3bf 8f4f 	dsb	sy
  403db0:	f3bf 8f6f 	isb	sy
  403db4:	f8d4 6080 	ldr.w	r6, [r4, #128]	; 0x80
  403db8:	f3c6 354e 	ubfx	r5, r6, #13, #15
  403dbc:	f006 0707 	and.w	r7, r6, #7
  403dc0:	3704      	adds	r7, #4
  403dc2:	f3c6 06c9 	ubfx	r6, r6, #3, #10
  403dc6:	fab6 f086 	clz	r0, r6
  403dca:	f000 001f 	and.w	r0, r0, #31
  403dce:	f3bf 8f4f 	dsb	sy
  403dd2:	4633      	mov	r3, r6
  403dd4:	fa05 f107 	lsl.w	r1, r5, r7
  403dd8:	fa03 f200 	lsl.w	r2, r3, r0
  403ddc:	430a      	orrs	r2, r1
  403dde:	f8c4 2260 	str.w	r2, [r4, #608]	; 0x260
  403de2:	3b01      	subs	r3, #1
  403de4:	f1b3 3fff 	cmp.w	r3, #4294967295
  403de8:	d1f6      	bne.n	403dd8 <board_init+0xfc>
  403dea:	3d01      	subs	r5, #1
  403dec:	f1b5 3fff 	cmp.w	r5, #4294967295
  403df0:	d1ef      	bne.n	403dd2 <board_init+0xf6>
  403df2:	f3bf 8f4f 	dsb	sy
  403df6:	4b87      	ldr	r3, [pc, #540]	; (404014 <board_init+0x338>)
  403df8:	695a      	ldr	r2, [r3, #20]
  403dfa:	f442 3280 	orr.w	r2, r2, #65536	; 0x10000
  403dfe:	615a      	str	r2, [r3, #20]
  403e00:	f3bf 8f4f 	dsb	sy
  403e04:	f3bf 8f6f 	isb	sy
  403e08:	4a84      	ldr	r2, [pc, #528]	; (40401c <board_init+0x340>)
  403e0a:	4985      	ldr	r1, [pc, #532]	; (404020 <board_init+0x344>)
  403e0c:	6051      	str	r1, [r2, #4]
  403e0e:	f5a1 7180 	sub.w	r1, r1, #256	; 0x100
  403e12:	6051      	str	r1, [r2, #4]
  403e14:	f3bf 8f4f 	dsb	sy
  403e18:	f3bf 8f6f 	isb	sy
  403e1c:	f8d3 2290 	ldr.w	r2, [r3, #656]	; 0x290
  403e20:	f022 0201 	bic.w	r2, r2, #1
  403e24:	f8c3 2290 	str.w	r2, [r3, #656]	; 0x290
  403e28:	f8d3 2294 	ldr.w	r2, [r3, #660]	; 0x294
  403e2c:	f022 0201 	bic.w	r2, r2, #1
  403e30:	f8c3 2294 	str.w	r2, [r3, #660]	; 0x294
  403e34:	f3bf 8f4f 	dsb	sy
  403e38:	f3bf 8f6f 	isb	sy
  403e3c:	200a      	movs	r0, #10
  403e3e:	4c79      	ldr	r4, [pc, #484]	; (404024 <board_init+0x348>)
  403e40:	47a0      	blx	r4
  403e42:	200b      	movs	r0, #11
  403e44:	47a0      	blx	r4
  403e46:	200c      	movs	r0, #12
  403e48:	47a0      	blx	r4
  403e4a:	2010      	movs	r0, #16
  403e4c:	47a0      	blx	r4
  403e4e:	2011      	movs	r0, #17
  403e50:	47a0      	blx	r4
  403e52:	4a75      	ldr	r2, [pc, #468]	; (404028 <board_init+0x34c>)
  403e54:	f44f 7380 	mov.w	r3, #256	; 0x100
  403e58:	6113      	str	r3, [r2, #16]
  403e5a:	f8c2 30a0 	str.w	r3, [r2, #160]	; 0xa0
  403e5e:	6313      	str	r3, [r2, #48]	; 0x30
  403e60:	4b72      	ldr	r3, [pc, #456]	; (40402c <board_init+0x350>)
  403e62:	f44f 6100 	mov.w	r1, #2048	; 0x800
  403e66:	6159      	str	r1, [r3, #20]
  403e68:	f8c3 10a0 	str.w	r1, [r3, #160]	; 0xa0
  403e6c:	6659      	str	r1, [r3, #100]	; 0x64
  403e6e:	f8c3 1090 	str.w	r1, [r3, #144]	; 0x90
  403e72:	6559      	str	r1, [r3, #84]	; 0x54
  403e74:	6219      	str	r1, [r3, #32]
  403e76:	f8c3 1084 	str.w	r1, [r3, #132]	; 0x84
  403e7a:	6f18      	ldr	r0, [r3, #112]	; 0x70
  403e7c:	f420 6000 	bic.w	r0, r0, #2048	; 0x800
  403e80:	6718      	str	r0, [r3, #112]	; 0x70
  403e82:	6f58      	ldr	r0, [r3, #116]	; 0x74
  403e84:	f420 6000 	bic.w	r0, r0, #2048	; 0x800
  403e88:	6758      	str	r0, [r3, #116]	; 0x74
  403e8a:	f8c3 10c0 	str.w	r1, [r3, #192]	; 0xc0
  403e8e:	f8c3 10d4 	str.w	r1, [r3, #212]	; 0xd4
  403e92:	f8c3 10b0 	str.w	r1, [r3, #176]	; 0xb0
  403e96:	f44f 1100 	mov.w	r1, #2097152	; 0x200000
  403e9a:	6619      	str	r1, [r3, #96]	; 0x60
  403e9c:	f8c3 1090 	str.w	r1, [r3, #144]	; 0x90
  403ea0:	6559      	str	r1, [r3, #84]	; 0x54
  403ea2:	6259      	str	r1, [r3, #36]	; 0x24
  403ea4:	f8c3 1080 	str.w	r1, [r3, #128]	; 0x80
  403ea8:	6f18      	ldr	r0, [r3, #112]	; 0x70
  403eaa:	f420 1000 	bic.w	r0, r0, #2097152	; 0x200000
  403eae:	6718      	str	r0, [r3, #112]	; 0x70
  403eb0:	6f58      	ldr	r0, [r3, #116]	; 0x74
  403eb2:	f420 1000 	bic.w	r0, r0, #2097152	; 0x200000
  403eb6:	6758      	str	r0, [r3, #116]	; 0x74
  403eb8:	6059      	str	r1, [r3, #4]
  403eba:	485d      	ldr	r0, [pc, #372]	; (404030 <board_init+0x354>)
  403ebc:	f8d0 1114 	ldr.w	r1, [r0, #276]	; 0x114
  403ec0:	f041 0110 	orr.w	r1, r1, #16
  403ec4:	f8c0 1114 	str.w	r1, [r0, #276]	; 0x114
  403ec8:	495a      	ldr	r1, [pc, #360]	; (404034 <board_init+0x358>)
  403eca:	2010      	movs	r0, #16
  403ecc:	6608      	str	r0, [r1, #96]	; 0x60
  403ece:	f8c1 0090 	str.w	r0, [r1, #144]	; 0x90
  403ed2:	6548      	str	r0, [r1, #84]	; 0x54
  403ed4:	6248      	str	r0, [r1, #36]	; 0x24
  403ed6:	f8c1 0080 	str.w	r0, [r1, #128]	; 0x80
  403eda:	6f0c      	ldr	r4, [r1, #112]	; 0x70
  403edc:	4304      	orrs	r4, r0
  403ede:	670c      	str	r4, [r1, #112]	; 0x70
  403ee0:	6f4c      	ldr	r4, [r1, #116]	; 0x74
  403ee2:	4304      	orrs	r4, r0
  403ee4:	674c      	str	r4, [r1, #116]	; 0x74
  403ee6:	6048      	str	r0, [r1, #4]
  403ee8:	f04f 5180 	mov.w	r1, #268435456	; 0x10000000
  403eec:	6619      	str	r1, [r3, #96]	; 0x60
  403eee:	f8c3 1090 	str.w	r1, [r3, #144]	; 0x90
  403ef2:	6559      	str	r1, [r3, #84]	; 0x54
  403ef4:	6259      	str	r1, [r3, #36]	; 0x24
  403ef6:	f8c3 1080 	str.w	r1, [r3, #128]	; 0x80
  403efa:	6f18      	ldr	r0, [r3, #112]	; 0x70
  403efc:	f020 5080 	bic.w	r0, r0, #268435456	; 0x10000000
  403f00:	6718      	str	r0, [r3, #112]	; 0x70
  403f02:	6f58      	ldr	r0, [r3, #116]	; 0x74
  403f04:	4308      	orrs	r0, r1
  403f06:	6758      	str	r0, [r3, #116]	; 0x74
  403f08:	6059      	str	r1, [r3, #4]
  403f0a:	f04f 7100 	mov.w	r1, #33554432	; 0x2000000
  403f0e:	6619      	str	r1, [r3, #96]	; 0x60
  403f10:	f8c3 1090 	str.w	r1, [r3, #144]	; 0x90
  403f14:	6559      	str	r1, [r3, #84]	; 0x54
  403f16:	6259      	str	r1, [r3, #36]	; 0x24
  403f18:	f8c3 1080 	str.w	r1, [r3, #128]	; 0x80
  403f1c:	6f18      	ldr	r0, [r3, #112]	; 0x70
  403f1e:	4308      	orrs	r0, r1
  403f20:	6718      	str	r0, [r3, #112]	; 0x70
  403f22:	6f58      	ldr	r0, [r3, #116]	; 0x74
  403f24:	4308      	orrs	r0, r1
  403f26:	6758      	str	r0, [r3, #116]	; 0x74
  403f28:	6059      	str	r1, [r3, #4]
  403f2a:	f04f 4180 	mov.w	r1, #1073741824	; 0x40000000
  403f2e:	6619      	str	r1, [r3, #96]	; 0x60
  403f30:	f8c3 1090 	str.w	r1, [r3, #144]	; 0x90
  403f34:	6559      	str	r1, [r3, #84]	; 0x54
  403f36:	6259      	str	r1, [r3, #36]	; 0x24
  403f38:	f8c3 1080 	str.w	r1, [r3, #128]	; 0x80
  403f3c:	6f18      	ldr	r0, [r3, #112]	; 0x70
  403f3e:	f020 4080 	bic.w	r0, r0, #1073741824	; 0x40000000
  403f42:	6718      	str	r0, [r3, #112]	; 0x70
  403f44:	6f58      	ldr	r0, [r3, #116]	; 0x74
  403f46:	4308      	orrs	r0, r1
  403f48:	6758      	str	r0, [r3, #116]	; 0x74
  403f4a:	6059      	str	r1, [r3, #4]
  403f4c:	f04f 4100 	mov.w	r1, #2147483648	; 0x80000000
  403f50:	6619      	str	r1, [r3, #96]	; 0x60
  403f52:	f8c3 1090 	str.w	r1, [r3, #144]	; 0x90
  403f56:	6559      	str	r1, [r3, #84]	; 0x54
  403f58:	6259      	str	r1, [r3, #36]	; 0x24
  403f5a:	f8c3 1080 	str.w	r1, [r3, #128]	; 0x80
  403f5e:	6f18      	ldr	r0, [r3, #112]	; 0x70
  403f60:	f020 4000 	bic.w	r0, r0, #2147483648	; 0x80000000
  403f64:	6718      	str	r0, [r3, #112]	; 0x70
  403f66:	6f58      	ldr	r0, [r3, #116]	; 0x74
  403f68:	4308      	orrs	r0, r1
  403f6a:	6758      	str	r0, [r3, #116]	; 0x74
  403f6c:	6059      	str	r1, [r3, #4]
  403f6e:	f04f 6180 	mov.w	r1, #67108864	; 0x4000000
  403f72:	6619      	str	r1, [r3, #96]	; 0x60
  403f74:	f8c3 1090 	str.w	r1, [r3, #144]	; 0x90
  403f78:	6559      	str	r1, [r3, #84]	; 0x54
  403f7a:	6259      	str	r1, [r3, #36]	; 0x24
  403f7c:	f8c3 1080 	str.w	r1, [r3, #128]	; 0x80
  403f80:	6f18      	ldr	r0, [r3, #112]	; 0x70
  403f82:	f020 6080 	bic.w	r0, r0, #67108864	; 0x4000000
  403f86:	6718      	str	r0, [r3, #112]	; 0x70
  403f88:	6f58      	ldr	r0, [r3, #116]	; 0x74
  403f8a:	4308      	orrs	r0, r1
  403f8c:	6758      	str	r0, [r3, #116]	; 0x74
  403f8e:	6059      	str	r1, [r3, #4]
  403f90:	f04f 6100 	mov.w	r1, #134217728	; 0x8000000
  403f94:	6619      	str	r1, [r3, #96]	; 0x60
  403f96:	f8c3 1090 	str.w	r1, [r3, #144]	; 0x90
  403f9a:	6559      	str	r1, [r3, #84]	; 0x54
  403f9c:	6259      	str	r1, [r3, #36]	; 0x24
  403f9e:	f8c3 1080 	str.w	r1, [r3, #128]	; 0x80
  403fa2:	6f18      	ldr	r0, [r3, #112]	; 0x70
  403fa4:	f020 6000 	bic.w	r0, r0, #134217728	; 0x8000000
  403fa8:	6718      	str	r0, [r3, #112]	; 0x70
  403faa:	6f58      	ldr	r0, [r3, #116]	; 0x74
  403fac:	4308      	orrs	r0, r1
  403fae:	6758      	str	r0, [r3, #116]	; 0x74
  403fb0:	6059      	str	r1, [r3, #4]
  403fb2:	f44f 3380 	mov.w	r3, #65536	; 0x10000
  403fb6:	6153      	str	r3, [r2, #20]
  403fb8:	e03e      	b.n	404038 <board_init+0x35c>
  403fba:	bf00      	nop
  403fbc:	400e1850 	.word	0x400e1850
  403fc0:	003fffff 	.word	0x003fffff
  403fc4:	00404075 	.word	0x00404075
  403fc8:	01000001 	.word	0x01000001
  403fcc:	00404069 	.word	0x00404069
  403fd0:	001fffff 	.word	0x001fffff
  403fd4:	06230001 	.word	0x06230001
  403fd8:	00400012 	.word	0x00400012
  403fdc:	20000013 	.word	0x20000013
  403fe0:	0003ffff 	.word	0x0003ffff
  403fe4:	20400014 	.word	0x20400014
  403fe8:	0001ffff 	.word	0x0001ffff
  403fec:	20440015 	.word	0x20440015
  403ff0:	13010001 	.word	0x13010001
  403ff4:	40000016 	.word	0x40000016
  403ff8:	03000001 	.word	0x03000001
  403ffc:	60000017 	.word	0x60000017
  404000:	03250001 	.word	0x03250001
  404004:	70000018 	.word	0x70000018
  404008:	80000019 	.word	0x80000019
  40400c:	000fffff 	.word	0x000fffff
  404010:	a010001a 	.word	0xa010001a
  404014:	e000ed00 	.word	0xe000ed00
  404018:	0040405d 	.word	0x0040405d
  40401c:	400e0c00 	.word	0x400e0c00
  404020:	5a00080c 	.word	0x5a00080c
  404024:	004045d5 	.word	0x004045d5
  404028:	400e1200 	.word	0x400e1200
  40402c:	400e0e00 	.word	0x400e0e00
  404030:	40088000 	.word	0x40088000
  404034:	400e1000 	.word	0x400e1000
  404038:	f8c2 30a0 	str.w	r3, [r2, #160]	; 0xa0
  40403c:	6653      	str	r3, [r2, #100]	; 0x64
  40403e:	f8c2 3090 	str.w	r3, [r2, #144]	; 0x90
  404042:	6553      	str	r3, [r2, #84]	; 0x54
  404044:	6253      	str	r3, [r2, #36]	; 0x24
  404046:	f8c2 3080 	str.w	r3, [r2, #128]	; 0x80
  40404a:	6f13      	ldr	r3, [r2, #112]	; 0x70
  40404c:	f423 3380 	bic.w	r3, r3, #65536	; 0x10000
  404050:	6713      	str	r3, [r2, #112]	; 0x70
  404052:	6f53      	ldr	r3, [r2, #116]	; 0x74
  404054:	f423 3380 	bic.w	r3, r3, #65536	; 0x10000
  404058:	6753      	str	r3, [r2, #116]	; 0x74
  40405a:	bdf8      	pop	{r3, r4, r5, r6, r7, pc}

0040405c <mpu_enable>:
  40405c:	4b01      	ldr	r3, [pc, #4]	; (404064 <mpu_enable+0x8>)
  40405e:	6058      	str	r0, [r3, #4]
  404060:	4770      	bx	lr
  404062:	bf00      	nop
  404064:	e000ed90 	.word	0xe000ed90

00404068 <mpu_set_region>:
  404068:	4b01      	ldr	r3, [pc, #4]	; (404070 <mpu_set_region+0x8>)
  40406a:	60d8      	str	r0, [r3, #12]
  40406c:	6119      	str	r1, [r3, #16]
  40406e:	4770      	bx	lr
  404070:	e000ed90 	.word	0xe000ed90

00404074 <mpu_cal_mpu_region_size>:
  404074:	2820      	cmp	r0, #32
  404076:	d908      	bls.n	40408a <mpu_cal_mpu_region_size+0x16>
  404078:	2304      	movs	r3, #4
  40407a:	2220      	movs	r2, #32
  40407c:	3301      	adds	r3, #1
  40407e:	0052      	lsls	r2, r2, #1
  404080:	4290      	cmp	r0, r2
  404082:	d903      	bls.n	40408c <mpu_cal_mpu_region_size+0x18>
  404084:	2b1e      	cmp	r3, #30
  404086:	d9f9      	bls.n	40407c <mpu_cal_mpu_region_size+0x8>
  404088:	e000      	b.n	40408c <mpu_cal_mpu_region_size+0x18>
  40408a:	2304      	movs	r3, #4
  40408c:	0058      	lsls	r0, r3, #1
  40408e:	4770      	bx	lr

00404090 <pio_pull_up>:
  404090:	b10a      	cbz	r2, 404096 <pio_pull_up+0x6>
  404092:	6641      	str	r1, [r0, #100]	; 0x64
  404094:	4770      	bx	lr
  404096:	6601      	str	r1, [r0, #96]	; 0x60
  404098:	4770      	bx	lr
  40409a:	bf00      	nop

0040409c <pio_set_peripheral>:
  40409c:	6442      	str	r2, [r0, #68]	; 0x44
  40409e:	f1b1 5fc0 	cmp.w	r1, #402653184	; 0x18000000
  4040a2:	d02f      	beq.n	404104 <pio_set_peripheral+0x68>
  4040a4:	d807      	bhi.n	4040b6 <pio_set_peripheral+0x1a>
  4040a6:	f1b1 6f00 	cmp.w	r1, #134217728	; 0x8000000
  4040aa:	d014      	beq.n	4040d6 <pio_set_peripheral+0x3a>
  4040ac:	f1b1 5f80 	cmp.w	r1, #268435456	; 0x10000000
  4040b0:	d01e      	beq.n	4040f0 <pio_set_peripheral+0x54>
  4040b2:	b939      	cbnz	r1, 4040c4 <pio_set_peripheral+0x28>
  4040b4:	4770      	bx	lr
  4040b6:	f1b1 5f20 	cmp.w	r1, #671088640	; 0x28000000
  4040ba:	d037      	beq.n	40412c <pio_set_peripheral+0x90>
  4040bc:	d804      	bhi.n	4040c8 <pio_set_peripheral+0x2c>
  4040be:	f1b1 5f00 	cmp.w	r1, #536870912	; 0x20000000
  4040c2:	d029      	beq.n	404118 <pio_set_peripheral+0x7c>
  4040c4:	6042      	str	r2, [r0, #4]
  4040c6:	4770      	bx	lr
  4040c8:	f1b1 5f40 	cmp.w	r1, #805306368	; 0x30000000
  4040cc:	d02e      	beq.n	40412c <pio_set_peripheral+0x90>
  4040ce:	f1b1 5f60 	cmp.w	r1, #939524096	; 0x38000000
  4040d2:	d02b      	beq.n	40412c <pio_set_peripheral+0x90>
  4040d4:	e7f6      	b.n	4040c4 <pio_set_peripheral+0x28>
  4040d6:	b410      	push	{r4}
  4040d8:	6f04      	ldr	r4, [r0, #112]	; 0x70
  4040da:	6f01      	ldr	r1, [r0, #112]	; 0x70
  4040dc:	43d3      	mvns	r3, r2
  4040de:	4021      	ands	r1, r4
  4040e0:	4019      	ands	r1, r3
  4040e2:	6701      	str	r1, [r0, #112]	; 0x70
  4040e4:	6f44      	ldr	r4, [r0, #116]	; 0x74
  4040e6:	6f41      	ldr	r1, [r0, #116]	; 0x74
  4040e8:	4021      	ands	r1, r4
  4040ea:	400b      	ands	r3, r1
  4040ec:	6743      	str	r3, [r0, #116]	; 0x74
  4040ee:	e01a      	b.n	404126 <pio_set_peripheral+0x8a>
  4040f0:	6f03      	ldr	r3, [r0, #112]	; 0x70
  4040f2:	4313      	orrs	r3, r2
  4040f4:	6703      	str	r3, [r0, #112]	; 0x70
  4040f6:	6f41      	ldr	r1, [r0, #116]	; 0x74
  4040f8:	6f43      	ldr	r3, [r0, #116]	; 0x74
  4040fa:	400b      	ands	r3, r1
  4040fc:	ea23 0302 	bic.w	r3, r3, r2
  404100:	6743      	str	r3, [r0, #116]	; 0x74
  404102:	e7df      	b.n	4040c4 <pio_set_peripheral+0x28>
  404104:	6f01      	ldr	r1, [r0, #112]	; 0x70
  404106:	6f03      	ldr	r3, [r0, #112]	; 0x70
  404108:	400b      	ands	r3, r1
  40410a:	ea23 0302 	bic.w	r3, r3, r2
  40410e:	6703      	str	r3, [r0, #112]	; 0x70
  404110:	6f43      	ldr	r3, [r0, #116]	; 0x74
  404112:	4313      	orrs	r3, r2
  404114:	6743      	str	r3, [r0, #116]	; 0x74
  404116:	e7d5      	b.n	4040c4 <pio_set_peripheral+0x28>
  404118:	6f03      	ldr	r3, [r0, #112]	; 0x70
  40411a:	4313      	orrs	r3, r2
  40411c:	6703      	str	r3, [r0, #112]	; 0x70
  40411e:	6f43      	ldr	r3, [r0, #116]	; 0x74
  404120:	4313      	orrs	r3, r2
  404122:	6743      	str	r3, [r0, #116]	; 0x74
  404124:	e7ce      	b.n	4040c4 <pio_set_peripheral+0x28>
  404126:	6042      	str	r2, [r0, #4]
  404128:	f85d 4b04 	ldr.w	r4, [sp], #4
  40412c:	4770      	bx	lr
  40412e:	bf00      	nop

00404130 <pio_set_input>:
  404130:	6441      	str	r1, [r0, #68]	; 0x44
  404132:	f012 0f01 	tst.w	r2, #1
  404136:	d001      	beq.n	40413c <pio_set_input+0xc>
  404138:	6641      	str	r1, [r0, #100]	; 0x64
  40413a:	e000      	b.n	40413e <pio_set_input+0xe>
  40413c:	6601      	str	r1, [r0, #96]	; 0x60
  40413e:	f012 0f0a 	tst.w	r2, #10
  404142:	d001      	beq.n	404148 <pio_set_input+0x18>
  404144:	6201      	str	r1, [r0, #32]
  404146:	e000      	b.n	40414a <pio_set_input+0x1a>
  404148:	6241      	str	r1, [r0, #36]	; 0x24
  40414a:	f012 0f02 	tst.w	r2, #2
  40414e:	d002      	beq.n	404156 <pio_set_input+0x26>
  404150:	f8c0 1080 	str.w	r1, [r0, #128]	; 0x80
  404154:	e004      	b.n	404160 <pio_set_input+0x30>
  404156:	f012 0f08 	tst.w	r2, #8
  40415a:	d001      	beq.n	404160 <pio_set_input+0x30>
  40415c:	f8c0 1084 	str.w	r1, [r0, #132]	; 0x84
  404160:	6141      	str	r1, [r0, #20]
  404162:	6001      	str	r1, [r0, #0]
  404164:	4770      	bx	lr
  404166:	bf00      	nop

00404168 <pio_set_output>:
  404168:	b410      	push	{r4}
  40416a:	6441      	str	r1, [r0, #68]	; 0x44
  40416c:	9c01      	ldr	r4, [sp, #4]
  40416e:	b10c      	cbz	r4, 404174 <pio_set_output+0xc>
  404170:	6641      	str	r1, [r0, #100]	; 0x64
  404172:	e000      	b.n	404176 <pio_set_output+0xe>
  404174:	6601      	str	r1, [r0, #96]	; 0x60
  404176:	b10b      	cbz	r3, 40417c <pio_set_output+0x14>
  404178:	6501      	str	r1, [r0, #80]	; 0x50
  40417a:	e000      	b.n	40417e <pio_set_output+0x16>
  40417c:	6541      	str	r1, [r0, #84]	; 0x54
  40417e:	b10a      	cbz	r2, 404184 <pio_set_output+0x1c>
  404180:	6301      	str	r1, [r0, #48]	; 0x30
  404182:	e000      	b.n	404186 <pio_set_output+0x1e>
  404184:	6341      	str	r1, [r0, #52]	; 0x34
  404186:	6101      	str	r1, [r0, #16]
  404188:	6001      	str	r1, [r0, #0]
  40418a:	f85d 4b04 	ldr.w	r4, [sp], #4
  40418e:	4770      	bx	lr

00404190 <pio_configure_interrupt>:
  404190:	f012 0f10 	tst.w	r2, #16
  404194:	d012      	beq.n	4041bc <pio_configure_interrupt+0x2c>
  404196:	f8c0 10b0 	str.w	r1, [r0, #176]	; 0xb0
  40419a:	f012 0f20 	tst.w	r2, #32
  40419e:	d002      	beq.n	4041a6 <pio_configure_interrupt+0x16>
  4041a0:	f8c0 10d4 	str.w	r1, [r0, #212]	; 0xd4
  4041a4:	e001      	b.n	4041aa <pio_configure_interrupt+0x1a>
  4041a6:	f8c0 10d0 	str.w	r1, [r0, #208]	; 0xd0
  4041aa:	f012 0f40 	tst.w	r2, #64	; 0x40
  4041ae:	d002      	beq.n	4041b6 <pio_configure_interrupt+0x26>
  4041b0:	f8c0 10c0 	str.w	r1, [r0, #192]	; 0xc0
  4041b4:	4770      	bx	lr
  4041b6:	f8c0 10c4 	str.w	r1, [r0, #196]	; 0xc4
  4041ba:	4770      	bx	lr
  4041bc:	f8c0 10b4 	str.w	r1, [r0, #180]	; 0xb4
  4041c0:	4770      	bx	lr
  4041c2:	bf00      	nop

004041c4 <pio_enable_interrupt>:
  4041c4:	6401      	str	r1, [r0, #64]	; 0x40
  4041c6:	4770      	bx	lr

004041c8 <pio_disable_interrupt>:
  4041c8:	6441      	str	r1, [r0, #68]	; 0x44
  4041ca:	4770      	bx	lr

004041cc <pio_get_interrupt_status>:
  4041cc:	6cc0      	ldr	r0, [r0, #76]	; 0x4c
  4041ce:	4770      	bx	lr

004041d0 <pio_get_interrupt_mask>:
  4041d0:	6c80      	ldr	r0, [r0, #72]	; 0x48
  4041d2:	4770      	bx	lr

004041d4 <pio_configure_pin>:
  4041d4:	b570      	push	{r4, r5, r6, lr}
  4041d6:	b082      	sub	sp, #8
  4041d8:	460d      	mov	r5, r1
  4041da:	4c47      	ldr	r4, [pc, #284]	; (4042f8 <pio_configure_pin+0x124>)
  4041dc:	eb04 1450 	add.w	r4, r4, r0, lsr #5
  4041e0:	0264      	lsls	r4, r4, #9
  4041e2:	f001 43f0 	and.w	r3, r1, #2013265920	; 0x78000000
  4041e6:	f1b3 5f00 	cmp.w	r3, #536870912	; 0x20000000
  4041ea:	d04d      	beq.n	404288 <pio_configure_pin+0xb4>
  4041ec:	d809      	bhi.n	404202 <pio_configure_pin+0x2e>
  4041ee:	f1b3 5f80 	cmp.w	r3, #268435456	; 0x10000000
  4041f2:	d023      	beq.n	40423c <pio_configure_pin+0x68>
  4041f4:	f1b3 5fc0 	cmp.w	r3, #402653184	; 0x18000000
  4041f8:	d033      	beq.n	404262 <pio_configure_pin+0x8e>
  4041fa:	f1b3 6f00 	cmp.w	r3, #134217728	; 0x8000000
  4041fe:	d177      	bne.n	4042f0 <pio_configure_pin+0x11c>
  404200:	e009      	b.n	404216 <pio_configure_pin+0x42>
  404202:	f1b3 5f40 	cmp.w	r3, #805306368	; 0x30000000
  404206:	d05d      	beq.n	4042c4 <pio_configure_pin+0xf0>
  404208:	f1b3 5f60 	cmp.w	r3, #939524096	; 0x38000000
  40420c:	d05a      	beq.n	4042c4 <pio_configure_pin+0xf0>
  40420e:	f1b3 5f20 	cmp.w	r3, #671088640	; 0x28000000
  404212:	d04c      	beq.n	4042ae <pio_configure_pin+0xda>
  404214:	e06c      	b.n	4042f0 <pio_configure_pin+0x11c>
  404216:	f000 001f 	and.w	r0, r0, #31
  40421a:	2601      	movs	r6, #1
  40421c:	4086      	lsls	r6, r0
  40421e:	4632      	mov	r2, r6
  404220:	f04f 6100 	mov.w	r1, #134217728	; 0x8000000
  404224:	4620      	mov	r0, r4
  404226:	4b35      	ldr	r3, [pc, #212]	; (4042fc <pio_configure_pin+0x128>)
  404228:	4798      	blx	r3
  40422a:	f015 0f01 	tst.w	r5, #1
  40422e:	d002      	beq.n	404236 <pio_configure_pin+0x62>
  404230:	6666      	str	r6, [r4, #100]	; 0x64
  404232:	2001      	movs	r0, #1
  404234:	e05d      	b.n	4042f2 <pio_configure_pin+0x11e>
  404236:	6626      	str	r6, [r4, #96]	; 0x60
  404238:	2001      	movs	r0, #1
  40423a:	e05a      	b.n	4042f2 <pio_configure_pin+0x11e>
  40423c:	f000 001f 	and.w	r0, r0, #31
  404240:	2601      	movs	r6, #1
  404242:	4086      	lsls	r6, r0
  404244:	4632      	mov	r2, r6
  404246:	f04f 5180 	mov.w	r1, #268435456	; 0x10000000
  40424a:	4620      	mov	r0, r4
  40424c:	4b2b      	ldr	r3, [pc, #172]	; (4042fc <pio_configure_pin+0x128>)
  40424e:	4798      	blx	r3
  404250:	f015 0f01 	tst.w	r5, #1
  404254:	d002      	beq.n	40425c <pio_configure_pin+0x88>
  404256:	6666      	str	r6, [r4, #100]	; 0x64
  404258:	2001      	movs	r0, #1
  40425a:	e04a      	b.n	4042f2 <pio_configure_pin+0x11e>
  40425c:	6626      	str	r6, [r4, #96]	; 0x60
  40425e:	2001      	movs	r0, #1
  404260:	e047      	b.n	4042f2 <pio_configure_pin+0x11e>
  404262:	f000 001f 	and.w	r0, r0, #31
  404266:	2601      	movs	r6, #1
  404268:	4086      	lsls	r6, r0
  40426a:	4632      	mov	r2, r6
  40426c:	f04f 51c0 	mov.w	r1, #402653184	; 0x18000000
  404270:	4620      	mov	r0, r4
  404272:	4b22      	ldr	r3, [pc, #136]	; (4042fc <pio_configure_pin+0x128>)
  404274:	4798      	blx	r3
  404276:	f015 0f01 	tst.w	r5, #1
  40427a:	d002      	beq.n	404282 <pio_configure_pin+0xae>
  40427c:	6666      	str	r6, [r4, #100]	; 0x64
  40427e:	2001      	movs	r0, #1
  404280:	e037      	b.n	4042f2 <pio_configure_pin+0x11e>
  404282:	6626      	str	r6, [r4, #96]	; 0x60
  404284:	2001      	movs	r0, #1
  404286:	e034      	b.n	4042f2 <pio_configure_pin+0x11e>
  404288:	f000 001f 	and.w	r0, r0, #31
  40428c:	2601      	movs	r6, #1
  40428e:	4086      	lsls	r6, r0
  404290:	4632      	mov	r2, r6
  404292:	f04f 5100 	mov.w	r1, #536870912	; 0x20000000
  404296:	4620      	mov	r0, r4
  404298:	4b18      	ldr	r3, [pc, #96]	; (4042fc <pio_configure_pin+0x128>)
  40429a:	4798      	blx	r3
  40429c:	f015 0f01 	tst.w	r5, #1
  4042a0:	d002      	beq.n	4042a8 <pio_configure_pin+0xd4>
  4042a2:	6666      	str	r6, [r4, #100]	; 0x64
  4042a4:	2001      	movs	r0, #1
  4042a6:	e024      	b.n	4042f2 <pio_configure_pin+0x11e>
  4042a8:	6626      	str	r6, [r4, #96]	; 0x60
  4042aa:	2001      	movs	r0, #1
  4042ac:	e021      	b.n	4042f2 <pio_configure_pin+0x11e>
  4042ae:	f000 011f 	and.w	r1, r0, #31
  4042b2:	2601      	movs	r6, #1
  4042b4:	462a      	mov	r2, r5
  4042b6:	fa06 f101 	lsl.w	r1, r6, r1
  4042ba:	4620      	mov	r0, r4
  4042bc:	4b10      	ldr	r3, [pc, #64]	; (404300 <pio_configure_pin+0x12c>)
  4042be:	4798      	blx	r3
  4042c0:	4630      	mov	r0, r6
  4042c2:	e016      	b.n	4042f2 <pio_configure_pin+0x11e>
  4042c4:	f005 5260 	and.w	r2, r5, #939524096	; 0x38000000
  4042c8:	f000 011f 	and.w	r1, r0, #31
  4042cc:	2601      	movs	r6, #1
  4042ce:	ea05 0306 	and.w	r3, r5, r6
  4042d2:	9300      	str	r3, [sp, #0]
  4042d4:	f3c5 0380 	ubfx	r3, r5, #2, #1
  4042d8:	f1b2 5f60 	cmp.w	r2, #939524096	; 0x38000000
  4042dc:	bf14      	ite	ne
  4042de:	2200      	movne	r2, #0
  4042e0:	2201      	moveq	r2, #1
  4042e2:	fa06 f101 	lsl.w	r1, r6, r1
  4042e6:	4620      	mov	r0, r4
  4042e8:	4c06      	ldr	r4, [pc, #24]	; (404304 <pio_configure_pin+0x130>)
  4042ea:	47a0      	blx	r4
  4042ec:	4630      	mov	r0, r6
  4042ee:	e000      	b.n	4042f2 <pio_configure_pin+0x11e>
  4042f0:	2000      	movs	r0, #0
  4042f2:	b002      	add	sp, #8
  4042f4:	bd70      	pop	{r4, r5, r6, pc}
  4042f6:	bf00      	nop
  4042f8:	00200707 	.word	0x00200707
  4042fc:	0040409d 	.word	0x0040409d
  404300:	00404131 	.word	0x00404131
  404304:	00404169 	.word	0x00404169

00404308 <pio_handler_process>:
  404308:	e92d 41f0 	stmdb	sp!, {r4, r5, r6, r7, r8, lr}
  40430c:	4604      	mov	r4, r0
  40430e:	4688      	mov	r8, r1
  404310:	4b0e      	ldr	r3, [pc, #56]	; (40434c <pio_handler_process+0x44>)
  404312:	4798      	blx	r3
  404314:	4605      	mov	r5, r0
  404316:	4620      	mov	r0, r4
  404318:	4b0d      	ldr	r3, [pc, #52]	; (404350 <pio_handler_process+0x48>)
  40431a:	4798      	blx	r3
  40431c:	4005      	ands	r5, r0
  40431e:	d013      	beq.n	404348 <pio_handler_process+0x40>
  404320:	4c0c      	ldr	r4, [pc, #48]	; (404354 <pio_handler_process+0x4c>)
  404322:	f104 0660 	add.w	r6, r4, #96	; 0x60
  404326:	6823      	ldr	r3, [r4, #0]
  404328:	4543      	cmp	r3, r8
  40432a:	d108      	bne.n	40433e <pio_handler_process+0x36>
  40432c:	6861      	ldr	r1, [r4, #4]
  40432e:	4229      	tst	r1, r5
  404330:	d005      	beq.n	40433e <pio_handler_process+0x36>
  404332:	68e3      	ldr	r3, [r4, #12]
  404334:	4640      	mov	r0, r8
  404336:	4798      	blx	r3
  404338:	6863      	ldr	r3, [r4, #4]
  40433a:	ea25 0503 	bic.w	r5, r5, r3
  40433e:	42b4      	cmp	r4, r6
  404340:	d002      	beq.n	404348 <pio_handler_process+0x40>
  404342:	3410      	adds	r4, #16
  404344:	2d00      	cmp	r5, #0
  404346:	d1ee      	bne.n	404326 <pio_handler_process+0x1e>
  404348:	e8bd 81f0 	ldmia.w	sp!, {r4, r5, r6, r7, r8, pc}
  40434c:	004041cd 	.word	0x004041cd
  404350:	004041d1 	.word	0x004041d1
  404354:	20400958 	.word	0x20400958

00404358 <pio_handler_set>:
  404358:	b5f8      	push	{r3, r4, r5, r6, r7, lr}
  40435a:	4c17      	ldr	r4, [pc, #92]	; (4043b8 <pio_handler_set+0x60>)
  40435c:	6826      	ldr	r6, [r4, #0]
  40435e:	2e06      	cmp	r6, #6
  404360:	d828      	bhi.n	4043b4 <pio_handler_set+0x5c>
  404362:	f04f 0c00 	mov.w	ip, #0
  404366:	4664      	mov	r4, ip
  404368:	4f14      	ldr	r7, [pc, #80]	; (4043bc <pio_handler_set+0x64>)
  40436a:	46a6      	mov	lr, r4
  40436c:	0125      	lsls	r5, r4, #4
  40436e:	597d      	ldr	r5, [r7, r5]
  404370:	428d      	cmp	r5, r1
  404372:	d104      	bne.n	40437e <pio_handler_set+0x26>
  404374:	eb07 1504 	add.w	r5, r7, r4, lsl #4
  404378:	686d      	ldr	r5, [r5, #4]
  40437a:	4295      	cmp	r5, r2
  40437c:	d004      	beq.n	404388 <pio_handler_set+0x30>
  40437e:	3401      	adds	r4, #1
  404380:	b2e4      	uxtb	r4, r4
  404382:	46a4      	mov	ip, r4
  404384:	42a6      	cmp	r6, r4
  404386:	d2f0      	bcs.n	40436a <pio_handler_set+0x12>
  404388:	4d0c      	ldr	r5, [pc, #48]	; (4043bc <pio_handler_set+0x64>)
  40438a:	ea4f 1e0e 	mov.w	lr, lr, lsl #4
  40438e:	eb05 040e 	add.w	r4, r5, lr
  404392:	f845 100e 	str.w	r1, [r5, lr]
  404396:	6062      	str	r2, [r4, #4]
  404398:	60a3      	str	r3, [r4, #8]
  40439a:	9906      	ldr	r1, [sp, #24]
  40439c:	60e1      	str	r1, [r4, #12]
  40439e:	3601      	adds	r6, #1
  4043a0:	4566      	cmp	r6, ip
  4043a2:	d101      	bne.n	4043a8 <pio_handler_set+0x50>
  4043a4:	4904      	ldr	r1, [pc, #16]	; (4043b8 <pio_handler_set+0x60>)
  4043a6:	600e      	str	r6, [r1, #0]
  4043a8:	4611      	mov	r1, r2
  4043aa:	461a      	mov	r2, r3
  4043ac:	4b04      	ldr	r3, [pc, #16]	; (4043c0 <pio_handler_set+0x68>)
  4043ae:	4798      	blx	r3
  4043b0:	2000      	movs	r0, #0
  4043b2:	bdf8      	pop	{r3, r4, r5, r6, r7, pc}
  4043b4:	2001      	movs	r0, #1
  4043b6:	bdf8      	pop	{r3, r4, r5, r6, r7, pc}
  4043b8:	20400954 	.word	0x20400954
  4043bc:	20400958 	.word	0x20400958
  4043c0:	00404191 	.word	0x00404191

004043c4 <PIOA_Handler>:
  4043c4:	b508      	push	{r3, lr}
  4043c6:	210a      	movs	r1, #10
  4043c8:	4801      	ldr	r0, [pc, #4]	; (4043d0 <PIOA_Handler+0xc>)
  4043ca:	4b02      	ldr	r3, [pc, #8]	; (4043d4 <PIOA_Handler+0x10>)
  4043cc:	4798      	blx	r3
  4043ce:	bd08      	pop	{r3, pc}
  4043d0:	400e0e00 	.word	0x400e0e00
  4043d4:	00404309 	.word	0x00404309

004043d8 <PIOB_Handler>:
  4043d8:	b508      	push	{r3, lr}
  4043da:	210b      	movs	r1, #11
  4043dc:	4801      	ldr	r0, [pc, #4]	; (4043e4 <PIOB_Handler+0xc>)
  4043de:	4b02      	ldr	r3, [pc, #8]	; (4043e8 <PIOB_Handler+0x10>)
  4043e0:	4798      	blx	r3
  4043e2:	bd08      	pop	{r3, pc}
  4043e4:	400e1000 	.word	0x400e1000
  4043e8:	00404309 	.word	0x00404309

004043ec <PIOC_Handler>:
  4043ec:	b508      	push	{r3, lr}
  4043ee:	210c      	movs	r1, #12
  4043f0:	4801      	ldr	r0, [pc, #4]	; (4043f8 <PIOC_Handler+0xc>)
  4043f2:	4b02      	ldr	r3, [pc, #8]	; (4043fc <PIOC_Handler+0x10>)
  4043f4:	4798      	blx	r3
  4043f6:	bd08      	pop	{r3, pc}
  4043f8:	400e1200 	.word	0x400e1200
  4043fc:	00404309 	.word	0x00404309

00404400 <PIOD_Handler>:
  404400:	b508      	push	{r3, lr}
  404402:	2110      	movs	r1, #16
  404404:	4801      	ldr	r0, [pc, #4]	; (40440c <PIOD_Handler+0xc>)
  404406:	4b02      	ldr	r3, [pc, #8]	; (404410 <PIOD_Handler+0x10>)
  404408:	4798      	blx	r3
  40440a:	bd08      	pop	{r3, pc}
  40440c:	400e1400 	.word	0x400e1400
  404410:	00404309 	.word	0x00404309

00404414 <PIOE_Handler>:
  404414:	b508      	push	{r3, lr}
  404416:	2111      	movs	r1, #17
  404418:	4801      	ldr	r0, [pc, #4]	; (404420 <PIOE_Handler+0xc>)
  40441a:	4b02      	ldr	r3, [pc, #8]	; (404424 <PIOE_Handler+0x10>)
  40441c:	4798      	blx	r3
  40441e:	bd08      	pop	{r3, pc}
  404420:	400e1600 	.word	0x400e1600
  404424:	00404309 	.word	0x00404309

00404428 <pio_handler_set_priority>:
  404428:	b5f8      	push	{r3, r4, r5, r6, r7, lr}
  40442a:	4606      	mov	r6, r0
  40442c:	460d      	mov	r5, r1
  40442e:	4614      	mov	r4, r2
  404430:	4b17      	ldr	r3, [pc, #92]	; (404490 <pio_handler_set_priority+0x68>)
  404432:	4798      	blx	r3
  404434:	4607      	mov	r7, r0
  404436:	f04f 31ff 	mov.w	r1, #4294967295
  40443a:	4630      	mov	r0, r6
  40443c:	4b15      	ldr	r3, [pc, #84]	; (404494 <pio_handler_set_priority+0x6c>)
  40443e:	4798      	blx	r3
  404440:	4630      	mov	r0, r6
  404442:	4b15      	ldr	r3, [pc, #84]	; (404498 <pio_handler_set_priority+0x70>)
  404444:	4798      	blx	r3
  404446:	fa5f fe85 	uxtb.w	lr, r5
  40444a:	f00e 031f 	and.w	r3, lr, #31
  40444e:	2201      	movs	r2, #1
  404450:	fa02 f303 	lsl.w	r3, r2, r3
  404454:	0968      	lsrs	r0, r5, #5
  404456:	4911      	ldr	r1, [pc, #68]	; (40449c <pio_handler_set_priority+0x74>)
  404458:	eb01 0280 	add.w	r2, r1, r0, lsl #2
  40445c:	f8c2 3080 	str.w	r3, [r2, #128]	; 0x80
  404460:	f8c2 3180 	str.w	r3, [r2, #384]	; 0x180
  404464:	2d00      	cmp	r5, #0
  404466:	da07      	bge.n	404478 <pio_handler_set_priority+0x50>
  404468:	f00e 0e0f 	and.w	lr, lr, #15
  40446c:	0164      	lsls	r4, r4, #5
  40446e:	b2e4      	uxtb	r4, r4
  404470:	4a0b      	ldr	r2, [pc, #44]	; (4044a0 <pio_handler_set_priority+0x78>)
  404472:	f802 400e 	strb.w	r4, [r2, lr]
  404476:	e003      	b.n	404480 <pio_handler_set_priority+0x58>
  404478:	0164      	lsls	r4, r4, #5
  40447a:	b2e4      	uxtb	r4, r4
  40447c:	4a09      	ldr	r2, [pc, #36]	; (4044a4 <pio_handler_set_priority+0x7c>)
  40447e:	5554      	strb	r4, [r2, r5]
  404480:	f841 3020 	str.w	r3, [r1, r0, lsl #2]
  404484:	4639      	mov	r1, r7
  404486:	4630      	mov	r0, r6
  404488:	4b07      	ldr	r3, [pc, #28]	; (4044a8 <pio_handler_set_priority+0x80>)
  40448a:	4798      	blx	r3
  40448c:	bdf8      	pop	{r3, r4, r5, r6, r7, pc}
  40448e:	bf00      	nop
  404490:	004041d1 	.word	0x004041d1
  404494:	004041c9 	.word	0x004041c9
  404498:	004041cd 	.word	0x004041cd
  40449c:	e000e100 	.word	0xe000e100
  4044a0:	e000ed14 	.word	0xe000ed14
  4044a4:	e000e400 	.word	0xe000e400
  4044a8:	004041c5 	.word	0x004041c5

004044ac <pmc_mck_set_division>:
  4044ac:	2803      	cmp	r0, #3
  4044ae:	d007      	beq.n	4044c0 <pmc_mck_set_division+0x14>
  4044b0:	2804      	cmp	r0, #4
  4044b2:	d008      	beq.n	4044c6 <pmc_mck_set_division+0x1a>
  4044b4:	2802      	cmp	r0, #2
  4044b6:	bf0c      	ite	eq
  4044b8:	f44f 7280 	moveq.w	r2, #256	; 0x100
  4044bc:	2200      	movne	r2, #0
  4044be:	e004      	b.n	4044ca <pmc_mck_set_division+0x1e>
  4044c0:	f44f 7240 	mov.w	r2, #768	; 0x300
  4044c4:	e001      	b.n	4044ca <pmc_mck_set_division+0x1e>
  4044c6:	f44f 7200 	mov.w	r2, #512	; 0x200
  4044ca:	4906      	ldr	r1, [pc, #24]	; (4044e4 <pmc_mck_set_division+0x38>)
  4044cc:	6b0b      	ldr	r3, [r1, #48]	; 0x30
  4044ce:	f423 7340 	bic.w	r3, r3, #768	; 0x300
  4044d2:	4313      	orrs	r3, r2
  4044d4:	630b      	str	r3, [r1, #48]	; 0x30
  4044d6:	460a      	mov	r2, r1
  4044d8:	6e93      	ldr	r3, [r2, #104]	; 0x68
  4044da:	f013 0f08 	tst.w	r3, #8
  4044de:	d0fb      	beq.n	4044d8 <pmc_mck_set_division+0x2c>
  4044e0:	4770      	bx	lr
  4044e2:	bf00      	nop
  4044e4:	400e0600 	.word	0x400e0600

004044e8 <pmc_switch_mck_to_pllack>:
  4044e8:	4a18      	ldr	r2, [pc, #96]	; (40454c <pmc_switch_mck_to_pllack+0x64>)
  4044ea:	6b13      	ldr	r3, [r2, #48]	; 0x30
  4044ec:	f023 0370 	bic.w	r3, r3, #112	; 0x70
  4044f0:	4318      	orrs	r0, r3
  4044f2:	6310      	str	r0, [r2, #48]	; 0x30
  4044f4:	6e93      	ldr	r3, [r2, #104]	; 0x68
  4044f6:	f013 0f08 	tst.w	r3, #8
  4044fa:	d003      	beq.n	404504 <pmc_switch_mck_to_pllack+0x1c>
  4044fc:	e009      	b.n	404512 <pmc_switch_mck_to_pllack+0x2a>
  4044fe:	3b01      	subs	r3, #1
  404500:	d103      	bne.n	40450a <pmc_switch_mck_to_pllack+0x22>
  404502:	e01e      	b.n	404542 <pmc_switch_mck_to_pllack+0x5a>
  404504:	f44f 5380 	mov.w	r3, #4096	; 0x1000
  404508:	4910      	ldr	r1, [pc, #64]	; (40454c <pmc_switch_mck_to_pllack+0x64>)
  40450a:	6e8a      	ldr	r2, [r1, #104]	; 0x68
  40450c:	f012 0f08 	tst.w	r2, #8
  404510:	d0f5      	beq.n	4044fe <pmc_switch_mck_to_pllack+0x16>
  404512:	4a0e      	ldr	r2, [pc, #56]	; (40454c <pmc_switch_mck_to_pllack+0x64>)
  404514:	6b13      	ldr	r3, [r2, #48]	; 0x30
  404516:	f023 0303 	bic.w	r3, r3, #3
  40451a:	f043 0302 	orr.w	r3, r3, #2
  40451e:	6313      	str	r3, [r2, #48]	; 0x30
  404520:	6e90      	ldr	r0, [r2, #104]	; 0x68
  404522:	f010 0008 	ands.w	r0, r0, #8
  404526:	d004      	beq.n	404532 <pmc_switch_mck_to_pllack+0x4a>
  404528:	2000      	movs	r0, #0
  40452a:	4770      	bx	lr
  40452c:	3b01      	subs	r3, #1
  40452e:	d103      	bne.n	404538 <pmc_switch_mck_to_pllack+0x50>
  404530:	e009      	b.n	404546 <pmc_switch_mck_to_pllack+0x5e>
  404532:	f44f 5380 	mov.w	r3, #4096	; 0x1000
  404536:	4905      	ldr	r1, [pc, #20]	; (40454c <pmc_switch_mck_to_pllack+0x64>)
  404538:	6e8a      	ldr	r2, [r1, #104]	; 0x68
  40453a:	f012 0f08 	tst.w	r2, #8
  40453e:	d0f5      	beq.n	40452c <pmc_switch_mck_to_pllack+0x44>
  404540:	4770      	bx	lr
  404542:	2001      	movs	r0, #1
  404544:	4770      	bx	lr
  404546:	2001      	movs	r0, #1
  404548:	4770      	bx	lr
  40454a:	bf00      	nop
  40454c:	400e0600 	.word	0x400e0600

00404550 <pmc_switch_mainck_to_xtal>:
  404550:	b138      	cbz	r0, 404562 <pmc_switch_mainck_to_xtal+0x12>
  404552:	490e      	ldr	r1, [pc, #56]	; (40458c <pmc_switch_mainck_to_xtal+0x3c>)
  404554:	6a0b      	ldr	r3, [r1, #32]
  404556:	4a0e      	ldr	r2, [pc, #56]	; (404590 <pmc_switch_mainck_to_xtal+0x40>)
  404558:	401a      	ands	r2, r3
  40455a:	4b0e      	ldr	r3, [pc, #56]	; (404594 <pmc_switch_mainck_to_xtal+0x44>)
  40455c:	4313      	orrs	r3, r2
  40455e:	620b      	str	r3, [r1, #32]
  404560:	4770      	bx	lr
  404562:	480a      	ldr	r0, [pc, #40]	; (40458c <pmc_switch_mainck_to_xtal+0x3c>)
  404564:	6a03      	ldr	r3, [r0, #32]
  404566:	0209      	lsls	r1, r1, #8
  404568:	b289      	uxth	r1, r1
  40456a:	4a0b      	ldr	r2, [pc, #44]	; (404598 <pmc_switch_mainck_to_xtal+0x48>)
  40456c:	401a      	ands	r2, r3
  40456e:	4b0b      	ldr	r3, [pc, #44]	; (40459c <pmc_switch_mainck_to_xtal+0x4c>)
  404570:	4313      	orrs	r3, r2
  404572:	4319      	orrs	r1, r3
  404574:	6201      	str	r1, [r0, #32]
  404576:	4602      	mov	r2, r0
  404578:	6e93      	ldr	r3, [r2, #104]	; 0x68
  40457a:	f013 0f01 	tst.w	r3, #1
  40457e:	d0fb      	beq.n	404578 <pmc_switch_mainck_to_xtal+0x28>
  404580:	4a02      	ldr	r2, [pc, #8]	; (40458c <pmc_switch_mainck_to_xtal+0x3c>)
  404582:	6a11      	ldr	r1, [r2, #32]
  404584:	4b06      	ldr	r3, [pc, #24]	; (4045a0 <pmc_switch_mainck_to_xtal+0x50>)
  404586:	430b      	orrs	r3, r1
  404588:	6213      	str	r3, [r2, #32]
  40458a:	4770      	bx	lr
  40458c:	400e0600 	.word	0x400e0600
  404590:	fec8fffc 	.word	0xfec8fffc
  404594:	01370002 	.word	0x01370002
  404598:	ffc8fffc 	.word	0xffc8fffc
  40459c:	00370001 	.word	0x00370001
  4045a0:	01370000 	.word	0x01370000

004045a4 <pmc_osc_is_ready_mainck>:
  4045a4:	4b02      	ldr	r3, [pc, #8]	; (4045b0 <pmc_osc_is_ready_mainck+0xc>)
  4045a6:	6e98      	ldr	r0, [r3, #104]	; 0x68
  4045a8:	f400 3080 	and.w	r0, r0, #65536	; 0x10000
  4045ac:	4770      	bx	lr
  4045ae:	bf00      	nop
  4045b0:	400e0600 	.word	0x400e0600

004045b4 <pmc_disable_pllack>:
  4045b4:	f04f 5200 	mov.w	r2, #536870912	; 0x20000000
  4045b8:	4b01      	ldr	r3, [pc, #4]	; (4045c0 <pmc_disable_pllack+0xc>)
  4045ba:	629a      	str	r2, [r3, #40]	; 0x28
  4045bc:	4770      	bx	lr
  4045be:	bf00      	nop
  4045c0:	400e0600 	.word	0x400e0600

004045c4 <pmc_is_locked_pllack>:
  4045c4:	4b02      	ldr	r3, [pc, #8]	; (4045d0 <pmc_is_locked_pllack+0xc>)
  4045c6:	6e98      	ldr	r0, [r3, #104]	; 0x68
  4045c8:	f000 0002 	and.w	r0, r0, #2
  4045cc:	4770      	bx	lr
  4045ce:	bf00      	nop
  4045d0:	400e0600 	.word	0x400e0600

004045d4 <pmc_enable_periph_clk>:
  4045d4:	283f      	cmp	r0, #63	; 0x3f
  4045d6:	d81e      	bhi.n	404616 <pmc_enable_periph_clk+0x42>
  4045d8:	281f      	cmp	r0, #31
  4045da:	d80c      	bhi.n	4045f6 <pmc_enable_periph_clk+0x22>
  4045dc:	4b11      	ldr	r3, [pc, #68]	; (404624 <pmc_enable_periph_clk+0x50>)
  4045de:	699a      	ldr	r2, [r3, #24]
  4045e0:	2301      	movs	r3, #1
  4045e2:	4083      	lsls	r3, r0
  4045e4:	4393      	bics	r3, r2
  4045e6:	d018      	beq.n	40461a <pmc_enable_periph_clk+0x46>
  4045e8:	2301      	movs	r3, #1
  4045ea:	fa03 f000 	lsl.w	r0, r3, r0
  4045ee:	4b0d      	ldr	r3, [pc, #52]	; (404624 <pmc_enable_periph_clk+0x50>)
  4045f0:	6118      	str	r0, [r3, #16]
  4045f2:	2000      	movs	r0, #0
  4045f4:	4770      	bx	lr
  4045f6:	3820      	subs	r0, #32
  4045f8:	4b0a      	ldr	r3, [pc, #40]	; (404624 <pmc_enable_periph_clk+0x50>)
  4045fa:	f8d3 2108 	ldr.w	r2, [r3, #264]	; 0x108
  4045fe:	2301      	movs	r3, #1
  404600:	4083      	lsls	r3, r0
  404602:	4393      	bics	r3, r2
  404604:	d00b      	beq.n	40461e <pmc_enable_periph_clk+0x4a>
  404606:	2301      	movs	r3, #1
  404608:	fa03 f000 	lsl.w	r0, r3, r0
  40460c:	4b05      	ldr	r3, [pc, #20]	; (404624 <pmc_enable_periph_clk+0x50>)
  40460e:	f8c3 0100 	str.w	r0, [r3, #256]	; 0x100
  404612:	2000      	movs	r0, #0
  404614:	4770      	bx	lr
  404616:	2001      	movs	r0, #1
  404618:	4770      	bx	lr
  40461a:	2000      	movs	r0, #0
  40461c:	4770      	bx	lr
  40461e:	2000      	movs	r0, #0
  404620:	4770      	bx	lr
  404622:	bf00      	nop
  404624:	400e0600 	.word	0x400e0600

00404628 <spi_enable_clock>:
  404628:	b508      	push	{r3, lr}
  40462a:	4b07      	ldr	r3, [pc, #28]	; (404648 <spi_enable_clock+0x20>)
  40462c:	4298      	cmp	r0, r3
  40462e:	d103      	bne.n	404638 <spi_enable_clock+0x10>
  404630:	2015      	movs	r0, #21
  404632:	4b06      	ldr	r3, [pc, #24]	; (40464c <spi_enable_clock+0x24>)
  404634:	4798      	blx	r3
  404636:	bd08      	pop	{r3, pc}
  404638:	4b05      	ldr	r3, [pc, #20]	; (404650 <spi_enable_clock+0x28>)
  40463a:	4298      	cmp	r0, r3
  40463c:	d102      	bne.n	404644 <spi_enable_clock+0x1c>
  40463e:	202a      	movs	r0, #42	; 0x2a
  404640:	4b02      	ldr	r3, [pc, #8]	; (40464c <spi_enable_clock+0x24>)
  404642:	4798      	blx	r3
  404644:	bd08      	pop	{r3, pc}
  404646:	bf00      	nop
  404648:	40008000 	.word	0x40008000
  40464c:	004045d5 	.word	0x004045d5
  404650:	40058000 	.word	0x40058000

00404654 <spi_set_peripheral_chip_select_value>:
  404654:	6843      	ldr	r3, [r0, #4]
  404656:	f423 2370 	bic.w	r3, r3, #983040	; 0xf0000
  40465a:	6043      	str	r3, [r0, #4]
  40465c:	6843      	ldr	r3, [r0, #4]
  40465e:	0409      	lsls	r1, r1, #16
  404660:	f401 2170 	and.w	r1, r1, #983040	; 0xf0000
  404664:	430b      	orrs	r3, r1
  404666:	6043      	str	r3, [r0, #4]
  404668:	4770      	bx	lr
  40466a:	bf00      	nop

0040466c <spi_read>:
  40466c:	b410      	push	{r4}
  40466e:	f643 2399 	movw	r3, #15001	; 0x3a99
  404672:	e001      	b.n	404678 <spi_read+0xc>
  404674:	3b01      	subs	r3, #1
  404676:	d00e      	beq.n	404696 <spi_read+0x2a>
  404678:	6904      	ldr	r4, [r0, #16]
  40467a:	f014 0f01 	tst.w	r4, #1
  40467e:	d0f9      	beq.n	404674 <spi_read+0x8>
  404680:	6883      	ldr	r3, [r0, #8]
  404682:	6840      	ldr	r0, [r0, #4]
  404684:	f010 0f02 	tst.w	r0, #2
  404688:	d002      	beq.n	404690 <spi_read+0x24>
  40468a:	f3c3 4003 	ubfx	r0, r3, #16, #4
  40468e:	7010      	strb	r0, [r2, #0]
  404690:	800b      	strh	r3, [r1, #0]
  404692:	2000      	movs	r0, #0
  404694:	e000      	b.n	404698 <spi_read+0x2c>
  404696:	2001      	movs	r0, #1
  404698:	f85d 4b04 	ldr.w	r4, [sp], #4
  40469c:	4770      	bx	lr
  40469e:	bf00      	nop

004046a0 <spi_write>:
  4046a0:	b430      	push	{r4, r5}
  4046a2:	f643 2499 	movw	r4, #15001	; 0x3a99
  4046a6:	e001      	b.n	4046ac <spi_write+0xc>
  4046a8:	3c01      	subs	r4, #1
  4046aa:	d011      	beq.n	4046d0 <spi_write+0x30>
  4046ac:	6905      	ldr	r5, [r0, #16]
  4046ae:	f015 0f02 	tst.w	r5, #2
  4046b2:	d0f9      	beq.n	4046a8 <spi_write+0x8>
  4046b4:	6844      	ldr	r4, [r0, #4]
  4046b6:	f014 0f02 	tst.w	r4, #2
  4046ba:	d006      	beq.n	4046ca <spi_write+0x2a>
  4046bc:	0412      	lsls	r2, r2, #16
  4046be:	f402 2270 	and.w	r2, r2, #983040	; 0xf0000
  4046c2:	4311      	orrs	r1, r2
  4046c4:	b10b      	cbz	r3, 4046ca <spi_write+0x2a>
  4046c6:	f041 7180 	orr.w	r1, r1, #16777216	; 0x1000000
  4046ca:	60c1      	str	r1, [r0, #12]
  4046cc:	2000      	movs	r0, #0
  4046ce:	e000      	b.n	4046d2 <spi_write+0x32>
  4046d0:	2001      	movs	r0, #1
  4046d2:	bc30      	pop	{r4, r5}
  4046d4:	4770      	bx	lr
  4046d6:	bf00      	nop

004046d8 <spi_set_clock_polarity>:
  4046d8:	b132      	cbz	r2, 4046e8 <spi_set_clock_polarity+0x10>
  4046da:	eb00 0081 	add.w	r0, r0, r1, lsl #2
  4046de:	6b03      	ldr	r3, [r0, #48]	; 0x30
  4046e0:	f043 0301 	orr.w	r3, r3, #1
  4046e4:	6303      	str	r3, [r0, #48]	; 0x30
  4046e6:	4770      	bx	lr
  4046e8:	eb00 0081 	add.w	r0, r0, r1, lsl #2
  4046ec:	6b03      	ldr	r3, [r0, #48]	; 0x30
  4046ee:	f023 0301 	bic.w	r3, r3, #1
  4046f2:	6303      	str	r3, [r0, #48]	; 0x30
  4046f4:	4770      	bx	lr
  4046f6:	bf00      	nop

004046f8 <spi_set_clock_phase>:
  4046f8:	b132      	cbz	r2, 404708 <spi_set_clock_phase+0x10>
  4046fa:	eb00 0081 	add.w	r0, r0, r1, lsl #2
  4046fe:	6b03      	ldr	r3, [r0, #48]	; 0x30
  404700:	f043 0302 	orr.w	r3, r3, #2
  404704:	6303      	str	r3, [r0, #48]	; 0x30
  404706:	4770      	bx	lr
  404708:	eb00 0081 	add.w	r0, r0, r1, lsl #2
  40470c:	6b03      	ldr	r3, [r0, #48]	; 0x30
  40470e:	f023 0302 	bic.w	r3, r3, #2
  404712:	6303      	str	r3, [r0, #48]	; 0x30
  404714:	4770      	bx	lr
  404716:	bf00      	nop

00404718 <spi_set_bits_per_transfer>:
  404718:	eb00 0181 	add.w	r1, r0, r1, lsl #2
  40471c:	6b0b      	ldr	r3, [r1, #48]	; 0x30
  40471e:	f023 03f0 	bic.w	r3, r3, #240	; 0xf0
  404722:	630b      	str	r3, [r1, #48]	; 0x30
  404724:	6b0b      	ldr	r3, [r1, #48]	; 0x30
  404726:	431a      	orrs	r2, r3
  404728:	630a      	str	r2, [r1, #48]	; 0x30
  40472a:	4770      	bx	lr

0040472c <spi_calc_baudrate_div>:
  40472c:	1e43      	subs	r3, r0, #1
  40472e:	4419      	add	r1, r3
  404730:	fbb1 f0f0 	udiv	r0, r1, r0
  404734:	1e43      	subs	r3, r0, #1
  404736:	2bfe      	cmp	r3, #254	; 0xfe
  404738:	bf94      	ite	ls
  40473a:	b200      	sxthls	r0, r0
  40473c:	f04f 30ff 	movhi.w	r0, #4294967295
  404740:	4770      	bx	lr
  404742:	bf00      	nop

00404744 <spi_set_baudrate_div>:
  404744:	b16a      	cbz	r2, 404762 <spi_set_baudrate_div+0x1e>
  404746:	b410      	push	{r4}
  404748:	4614      	mov	r4, r2
  40474a:	eb00 0181 	add.w	r1, r0, r1, lsl #2
  40474e:	6b0b      	ldr	r3, [r1, #48]	; 0x30
  404750:	f423 437f 	bic.w	r3, r3, #65280	; 0xff00
  404754:	630b      	str	r3, [r1, #48]	; 0x30
  404756:	6b0a      	ldr	r2, [r1, #48]	; 0x30
  404758:	ea42 2204 	orr.w	r2, r2, r4, lsl #8
  40475c:	630a      	str	r2, [r1, #48]	; 0x30
  40475e:	2000      	movs	r0, #0
  404760:	e002      	b.n	404768 <spi_set_baudrate_div+0x24>
  404762:	f04f 30ff 	mov.w	r0, #4294967295
  404766:	4770      	bx	lr
  404768:	f85d 4b04 	ldr.w	r4, [sp], #4
  40476c:	4770      	bx	lr
  40476e:	bf00      	nop

00404770 <spi_set_transfer_delay>:
  404770:	b410      	push	{r4}
  404772:	eb00 0181 	add.w	r1, r0, r1, lsl #2
  404776:	6b08      	ldr	r0, [r1, #48]	; 0x30
  404778:	b280      	uxth	r0, r0
  40477a:	6308      	str	r0, [r1, #48]	; 0x30
  40477c:	6b0c      	ldr	r4, [r1, #48]	; 0x30
  40477e:	ea44 6303 	orr.w	r3, r4, r3, lsl #24
  404782:	ea43 4202 	orr.w	r2, r3, r2, lsl #16
  404786:	630a      	str	r2, [r1, #48]	; 0x30
  404788:	f85d 4b04 	ldr.w	r4, [sp], #4
  40478c:	4770      	bx	lr
  40478e:	bf00      	nop

00404790 <uart_write>:
  404790:	6943      	ldr	r3, [r0, #20]
  404792:	f013 0f02 	tst.w	r3, #2
  404796:	d002      	beq.n	40479e <uart_write+0xe>
  404798:	61c1      	str	r1, [r0, #28]
  40479a:	2000      	movs	r0, #0
  40479c:	4770      	bx	lr
  40479e:	2001      	movs	r0, #1
  4047a0:	4770      	bx	lr
  4047a2:	bf00      	nop

004047a4 <uart_read>:
  4047a4:	6943      	ldr	r3, [r0, #20]
  4047a6:	f013 0f01 	tst.w	r3, #1
  4047aa:	d003      	beq.n	4047b4 <uart_read+0x10>
  4047ac:	6983      	ldr	r3, [r0, #24]
  4047ae:	700b      	strb	r3, [r1, #0]
  4047b0:	2000      	movs	r0, #0
  4047b2:	4770      	bx	lr
  4047b4:	2001      	movs	r0, #1
  4047b6:	4770      	bx	lr

004047b8 <usart_set_async_baudrate>:
  4047b8:	b410      	push	{r4}
  4047ba:	010c      	lsls	r4, r1, #4
  4047bc:	4294      	cmp	r4, r2
  4047be:	d90f      	bls.n	4047e0 <usart_set_async_baudrate+0x28>
  4047c0:	e01a      	b.n	4047f8 <usart_set_async_baudrate+0x40>
  4047c2:	6841      	ldr	r1, [r0, #4]
  4047c4:	f441 2100 	orr.w	r1, r1, #524288	; 0x80000
  4047c8:	6041      	str	r1, [r0, #4]
  4047ca:	0412      	lsls	r2, r2, #16
  4047cc:	f402 22e0 	and.w	r2, r2, #458752	; 0x70000
  4047d0:	431a      	orrs	r2, r3
  4047d2:	6202      	str	r2, [r0, #32]
  4047d4:	2000      	movs	r0, #0
  4047d6:	e01c      	b.n	404812 <usart_set_async_baudrate+0x5a>
  4047d8:	2001      	movs	r0, #1
  4047da:	e01a      	b.n	404812 <usart_set_async_baudrate+0x5a>
  4047dc:	2001      	movs	r0, #1
  4047de:	e018      	b.n	404812 <usart_set_async_baudrate+0x5a>
  4047e0:	0863      	lsrs	r3, r4, #1
  4047e2:	eb03 02c2 	add.w	r2, r3, r2, lsl #3
  4047e6:	fbb2 f2f4 	udiv	r2, r2, r4
  4047ea:	08d3      	lsrs	r3, r2, #3
  4047ec:	1e5c      	subs	r4, r3, #1
  4047ee:	f64f 71fe 	movw	r1, #65534	; 0xfffe
  4047f2:	428c      	cmp	r4, r1
  4047f4:	d9e9      	bls.n	4047ca <usart_set_async_baudrate+0x12>
  4047f6:	e7ef      	b.n	4047d8 <usart_set_async_baudrate+0x20>
  4047f8:	00c9      	lsls	r1, r1, #3
  4047fa:	084b      	lsrs	r3, r1, #1
  4047fc:	eb03 02c2 	add.w	r2, r3, r2, lsl #3
  404800:	fbb2 f2f1 	udiv	r2, r2, r1
  404804:	08d3      	lsrs	r3, r2, #3
  404806:	1e5c      	subs	r4, r3, #1
  404808:	f64f 71fe 	movw	r1, #65534	; 0xfffe
  40480c:	428c      	cmp	r4, r1
  40480e:	d8e5      	bhi.n	4047dc <usart_set_async_baudrate+0x24>
  404810:	e7d7      	b.n	4047c2 <usart_set_async_baudrate+0xa>
  404812:	f85d 4b04 	ldr.w	r4, [sp], #4
  404816:	4770      	bx	lr

00404818 <usart_reset>:
  404818:	4b08      	ldr	r3, [pc, #32]	; (40483c <usart_reset+0x24>)
  40481a:	f8c0 30e4 	str.w	r3, [r0, #228]	; 0xe4
  40481e:	2300      	movs	r3, #0
  404820:	6043      	str	r3, [r0, #4]
  404822:	6243      	str	r3, [r0, #36]	; 0x24
  404824:	6283      	str	r3, [r0, #40]	; 0x28
  404826:	2388      	movs	r3, #136	; 0x88
  404828:	6003      	str	r3, [r0, #0]
  40482a:	2324      	movs	r3, #36	; 0x24
  40482c:	6003      	str	r3, [r0, #0]
  40482e:	f44f 7380 	mov.w	r3, #256	; 0x100
  404832:	6003      	str	r3, [r0, #0]
  404834:	f44f 2300 	mov.w	r3, #524288	; 0x80000
  404838:	6003      	str	r3, [r0, #0]
  40483a:	4770      	bx	lr
  40483c:	55534100 	.word	0x55534100

00404840 <usart_init_rs232>:
  404840:	b570      	push	{r4, r5, r6, lr}
  404842:	4605      	mov	r5, r0
  404844:	460c      	mov	r4, r1
  404846:	4616      	mov	r6, r2
  404848:	4b0f      	ldr	r3, [pc, #60]	; (404888 <usart_init_rs232+0x48>)
  40484a:	4798      	blx	r3
  40484c:	2200      	movs	r2, #0
  40484e:	4b0f      	ldr	r3, [pc, #60]	; (40488c <usart_init_rs232+0x4c>)
  404850:	601a      	str	r2, [r3, #0]
  404852:	b19c      	cbz	r4, 40487c <usart_init_rs232+0x3c>
  404854:	4632      	mov	r2, r6
  404856:	6821      	ldr	r1, [r4, #0]
  404858:	4628      	mov	r0, r5
  40485a:	4b0d      	ldr	r3, [pc, #52]	; (404890 <usart_init_rs232+0x50>)
  40485c:	4798      	blx	r3
  40485e:	4602      	mov	r2, r0
  404860:	b970      	cbnz	r0, 404880 <usart_init_rs232+0x40>
  404862:	6861      	ldr	r1, [r4, #4]
  404864:	68a3      	ldr	r3, [r4, #8]
  404866:	4319      	orrs	r1, r3
  404868:	6923      	ldr	r3, [r4, #16]
  40486a:	4319      	orrs	r1, r3
  40486c:	68e3      	ldr	r3, [r4, #12]
  40486e:	430b      	orrs	r3, r1
  404870:	4906      	ldr	r1, [pc, #24]	; (40488c <usart_init_rs232+0x4c>)
  404872:	600b      	str	r3, [r1, #0]
  404874:	6869      	ldr	r1, [r5, #4]
  404876:	430b      	orrs	r3, r1
  404878:	606b      	str	r3, [r5, #4]
  40487a:	e002      	b.n	404882 <usart_init_rs232+0x42>
  40487c:	2201      	movs	r2, #1
  40487e:	e000      	b.n	404882 <usart_init_rs232+0x42>
  404880:	2201      	movs	r2, #1
  404882:	4610      	mov	r0, r2
  404884:	bd70      	pop	{r4, r5, r6, pc}
  404886:	bf00      	nop
  404888:	00404819 	.word	0x00404819
  40488c:	204009c8 	.word	0x204009c8
  404890:	004047b9 	.word	0x004047b9

00404894 <usart_enable_tx>:
  404894:	2340      	movs	r3, #64	; 0x40
  404896:	6003      	str	r3, [r0, #0]
  404898:	4770      	bx	lr
  40489a:	bf00      	nop

0040489c <usart_enable_rx>:
  40489c:	2310      	movs	r3, #16
  40489e:	6003      	str	r3, [r0, #0]
  4048a0:	4770      	bx	lr
  4048a2:	bf00      	nop

004048a4 <usart_write>:
  4048a4:	6943      	ldr	r3, [r0, #20]
  4048a6:	f013 0f02 	tst.w	r3, #2
  4048aa:	d004      	beq.n	4048b6 <usart_write+0x12>
  4048ac:	f3c1 0108 	ubfx	r1, r1, #0, #9
  4048b0:	61c1      	str	r1, [r0, #28]
  4048b2:	2000      	movs	r0, #0
  4048b4:	4770      	bx	lr
  4048b6:	2001      	movs	r0, #1
  4048b8:	4770      	bx	lr
  4048ba:	bf00      	nop

004048bc <usart_read>:
  4048bc:	6943      	ldr	r3, [r0, #20]
  4048be:	f013 0f01 	tst.w	r3, #1
  4048c2:	d005      	beq.n	4048d0 <usart_read+0x14>
  4048c4:	6983      	ldr	r3, [r0, #24]
  4048c6:	f3c3 0308 	ubfx	r3, r3, #0, #9
  4048ca:	600b      	str	r3, [r1, #0]
  4048cc:	2000      	movs	r0, #0
  4048ce:	4770      	bx	lr
  4048d0:	2001      	movs	r0, #1
  4048d2:	4770      	bx	lr

004048d4 <Dummy_Handler>:
  4048d4:	e7fe      	b.n	4048d4 <Dummy_Handler>
  4048d6:	bf00      	nop

004048d8 <Reset_Handler>:
  4048d8:	b500      	push	{lr}
  4048da:	b083      	sub	sp, #12
  4048dc:	4b27      	ldr	r3, [pc, #156]	; (40497c <Reset_Handler+0xa4>)
  4048de:	4a28      	ldr	r2, [pc, #160]	; (404980 <Reset_Handler+0xa8>)
  4048e0:	429a      	cmp	r2, r3
  4048e2:	d003      	beq.n	4048ec <Reset_Handler+0x14>
  4048e4:	4b27      	ldr	r3, [pc, #156]	; (404984 <Reset_Handler+0xac>)
  4048e6:	4a25      	ldr	r2, [pc, #148]	; (40497c <Reset_Handler+0xa4>)
  4048e8:	429a      	cmp	r2, r3
  4048ea:	d304      	bcc.n	4048f6 <Reset_Handler+0x1e>
  4048ec:	4b26      	ldr	r3, [pc, #152]	; (404988 <Reset_Handler+0xb0>)
  4048ee:	4a27      	ldr	r2, [pc, #156]	; (40498c <Reset_Handler+0xb4>)
  4048f0:	429a      	cmp	r2, r3
  4048f2:	d30f      	bcc.n	404914 <Reset_Handler+0x3c>
  4048f4:	e01a      	b.n	40492c <Reset_Handler+0x54>
  4048f6:	4921      	ldr	r1, [pc, #132]	; (40497c <Reset_Handler+0xa4>)
  4048f8:	4b25      	ldr	r3, [pc, #148]	; (404990 <Reset_Handler+0xb8>)
  4048fa:	1a5b      	subs	r3, r3, r1
  4048fc:	f023 0303 	bic.w	r3, r3, #3
  404900:	3304      	adds	r3, #4
  404902:	4a1f      	ldr	r2, [pc, #124]	; (404980 <Reset_Handler+0xa8>)
  404904:	4413      	add	r3, r2
  404906:	f852 0b04 	ldr.w	r0, [r2], #4
  40490a:	f841 0b04 	str.w	r0, [r1], #4
  40490e:	429a      	cmp	r2, r3
  404910:	d1f9      	bne.n	404906 <Reset_Handler+0x2e>
  404912:	e7eb      	b.n	4048ec <Reset_Handler+0x14>
  404914:	4b1f      	ldr	r3, [pc, #124]	; (404994 <Reset_Handler+0xbc>)
  404916:	4a20      	ldr	r2, [pc, #128]	; (404998 <Reset_Handler+0xc0>)
  404918:	1ad2      	subs	r2, r2, r3
  40491a:	f022 0203 	bic.w	r2, r2, #3
  40491e:	441a      	add	r2, r3
  404920:	3b04      	subs	r3, #4
  404922:	2100      	movs	r1, #0
  404924:	f843 1b04 	str.w	r1, [r3], #4
  404928:	4293      	cmp	r3, r2
  40492a:	d1fb      	bne.n	404924 <Reset_Handler+0x4c>
  40492c:	4a1b      	ldr	r2, [pc, #108]	; (40499c <Reset_Handler+0xc4>)
  40492e:	4b1c      	ldr	r3, [pc, #112]	; (4049a0 <Reset_Handler+0xc8>)
  404930:	f023 037f 	bic.w	r3, r3, #127	; 0x7f
  404934:	6093      	str	r3, [r2, #8]
  404936:	f3ef 8310 	mrs	r3, PRIMASK
  40493a:	fab3 f383 	clz	r3, r3
  40493e:	095b      	lsrs	r3, r3, #5
  404940:	9301      	str	r3, [sp, #4]
  404942:	b672      	cpsid	i
  404944:	f3bf 8f5f 	dmb	sy
  404948:	2200      	movs	r2, #0
  40494a:	4b16      	ldr	r3, [pc, #88]	; (4049a4 <Reset_Handler+0xcc>)
  40494c:	701a      	strb	r2, [r3, #0]
  40494e:	9901      	ldr	r1, [sp, #4]
  404950:	4a15      	ldr	r2, [pc, #84]	; (4049a8 <Reset_Handler+0xd0>)
  404952:	6813      	ldr	r3, [r2, #0]
  404954:	f443 0370 	orr.w	r3, r3, #15728640	; 0xf00000
  404958:	6013      	str	r3, [r2, #0]
  40495a:	f3bf 8f4f 	dsb	sy
  40495e:	f3bf 8f6f 	isb	sy
  404962:	b129      	cbz	r1, 404970 <Reset_Handler+0x98>
  404964:	2201      	movs	r2, #1
  404966:	4b0f      	ldr	r3, [pc, #60]	; (4049a4 <Reset_Handler+0xcc>)
  404968:	701a      	strb	r2, [r3, #0]
  40496a:	f3bf 8f5f 	dmb	sy
  40496e:	b662      	cpsie	i
  404970:	4b0e      	ldr	r3, [pc, #56]	; (4049ac <Reset_Handler+0xd4>)
  404972:	4798      	blx	r3
  404974:	4b0e      	ldr	r3, [pc, #56]	; (4049b0 <Reset_Handler+0xd8>)
  404976:	4798      	blx	r3
  404978:	e7fe      	b.n	404978 <Reset_Handler+0xa0>
  40497a:	bf00      	nop
  40497c:	20400000 	.word	0x20400000
  404980:	0040ccb0 	.word	0x0040ccb0
  404984:	204008e4 	.word	0x204008e4
  404988:	20401644 	.word	0x20401644
  40498c:	204008e4 	.word	0x204008e4
  404990:	204008e3 	.word	0x204008e3
  404994:	204008e8 	.word	0x204008e8
  404998:	20401647 	.word	0x20401647
  40499c:	e000ed00 	.word	0xe000ed00
  4049a0:	00400000 	.word	0x00400000
  4049a4:	20400038 	.word	0x20400038
  4049a8:	e000ed88 	.word	0xe000ed88
  4049ac:	004050e5 	.word	0x004050e5
  4049b0:	00404ed5 	.word	0x00404ed5

004049b4 <SystemCoreClockUpdate>:
  4049b4:	4b3c      	ldr	r3, [pc, #240]	; (404aa8 <SystemCoreClockUpdate+0xf4>)
  4049b6:	6b1b      	ldr	r3, [r3, #48]	; 0x30
  4049b8:	f003 0303 	and.w	r3, r3, #3
  4049bc:	2b01      	cmp	r3, #1
  4049be:	d00f      	beq.n	4049e0 <SystemCoreClockUpdate+0x2c>
  4049c0:	b113      	cbz	r3, 4049c8 <SystemCoreClockUpdate+0x14>
  4049c2:	2b02      	cmp	r3, #2
  4049c4:	d029      	beq.n	404a1a <SystemCoreClockUpdate+0x66>
  4049c6:	e057      	b.n	404a78 <SystemCoreClockUpdate+0xc4>
  4049c8:	4b38      	ldr	r3, [pc, #224]	; (404aac <SystemCoreClockUpdate+0xf8>)
  4049ca:	695b      	ldr	r3, [r3, #20]
  4049cc:	f013 0f80 	tst.w	r3, #128	; 0x80
  4049d0:	bf14      	ite	ne
  4049d2:	f44f 4200 	movne.w	r2, #32768	; 0x8000
  4049d6:	f44f 42fa 	moveq.w	r2, #32000	; 0x7d00
  4049da:	4b35      	ldr	r3, [pc, #212]	; (404ab0 <SystemCoreClockUpdate+0xfc>)
  4049dc:	601a      	str	r2, [r3, #0]
  4049de:	e04b      	b.n	404a78 <SystemCoreClockUpdate+0xc4>
  4049e0:	4b31      	ldr	r3, [pc, #196]	; (404aa8 <SystemCoreClockUpdate+0xf4>)
  4049e2:	6a1b      	ldr	r3, [r3, #32]
  4049e4:	f013 7f80 	tst.w	r3, #16777216	; 0x1000000
  4049e8:	d003      	beq.n	4049f2 <SystemCoreClockUpdate+0x3e>
  4049ea:	4a32      	ldr	r2, [pc, #200]	; (404ab4 <SystemCoreClockUpdate+0x100>)
  4049ec:	4b30      	ldr	r3, [pc, #192]	; (404ab0 <SystemCoreClockUpdate+0xfc>)
  4049ee:	601a      	str	r2, [r3, #0]
  4049f0:	e042      	b.n	404a78 <SystemCoreClockUpdate+0xc4>
  4049f2:	4a31      	ldr	r2, [pc, #196]	; (404ab8 <SystemCoreClockUpdate+0x104>)
  4049f4:	4b2e      	ldr	r3, [pc, #184]	; (404ab0 <SystemCoreClockUpdate+0xfc>)
  4049f6:	601a      	str	r2, [r3, #0]
  4049f8:	4b2b      	ldr	r3, [pc, #172]	; (404aa8 <SystemCoreClockUpdate+0xf4>)
  4049fa:	6a1b      	ldr	r3, [r3, #32]
  4049fc:	f003 0370 	and.w	r3, r3, #112	; 0x70
  404a00:	2b10      	cmp	r3, #16
  404a02:	d002      	beq.n	404a0a <SystemCoreClockUpdate+0x56>
  404a04:	2b20      	cmp	r3, #32
  404a06:	d004      	beq.n	404a12 <SystemCoreClockUpdate+0x5e>
  404a08:	e036      	b.n	404a78 <SystemCoreClockUpdate+0xc4>
  404a0a:	4a2c      	ldr	r2, [pc, #176]	; (404abc <SystemCoreClockUpdate+0x108>)
  404a0c:	4b28      	ldr	r3, [pc, #160]	; (404ab0 <SystemCoreClockUpdate+0xfc>)
  404a0e:	601a      	str	r2, [r3, #0]
  404a10:	e032      	b.n	404a78 <SystemCoreClockUpdate+0xc4>
  404a12:	4a28      	ldr	r2, [pc, #160]	; (404ab4 <SystemCoreClockUpdate+0x100>)
  404a14:	4b26      	ldr	r3, [pc, #152]	; (404ab0 <SystemCoreClockUpdate+0xfc>)
  404a16:	601a      	str	r2, [r3, #0]
  404a18:	e02e      	b.n	404a78 <SystemCoreClockUpdate+0xc4>
  404a1a:	4b23      	ldr	r3, [pc, #140]	; (404aa8 <SystemCoreClockUpdate+0xf4>)
  404a1c:	6a1b      	ldr	r3, [r3, #32]
  404a1e:	f013 7f80 	tst.w	r3, #16777216	; 0x1000000
  404a22:	d003      	beq.n	404a2c <SystemCoreClockUpdate+0x78>
  404a24:	4a23      	ldr	r2, [pc, #140]	; (404ab4 <SystemCoreClockUpdate+0x100>)
  404a26:	4b22      	ldr	r3, [pc, #136]	; (404ab0 <SystemCoreClockUpdate+0xfc>)
  404a28:	601a      	str	r2, [r3, #0]
  404a2a:	e012      	b.n	404a52 <SystemCoreClockUpdate+0x9e>
  404a2c:	4a22      	ldr	r2, [pc, #136]	; (404ab8 <SystemCoreClockUpdate+0x104>)
  404a2e:	4b20      	ldr	r3, [pc, #128]	; (404ab0 <SystemCoreClockUpdate+0xfc>)
  404a30:	601a      	str	r2, [r3, #0]
  404a32:	4b1d      	ldr	r3, [pc, #116]	; (404aa8 <SystemCoreClockUpdate+0xf4>)
  404a34:	6a1b      	ldr	r3, [r3, #32]
  404a36:	f003 0370 	and.w	r3, r3, #112	; 0x70
  404a3a:	2b10      	cmp	r3, #16
  404a3c:	d002      	beq.n	404a44 <SystemCoreClockUpdate+0x90>
  404a3e:	2b20      	cmp	r3, #32
  404a40:	d004      	beq.n	404a4c <SystemCoreClockUpdate+0x98>
  404a42:	e006      	b.n	404a52 <SystemCoreClockUpdate+0x9e>
  404a44:	4a1d      	ldr	r2, [pc, #116]	; (404abc <SystemCoreClockUpdate+0x108>)
  404a46:	4b1a      	ldr	r3, [pc, #104]	; (404ab0 <SystemCoreClockUpdate+0xfc>)
  404a48:	601a      	str	r2, [r3, #0]
  404a4a:	e002      	b.n	404a52 <SystemCoreClockUpdate+0x9e>
  404a4c:	4a19      	ldr	r2, [pc, #100]	; (404ab4 <SystemCoreClockUpdate+0x100>)
  404a4e:	4b18      	ldr	r3, [pc, #96]	; (404ab0 <SystemCoreClockUpdate+0xfc>)
  404a50:	601a      	str	r2, [r3, #0]
  404a52:	4b15      	ldr	r3, [pc, #84]	; (404aa8 <SystemCoreClockUpdate+0xf4>)
  404a54:	6b1b      	ldr	r3, [r3, #48]	; 0x30
  404a56:	f003 0303 	and.w	r3, r3, #3
  404a5a:	2b02      	cmp	r3, #2
  404a5c:	d10c      	bne.n	404a78 <SystemCoreClockUpdate+0xc4>
  404a5e:	4a12      	ldr	r2, [pc, #72]	; (404aa8 <SystemCoreClockUpdate+0xf4>)
  404a60:	6a93      	ldr	r3, [r2, #40]	; 0x28
  404a62:	6a92      	ldr	r2, [r2, #40]	; 0x28
  404a64:	4812      	ldr	r0, [pc, #72]	; (404ab0 <SystemCoreClockUpdate+0xfc>)
  404a66:	f3c3 410a 	ubfx	r1, r3, #16, #11
  404a6a:	6803      	ldr	r3, [r0, #0]
  404a6c:	fb01 3303 	mla	r3, r1, r3, r3
  404a70:	b2d2      	uxtb	r2, r2
  404a72:	fbb3 f3f2 	udiv	r3, r3, r2
  404a76:	6003      	str	r3, [r0, #0]
  404a78:	4b0b      	ldr	r3, [pc, #44]	; (404aa8 <SystemCoreClockUpdate+0xf4>)
  404a7a:	6b1b      	ldr	r3, [r3, #48]	; 0x30
  404a7c:	f003 0370 	and.w	r3, r3, #112	; 0x70
  404a80:	2b70      	cmp	r3, #112	; 0x70
  404a82:	d107      	bne.n	404a94 <SystemCoreClockUpdate+0xe0>
  404a84:	4a0a      	ldr	r2, [pc, #40]	; (404ab0 <SystemCoreClockUpdate+0xfc>)
  404a86:	6813      	ldr	r3, [r2, #0]
  404a88:	490d      	ldr	r1, [pc, #52]	; (404ac0 <SystemCoreClockUpdate+0x10c>)
  404a8a:	fba1 1303 	umull	r1, r3, r1, r3
  404a8e:	085b      	lsrs	r3, r3, #1
  404a90:	6013      	str	r3, [r2, #0]
  404a92:	4770      	bx	lr
  404a94:	4b04      	ldr	r3, [pc, #16]	; (404aa8 <SystemCoreClockUpdate+0xf4>)
  404a96:	6b1b      	ldr	r3, [r3, #48]	; 0x30
  404a98:	4905      	ldr	r1, [pc, #20]	; (404ab0 <SystemCoreClockUpdate+0xfc>)
  404a9a:	f3c3 1202 	ubfx	r2, r3, #4, #3
  404a9e:	680b      	ldr	r3, [r1, #0]
  404aa0:	40d3      	lsrs	r3, r2
  404aa2:	600b      	str	r3, [r1, #0]
  404aa4:	4770      	bx	lr
  404aa6:	bf00      	nop
  404aa8:	400e0600 	.word	0x400e0600
  404aac:	400e1810 	.word	0x400e1810
  404ab0:	2040003c 	.word	0x2040003c
  404ab4:	00b71b00 	.word	0x00b71b00
  404ab8:	003d0900 	.word	0x003d0900
  404abc:	007a1200 	.word	0x007a1200
  404ac0:	aaaaaaab 	.word	0xaaaaaaab

00404ac4 <system_init_flash>:
  404ac4:	4b12      	ldr	r3, [pc, #72]	; (404b10 <system_init_flash+0x4c>)
  404ac6:	4298      	cmp	r0, r3
  404ac8:	d804      	bhi.n	404ad4 <system_init_flash+0x10>
  404aca:	f04f 6280 	mov.w	r2, #67108864	; 0x4000000
  404ace:	4b11      	ldr	r3, [pc, #68]	; (404b14 <system_init_flash+0x50>)
  404ad0:	601a      	str	r2, [r3, #0]
  404ad2:	4770      	bx	lr
  404ad4:	4b10      	ldr	r3, [pc, #64]	; (404b18 <system_init_flash+0x54>)
  404ad6:	4298      	cmp	r0, r3
  404ad8:	d803      	bhi.n	404ae2 <system_init_flash+0x1e>
  404ada:	4a10      	ldr	r2, [pc, #64]	; (404b1c <system_init_flash+0x58>)
  404adc:	4b0d      	ldr	r3, [pc, #52]	; (404b14 <system_init_flash+0x50>)
  404ade:	601a      	str	r2, [r3, #0]
  404ae0:	4770      	bx	lr
  404ae2:	4b0f      	ldr	r3, [pc, #60]	; (404b20 <system_init_flash+0x5c>)
  404ae4:	4298      	cmp	r0, r3
  404ae6:	d803      	bhi.n	404af0 <system_init_flash+0x2c>
  404ae8:	4a0e      	ldr	r2, [pc, #56]	; (404b24 <system_init_flash+0x60>)
  404aea:	4b0a      	ldr	r3, [pc, #40]	; (404b14 <system_init_flash+0x50>)
  404aec:	601a      	str	r2, [r3, #0]
  404aee:	4770      	bx	lr
  404af0:	4b0d      	ldr	r3, [pc, #52]	; (404b28 <system_init_flash+0x64>)
  404af2:	4298      	cmp	r0, r3
  404af4:	d803      	bhi.n	404afe <system_init_flash+0x3a>
  404af6:	4a0d      	ldr	r2, [pc, #52]	; (404b2c <system_init_flash+0x68>)
  404af8:	4b06      	ldr	r3, [pc, #24]	; (404b14 <system_init_flash+0x50>)
  404afa:	601a      	str	r2, [r3, #0]
  404afc:	4770      	bx	lr
  404afe:	4b0c      	ldr	r3, [pc, #48]	; (404b30 <system_init_flash+0x6c>)
  404b00:	4298      	cmp	r0, r3
  404b02:	bf94      	ite	ls
  404b04:	f04f 2204 	movls.w	r2, #67109888	; 0x4000400
  404b08:	4a0a      	ldrhi	r2, [pc, #40]	; (404b34 <system_init_flash+0x70>)
  404b0a:	4b02      	ldr	r3, [pc, #8]	; (404b14 <system_init_flash+0x50>)
  404b0c:	601a      	str	r2, [r3, #0]
  404b0e:	4770      	bx	lr
  404b10:	01312cff 	.word	0x01312cff
  404b14:	400e0c00 	.word	0x400e0c00
  404b18:	026259ff 	.word	0x026259ff
  404b1c:	04000100 	.word	0x04000100
  404b20:	039386ff 	.word	0x039386ff
  404b24:	04000200 	.word	0x04000200
  404b28:	04c4b3ff 	.word	0x04c4b3ff
  404b2c:	04000300 	.word	0x04000300
  404b30:	05f5e0ff 	.word	0x05f5e0ff
  404b34:	04000500 	.word	0x04000500

00404b38 <_sbrk>:
  404b38:	4b09      	ldr	r3, [pc, #36]	; (404b60 <_sbrk+0x28>)
  404b3a:	681b      	ldr	r3, [r3, #0]
  404b3c:	b913      	cbnz	r3, 404b44 <_sbrk+0xc>
  404b3e:	4a09      	ldr	r2, [pc, #36]	; (404b64 <_sbrk+0x2c>)
  404b40:	4b07      	ldr	r3, [pc, #28]	; (404b60 <_sbrk+0x28>)
  404b42:	601a      	str	r2, [r3, #0]
  404b44:	4b06      	ldr	r3, [pc, #24]	; (404b60 <_sbrk+0x28>)
  404b46:	681b      	ldr	r3, [r3, #0]
  404b48:	181a      	adds	r2, r3, r0
  404b4a:	4907      	ldr	r1, [pc, #28]	; (404b68 <_sbrk+0x30>)
  404b4c:	4291      	cmp	r1, r2
  404b4e:	db04      	blt.n	404b5a <_sbrk+0x22>
  404b50:	4610      	mov	r0, r2
  404b52:	4a03      	ldr	r2, [pc, #12]	; (404b60 <_sbrk+0x28>)
  404b54:	6010      	str	r0, [r2, #0]
  404b56:	4618      	mov	r0, r3
  404b58:	4770      	bx	lr
  404b5a:	f04f 30ff 	mov.w	r0, #4294967295
  404b5e:	4770      	bx	lr
  404b60:	204009cc 	.word	0x204009cc
  404b64:	20403848 	.word	0x20403848
  404b68:	2045fffc 	.word	0x2045fffc

00404b6c <_close>:
  404b6c:	f04f 30ff 	mov.w	r0, #4294967295
  404b70:	4770      	bx	lr
  404b72:	bf00      	nop

00404b74 <_fstat>:
  404b74:	f44f 5300 	mov.w	r3, #8192	; 0x2000
  404b78:	604b      	str	r3, [r1, #4]
  404b7a:	2000      	movs	r0, #0
  404b7c:	4770      	bx	lr
  404b7e:	bf00      	nop

00404b80 <_isatty>:
  404b80:	2001      	movs	r0, #1
  404b82:	4770      	bx	lr

00404b84 <_lseek>:
  404b84:	2000      	movs	r0, #0
  404b86:	4770      	bx	lr

00404b88 <socket_cb>:
 *  - tstrSocketAcceptMsg
 *  - tstrSocketConnectMsg
 *  - tstrSocketRecvMsg
 */
static void socket_cb(SOCKET sock, uint8_t u8Msg, void *pvMsg)
{
  404b88:	b570      	push	{r4, r5, r6, lr}
  404b8a:	4614      	mov	r4, r2
	switch (u8Msg) {
  404b8c:	2906      	cmp	r1, #6
  404b8e:	d042      	beq.n	404c16 <socket_cb+0x8e>
  404b90:	2907      	cmp	r1, #7
  404b92:	d03c      	beq.n	404c0e <socket_cb+0x86>
  404b94:	2905      	cmp	r1, #5
  404b96:	d15e      	bne.n	404c56 <socket_cb+0xce>
   
  /* Socket connected */
  case SOCKET_MSG_CONNECT:
  {
    uint16_t rtn;
    memset(gau8ReceivedBuffer, 0, sizeof(gau8ReceivedBuffer));
  404b98:	4d2f      	ldr	r5, [pc, #188]	; (404c58 <socket_cb+0xd0>)
  404b9a:	f240 52b4 	movw	r2, #1460	; 0x5b4
  404b9e:	2100      	movs	r1, #0
  404ba0:	4628      	mov	r0, r5
  404ba2:	4b2e      	ldr	r3, [pc, #184]	; (404c5c <socket_cb+0xd4>)
  404ba4:	4798      	blx	r3
    sprintf((char *)gau8ReceivedBuffer, "%s%s", HOST_MSG, HOST_MSG_SUFFIX);
  404ba6:	4b2e      	ldr	r3, [pc, #184]	; (404c60 <socket_cb+0xd8>)
  404ba8:	4a2e      	ldr	r2, [pc, #184]	; (404c64 <socket_cb+0xdc>)
  404baa:	492f      	ldr	r1, [pc, #188]	; (404c68 <socket_cb+0xe0>)
  404bac:	4628      	mov	r0, r5
  404bae:	4d2f      	ldr	r5, [pc, #188]	; (404c6c <socket_cb+0xe4>)
  404bb0:	47a8      	blx	r5
    
    tstrSocketConnectMsg *pstrConnect = (tstrSocketConnectMsg *)pvMsg;
    if (pstrConnect && pstrConnect->s8Error >= 0) {
  404bb2:	b30c      	cbz	r4, 404bf8 <socket_cb+0x70>
  404bb4:	f994 3001 	ldrsb.w	r3, [r4, #1]
  404bb8:	2b00      	cmp	r3, #0
  404bba:	db1d      	blt.n	404bf8 <socket_cb+0x70>
      printf("socket_cb: connect success!\r\n");
  404bbc:	482c      	ldr	r0, [pc, #176]	; (404c70 <socket_cb+0xe8>)
  404bbe:	4b2d      	ldr	r3, [pc, #180]	; (404c74 <socket_cb+0xec>)
  404bc0:	4798      	blx	r3
      rtn = send(tcp_client_socket, gau8ReceivedBuffer, strlen((char *)gau8ReceivedBuffer), 0);
  404bc2:	4c25      	ldr	r4, [pc, #148]	; (404c58 <socket_cb+0xd0>)
  404bc4:	4620      	mov	r0, r4
  404bc6:	4b2c      	ldr	r3, [pc, #176]	; (404c78 <socket_cb+0xf0>)
  404bc8:	4798      	blx	r3
  404bca:	4d2c      	ldr	r5, [pc, #176]	; (404c7c <socket_cb+0xf4>)
  404bcc:	2300      	movs	r3, #0
  404bce:	b282      	uxth	r2, r0
  404bd0:	4621      	mov	r1, r4
  404bd2:	f995 0000 	ldrsb.w	r0, [r5]
  404bd6:	4e2a      	ldr	r6, [pc, #168]	; (404c80 <socket_cb+0xf8>)
  404bd8:	47b0      	blx	r6
      memset(gau8ReceivedBuffer, 0, MAIN_WIFI_M2M_BUFFER_SIZE);
  404bda:	f240 56b4 	movw	r6, #1460	; 0x5b4
  404bde:	4632      	mov	r2, r6
  404be0:	2100      	movs	r1, #0
  404be2:	4620      	mov	r0, r4
  404be4:	4b1d      	ldr	r3, [pc, #116]	; (404c5c <socket_cb+0xd4>)
  404be6:	4798      	blx	r3
      recv(tcp_client_socket, gau8SocketTestBuffer, sizeof(gau8SocketTestBuffer), 0);  
  404be8:	2300      	movs	r3, #0
  404bea:	4632      	mov	r2, r6
  404bec:	4925      	ldr	r1, [pc, #148]	; (404c84 <socket_cb+0xfc>)
  404bee:	f995 0000 	ldrsb.w	r0, [r5]
  404bf2:	4c25      	ldr	r4, [pc, #148]	; (404c88 <socket_cb+0x100>)
  404bf4:	47a0      	blx	r4
  404bf6:	bd70      	pop	{r4, r5, r6, pc}
      } else {
      printf("socket_cb: connect error!\r\n");
  404bf8:	4824      	ldr	r0, [pc, #144]	; (404c8c <socket_cb+0x104>)
  404bfa:	4b1e      	ldr	r3, [pc, #120]	; (404c74 <socket_cb+0xec>)
  404bfc:	4798      	blx	r3
      close(tcp_client_socket);
  404bfe:	4c1f      	ldr	r4, [pc, #124]	; (404c7c <socket_cb+0xf4>)
  404c00:	f994 0000 	ldrsb.w	r0, [r4]
  404c04:	4b22      	ldr	r3, [pc, #136]	; (404c90 <socket_cb+0x108>)
  404c06:	4798      	blx	r3
      tcp_client_socket = -1;
  404c08:	23ff      	movs	r3, #255	; 0xff
  404c0a:	7023      	strb	r3, [r4, #0]
  404c0c:	bd70      	pop	{r4, r5, r6, pc}
  break;

	/* Message send */
	case SOCKET_MSG_SEND:
	{
		printf("socket_cb: send success!\r\n");
  404c0e:	4821      	ldr	r0, [pc, #132]	; (404c94 <socket_cb+0x10c>)
  404c10:	4b18      	ldr	r3, [pc, #96]	; (404c74 <socket_cb+0xec>)
  404c12:	4798      	blx	r3
	  //printf("TCP Server Test Complete!\r\n");
		//printf("close socket\n");
		//close(tcp_client_socket);
		//close(tcp_server_socket);
	}
	break;
  404c14:	bd70      	pop	{r4, r5, r6, pc}
    
    uint8_t  messageAck[64];
    uint16_t messageAckSize;
    uint8_t  command;
        
		if (pstrRecv && pstrRecv->s16BufferSize > 0) {     
  404c16:	b1a2      	cbz	r2, 404c42 <socket_cb+0xba>
  404c18:	f9b2 3004 	ldrsh.w	r3, [r2, #4]
  404c1c:	2b00      	cmp	r3, #0
  404c1e:	dd10      	ble.n	404c42 <socket_cb+0xba>
			printf(" ---------- \n Cnt : %d \n -----------\n", ++g_rxCnt);
  404c20:	4b1d      	ldr	r3, [pc, #116]	; (404c98 <socket_cb+0x110>)
  404c22:	6819      	ldr	r1, [r3, #0]
  404c24:	3101      	adds	r1, #1
  404c26:	6019      	str	r1, [r3, #0]
  404c28:	481c      	ldr	r0, [pc, #112]	; (404c9c <socket_cb+0x114>)
  404c2a:	4d12      	ldr	r5, [pc, #72]	; (404c74 <socket_cb+0xec>)
  404c2c:	47a8      	blx	r5
			   
      // Para debug das mensagens do socket
			printf("%s \r\n", pstrRecv->pu8Buffer);   
  404c2e:	6821      	ldr	r1, [r4, #0]
  404c30:	481b      	ldr	r0, [pc, #108]	; (404ca0 <socket_cb+0x118>)
  404c32:	47a8      	blx	r5
       
      // limpa o buffer de recepcao e tx
      memset(pstrRecv->pu8Buffer, 0, pstrRecv->s16BufferSize); 
  404c34:	f9b4 2004 	ldrsh.w	r2, [r4, #4]
  404c38:	2100      	movs	r1, #0
  404c3a:	6820      	ldr	r0, [r4, #0]
  404c3c:	4b07      	ldr	r3, [pc, #28]	; (404c5c <socket_cb+0xd4>)
  404c3e:	4798      	blx	r3
  404c40:	bd70      	pop	{r4, r5, r6, pc}
      
      // Requista novos dados
      //recv(tcp_client_socket, gau8SocketTestBuffer, sizeof(gau8SocketTestBuffer), 0);
      
 		} else {
			printf("socket_cb: recv error!\r\n");
  404c42:	4818      	ldr	r0, [pc, #96]	; (404ca4 <socket_cb+0x11c>)
  404c44:	4b0b      	ldr	r3, [pc, #44]	; (404c74 <socket_cb+0xec>)
  404c46:	4798      	blx	r3
			close(tcp_client_socket);
  404c48:	4c0c      	ldr	r4, [pc, #48]	; (404c7c <socket_cb+0xf4>)
  404c4a:	f994 0000 	ldrsb.w	r0, [r4]
  404c4e:	4b10      	ldr	r3, [pc, #64]	; (404c90 <socket_cb+0x108>)
  404c50:	4798      	blx	r3
			tcp_client_socket = -1;
  404c52:	23ff      	movs	r3, #255	; 0xff
  404c54:	7023      	strb	r3, [r4, #0]
  404c56:	bd70      	pop	{r4, r5, r6, pc}
  404c58:	204009d0 	.word	0x204009d0
  404c5c:	0040515d 	.word	0x0040515d
  404c60:	0040c790 	.word	0x0040c790
  404c64:	0040c7ac 	.word	0x0040c7ac
  404c68:	0040c7c8 	.word	0x0040c7c8
  404c6c:	00405359 	.word	0x00405359
  404c70:	0040c7d0 	.word	0x0040c7d0
  404c74:	00405135 	.word	0x00405135
  404c78:	004053c1 	.word	0x004053c1
  404c7c:	20400040 	.word	0x20400040
  404c80:	00403939 	.word	0x00403939
  404c84:	20400f84 	.word	0x20400f84
  404c88:	004039d5 	.word	0x004039d5
  404c8c:	0040c7f0 	.word	0x0040c7f0
  404c90:	00403a79 	.word	0x00403a79
  404c94:	0040c80c 	.word	0x0040c80c
  404c98:	20401538 	.word	0x20401538
  404c9c:	0040c828 	.word	0x0040c828
  404ca0:	0040c850 	.word	0x0040c850
  404ca4:	0040c858 	.word	0x0040c858

00404ca8 <wifi_cb>:
 *  - tstrM2MAPResp
 *  - tstrM2mScanDone
 *  - tstrM2mWifiscanResult
 */
static void wifi_cb(uint8_t u8MsgType, void *pvMsg)
{
  404ca8:	b510      	push	{r4, lr}
  404caa:	b082      	sub	sp, #8
	switch (u8MsgType) {
  404cac:	282c      	cmp	r0, #44	; 0x2c
  404cae:	d002      	beq.n	404cb6 <wifi_cb+0xe>
  404cb0:	2832      	cmp	r0, #50	; 0x32
  404cb2:	d019      	beq.n	404ce8 <wifi_cb+0x40>
  404cb4:	e024      	b.n	404d00 <wifi_cb+0x58>
	case M2M_WIFI_RESP_CON_STATE_CHANGED:
	{
		tstrM2mWifiStateChanged *pstrWifiState = (tstrM2mWifiStateChanged *)pvMsg;
		if (pstrWifiState->u8CurrState == M2M_WIFI_CONNECTED) {
  404cb6:	780b      	ldrb	r3, [r1, #0]
  404cb8:	2b01      	cmp	r3, #1
  404cba:	d105      	bne.n	404cc8 <wifi_cb+0x20>
			printf("wifi_cb: M2M_WIFI_RESP_CON_STATE_CHANGED: CONNECTED\r\n");
  404cbc:	4811      	ldr	r0, [pc, #68]	; (404d04 <wifi_cb+0x5c>)
  404cbe:	4b12      	ldr	r3, [pc, #72]	; (404d08 <wifi_cb+0x60>)
  404cc0:	4798      	blx	r3
			m2m_wifi_request_dhcp_client();
  404cc2:	4b12      	ldr	r3, [pc, #72]	; (404d0c <wifi_cb+0x64>)
  404cc4:	4798      	blx	r3
  404cc6:	e01b      	b.n	404d00 <wifi_cb+0x58>
		} else if (pstrWifiState->u8CurrState == M2M_WIFI_DISCONNECTED) {
  404cc8:	b9d3      	cbnz	r3, 404d00 <wifi_cb+0x58>
			printf("wifi_cb: M2M_WIFI_RESP_CON_STATE_CHANGED: DISCONNECTED\r\n");
  404cca:	4811      	ldr	r0, [pc, #68]	; (404d10 <wifi_cb+0x68>)
  404ccc:	4b0e      	ldr	r3, [pc, #56]	; (404d08 <wifi_cb+0x60>)
  404cce:	4798      	blx	r3
			wifi_connected = 0;
  404cd0:	2200      	movs	r2, #0
  404cd2:	4b10      	ldr	r3, [pc, #64]	; (404d14 <wifi_cb+0x6c>)
  404cd4:	701a      	strb	r2, [r3, #0]
			m2m_wifi_connect((char *)MAIN_WLAN_SSID, sizeof(MAIN_WLAN_SSID), MAIN_WLAN_AUTH, (char *)MAIN_WLAN_PSK, M2M_WIFI_CH_ALL);
  404cd6:	23ff      	movs	r3, #255	; 0xff
  404cd8:	9300      	str	r3, [sp, #0]
  404cda:	4b0f      	ldr	r3, [pc, #60]	; (404d18 <wifi_cb+0x70>)
  404cdc:	2202      	movs	r2, #2
  404cde:	2107      	movs	r1, #7
  404ce0:	480e      	ldr	r0, [pc, #56]	; (404d1c <wifi_cb+0x74>)
  404ce2:	4c0f      	ldr	r4, [pc, #60]	; (404d20 <wifi_cb+0x78>)
  404ce4:	47a0      	blx	r4
  404ce6:	e00b      	b.n	404d00 <wifi_cb+0x58>
	break;

	case M2M_WIFI_REQ_DHCP_CONF:
	{
		uint8_t *pu8IPAddress = (uint8_t *)pvMsg;
		wifi_connected = 1;
  404ce8:	2201      	movs	r2, #1
  404cea:	4b0a      	ldr	r3, [pc, #40]	; (404d14 <wifi_cb+0x6c>)
  404cec:	701a      	strb	r2, [r3, #0]
		printf("wifi_cb: M2M_WIFI_REQ_DHCP_CONF: IP is %u.%u.%u.%u\r\n",
  404cee:	788b      	ldrb	r3, [r1, #2]
  404cf0:	784a      	ldrb	r2, [r1, #1]
  404cf2:	7808      	ldrb	r0, [r1, #0]
  404cf4:	78c9      	ldrb	r1, [r1, #3]
  404cf6:	9100      	str	r1, [sp, #0]
  404cf8:	4601      	mov	r1, r0
  404cfa:	480a      	ldr	r0, [pc, #40]	; (404d24 <wifi_cb+0x7c>)
  404cfc:	4c02      	ldr	r4, [pc, #8]	; (404d08 <wifi_cb+0x60>)
  404cfe:	47a0      	blx	r4
	break;

	default:
		break;
	}
}
  404d00:	b002      	add	sp, #8
  404d02:	bd10      	pop	{r4, pc}
  404d04:	0040c874 	.word	0x0040c874
  404d08:	00405135 	.word	0x00405135
  404d0c:	00402339 	.word	0x00402339
  404d10:	0040c8ac 	.word	0x0040c8ac
  404d14:	2040153c 	.word	0x2040153c
  404d18:	0040c8e8 	.word	0x0040c8e8
  404d1c:	0040c8f4 	.word	0x0040c8f4
  404d20:	0040231d 	.word	0x0040231d
  404d24:	0040c8fc 	.word	0x0040c8fc

00404d28 <usart_serial_getchar>:
 * \param p_usart   Base address of the USART instance.
 * \param data   Data to read
 *
 */
static inline void usart_serial_getchar(usart_if p_usart, uint8_t *data)
{
  404d28:	b5f0      	push	{r4, r5, r6, r7, lr}
  404d2a:	b083      	sub	sp, #12
  404d2c:	4605      	mov	r5, r0
  404d2e:	460c      	mov	r4, r1
	uint32_t val = 0;
  404d30:	2300      	movs	r3, #0
  404d32:	9301      	str	r3, [sp, #4]
	if (UART == (Uart*)p_usart) {
		while (uart_read((Uart*)p_usart, data));
	}
#else
# ifdef UART0
	if (UART0 == (Uart*)p_usart) {
  404d34:	4b29      	ldr	r3, [pc, #164]	; (404ddc <usart_serial_getchar+0xb4>)
  404d36:	4298      	cmp	r0, r3
  404d38:	d107      	bne.n	404d4a <usart_serial_getchar+0x22>
		while (uart_read((Uart*)p_usart, data));
  404d3a:	461f      	mov	r7, r3
  404d3c:	4e28      	ldr	r6, [pc, #160]	; (404de0 <usart_serial_getchar+0xb8>)
  404d3e:	4621      	mov	r1, r4
  404d40:	4638      	mov	r0, r7
  404d42:	47b0      	blx	r6
  404d44:	2800      	cmp	r0, #0
  404d46:	d1fa      	bne.n	404d3e <usart_serial_getchar+0x16>
  404d48:	e015      	b.n	404d76 <usart_serial_getchar+0x4e>
	}
# endif
# ifdef UART1
	if (UART1 == (Uart*)p_usart) {
  404d4a:	4b26      	ldr	r3, [pc, #152]	; (404de4 <usart_serial_getchar+0xbc>)
  404d4c:	4298      	cmp	r0, r3
  404d4e:	d107      	bne.n	404d60 <usart_serial_getchar+0x38>
		while (uart_read((Uart*)p_usart, data));
  404d50:	461f      	mov	r7, r3
  404d52:	4e23      	ldr	r6, [pc, #140]	; (404de0 <usart_serial_getchar+0xb8>)
  404d54:	4621      	mov	r1, r4
  404d56:	4638      	mov	r0, r7
  404d58:	47b0      	blx	r6
  404d5a:	2800      	cmp	r0, #0
  404d5c:	d1fa      	bne.n	404d54 <usart_serial_getchar+0x2c>
  404d5e:	e015      	b.n	404d8c <usart_serial_getchar+0x64>
	}
# endif
# ifdef UART2
	if (UART2 == (Uart*)p_usart) {
  404d60:	4b21      	ldr	r3, [pc, #132]	; (404de8 <usart_serial_getchar+0xc0>)
  404d62:	4298      	cmp	r0, r3
  404d64:	d107      	bne.n	404d76 <usart_serial_getchar+0x4e>
		while (uart_read((Uart*)p_usart, data));
  404d66:	461f      	mov	r7, r3
  404d68:	4e1d      	ldr	r6, [pc, #116]	; (404de0 <usart_serial_getchar+0xb8>)
  404d6a:	4621      	mov	r1, r4
  404d6c:	4638      	mov	r0, r7
  404d6e:	47b0      	blx	r6
  404d70:	2800      	cmp	r0, #0
  404d72:	d1fa      	bne.n	404d6a <usart_serial_getchar+0x42>
  404d74:	e017      	b.n	404da6 <usart_serial_getchar+0x7e>
	}
# endif
# ifdef UART3
	if (UART3 == (Uart*)p_usart) {
  404d76:	4b1d      	ldr	r3, [pc, #116]	; (404dec <usart_serial_getchar+0xc4>)
  404d78:	429d      	cmp	r5, r3
  404d7a:	d107      	bne.n	404d8c <usart_serial_getchar+0x64>
		while (uart_read((Uart*)p_usart, data));
  404d7c:	461f      	mov	r7, r3
  404d7e:	4e18      	ldr	r6, [pc, #96]	; (404de0 <usart_serial_getchar+0xb8>)
  404d80:	4621      	mov	r1, r4
  404d82:	4638      	mov	r0, r7
  404d84:	47b0      	blx	r6
  404d86:	2800      	cmp	r0, #0
  404d88:	d1fa      	bne.n	404d80 <usart_serial_getchar+0x58>
  404d8a:	e019      	b.n	404dc0 <usart_serial_getchar+0x98>
		while (usart_read(p_usart, &val));
		*data = (uint8_t)(val & 0xFF);
	}
#else
# ifdef USART0
	if (USART0 == p_usart) {
  404d8c:	4b18      	ldr	r3, [pc, #96]	; (404df0 <usart_serial_getchar+0xc8>)
  404d8e:	429d      	cmp	r5, r3
  404d90:	d109      	bne.n	404da6 <usart_serial_getchar+0x7e>
		while (usart_read(p_usart, &val));
  404d92:	461e      	mov	r6, r3
  404d94:	4d17      	ldr	r5, [pc, #92]	; (404df4 <usart_serial_getchar+0xcc>)
  404d96:	a901      	add	r1, sp, #4
  404d98:	4630      	mov	r0, r6
  404d9a:	47a8      	blx	r5
  404d9c:	2800      	cmp	r0, #0
  404d9e:	d1fa      	bne.n	404d96 <usart_serial_getchar+0x6e>
		*data = (uint8_t)(val & 0xFF);
  404da0:	9b01      	ldr	r3, [sp, #4]
  404da2:	7023      	strb	r3, [r4, #0]
  404da4:	e018      	b.n	404dd8 <usart_serial_getchar+0xb0>
	}
# endif
# ifdef USART1
	if (USART1 == p_usart) {
  404da6:	4b14      	ldr	r3, [pc, #80]	; (404df8 <usart_serial_getchar+0xd0>)
  404da8:	429d      	cmp	r5, r3
  404daa:	d109      	bne.n	404dc0 <usart_serial_getchar+0x98>
		while (usart_read(p_usart, &val));
  404dac:	461e      	mov	r6, r3
  404dae:	4d11      	ldr	r5, [pc, #68]	; (404df4 <usart_serial_getchar+0xcc>)
  404db0:	a901      	add	r1, sp, #4
  404db2:	4630      	mov	r0, r6
  404db4:	47a8      	blx	r5
  404db6:	2800      	cmp	r0, #0
  404db8:	d1fa      	bne.n	404db0 <usart_serial_getchar+0x88>
		*data = (uint8_t)(val & 0xFF);
  404dba:	9b01      	ldr	r3, [sp, #4]
  404dbc:	7023      	strb	r3, [r4, #0]
  404dbe:	e00b      	b.n	404dd8 <usart_serial_getchar+0xb0>
	}
# endif
# ifdef USART2
	if (USART2 == p_usart) {
  404dc0:	4b0e      	ldr	r3, [pc, #56]	; (404dfc <usart_serial_getchar+0xd4>)
  404dc2:	429d      	cmp	r5, r3
  404dc4:	d108      	bne.n	404dd8 <usart_serial_getchar+0xb0>
		while (usart_read(p_usart, &val));
  404dc6:	461e      	mov	r6, r3
  404dc8:	4d0a      	ldr	r5, [pc, #40]	; (404df4 <usart_serial_getchar+0xcc>)
  404dca:	a901      	add	r1, sp, #4
  404dcc:	4630      	mov	r0, r6
  404dce:	47a8      	blx	r5
  404dd0:	2800      	cmp	r0, #0
  404dd2:	d1fa      	bne.n	404dca <usart_serial_getchar+0xa2>
		*data = (uint8_t)(val & 0xFF);
  404dd4:	9b01      	ldr	r3, [sp, #4]
  404dd6:	7023      	strb	r3, [r4, #0]
		*data = (uint8_t)(val & 0xFF);
	}
# endif
#endif /* ifdef USART */

}
  404dd8:	b003      	add	sp, #12
  404dda:	bdf0      	pop	{r4, r5, r6, r7, pc}
  404ddc:	400e0800 	.word	0x400e0800
  404de0:	004047a5 	.word	0x004047a5
  404de4:	400e0a00 	.word	0x400e0a00
  404de8:	400e1a00 	.word	0x400e1a00
  404dec:	400e1c00 	.word	0x400e1c00
  404df0:	40024000 	.word	0x40024000
  404df4:	004048bd 	.word	0x004048bd
  404df8:	40028000 	.word	0x40028000
  404dfc:	4002c000 	.word	0x4002c000

00404e00 <usart_serial_putchar>:
 *   \retval 1  The character was written.
 *   \retval 0  The function timed out before the USART transmitter became
 * ready to send.
 */
static inline int usart_serial_putchar(usart_if p_usart, const uint8_t c)
{
  404e00:	b570      	push	{r4, r5, r6, lr}
  404e02:	460c      	mov	r4, r1
		while (uart_write((Uart*)p_usart, c)!=0);
		return 1;
	}
#else
# ifdef UART0
	if (UART0 == (Uart*)p_usart) {
  404e04:	4b2a      	ldr	r3, [pc, #168]	; (404eb0 <usart_serial_putchar+0xb0>)
  404e06:	4298      	cmp	r0, r3
  404e08:	d108      	bne.n	404e1c <usart_serial_putchar+0x1c>
		while (uart_write((Uart*)p_usart, c)!=0);
  404e0a:	461e      	mov	r6, r3
  404e0c:	4d29      	ldr	r5, [pc, #164]	; (404eb4 <usart_serial_putchar+0xb4>)
  404e0e:	4621      	mov	r1, r4
  404e10:	4630      	mov	r0, r6
  404e12:	47a8      	blx	r5
  404e14:	2800      	cmp	r0, #0
  404e16:	d1fa      	bne.n	404e0e <usart_serial_putchar+0xe>
		return 1;
  404e18:	2001      	movs	r0, #1
  404e1a:	bd70      	pop	{r4, r5, r6, pc}
	}
# endif
# ifdef UART1
	if (UART1 == (Uart*)p_usart) {
  404e1c:	4b26      	ldr	r3, [pc, #152]	; (404eb8 <usart_serial_putchar+0xb8>)
  404e1e:	4298      	cmp	r0, r3
  404e20:	d108      	bne.n	404e34 <usart_serial_putchar+0x34>
		while (uart_write((Uart*)p_usart, c)!=0);
  404e22:	461e      	mov	r6, r3
  404e24:	4d23      	ldr	r5, [pc, #140]	; (404eb4 <usart_serial_putchar+0xb4>)
  404e26:	4621      	mov	r1, r4
  404e28:	4630      	mov	r0, r6
  404e2a:	47a8      	blx	r5
  404e2c:	2800      	cmp	r0, #0
  404e2e:	d1fa      	bne.n	404e26 <usart_serial_putchar+0x26>
		return 1;
  404e30:	2001      	movs	r0, #1
  404e32:	bd70      	pop	{r4, r5, r6, pc}
	}
# endif
# ifdef UART2
	if (UART2 == (Uart*)p_usart) {
  404e34:	4b21      	ldr	r3, [pc, #132]	; (404ebc <usart_serial_putchar+0xbc>)
  404e36:	4298      	cmp	r0, r3
  404e38:	d108      	bne.n	404e4c <usart_serial_putchar+0x4c>
		while (uart_write((Uart*)p_usart, c)!=0);
  404e3a:	461e      	mov	r6, r3
  404e3c:	4d1d      	ldr	r5, [pc, #116]	; (404eb4 <usart_serial_putchar+0xb4>)
  404e3e:	4621      	mov	r1, r4
  404e40:	4630      	mov	r0, r6
  404e42:	47a8      	blx	r5
  404e44:	2800      	cmp	r0, #0
  404e46:	d1fa      	bne.n	404e3e <usart_serial_putchar+0x3e>
		return 1;
  404e48:	2001      	movs	r0, #1
  404e4a:	bd70      	pop	{r4, r5, r6, pc}
	}
# endif
# ifdef UART3
	if (UART3 == (Uart*)p_usart) {
  404e4c:	4b1c      	ldr	r3, [pc, #112]	; (404ec0 <usart_serial_putchar+0xc0>)
  404e4e:	4298      	cmp	r0, r3
  404e50:	d108      	bne.n	404e64 <usart_serial_putchar+0x64>
		while (uart_write((Uart*)p_usart, c)!=0);
  404e52:	461e      	mov	r6, r3
  404e54:	4d17      	ldr	r5, [pc, #92]	; (404eb4 <usart_serial_putchar+0xb4>)
  404e56:	4621      	mov	r1, r4
  404e58:	4630      	mov	r0, r6
  404e5a:	47a8      	blx	r5
  404e5c:	2800      	cmp	r0, #0
  404e5e:	d1fa      	bne.n	404e56 <usart_serial_putchar+0x56>
		return 1;
  404e60:	2001      	movs	r0, #1
  404e62:	bd70      	pop	{r4, r5, r6, pc}
		while (usart_write(p_usart, c)!=0);
		return 1;
	}
#else
# ifdef USART0
	if (USART0 == p_usart) {
  404e64:	4b17      	ldr	r3, [pc, #92]	; (404ec4 <usart_serial_putchar+0xc4>)
  404e66:	4298      	cmp	r0, r3
  404e68:	d108      	bne.n	404e7c <usart_serial_putchar+0x7c>
		while (usart_write(p_usart, c)!=0);
  404e6a:	461e      	mov	r6, r3
  404e6c:	4d16      	ldr	r5, [pc, #88]	; (404ec8 <usart_serial_putchar+0xc8>)
  404e6e:	4621      	mov	r1, r4
  404e70:	4630      	mov	r0, r6
  404e72:	47a8      	blx	r5
  404e74:	2800      	cmp	r0, #0
  404e76:	d1fa      	bne.n	404e6e <usart_serial_putchar+0x6e>
		return 1;
  404e78:	2001      	movs	r0, #1
  404e7a:	bd70      	pop	{r4, r5, r6, pc}
	}
# endif
# ifdef USART1
	if (USART1 == p_usart) {
  404e7c:	4b13      	ldr	r3, [pc, #76]	; (404ecc <usart_serial_putchar+0xcc>)
  404e7e:	4298      	cmp	r0, r3
  404e80:	d108      	bne.n	404e94 <usart_serial_putchar+0x94>
		while (usart_write(p_usart, c)!=0);
  404e82:	461e      	mov	r6, r3
  404e84:	4d10      	ldr	r5, [pc, #64]	; (404ec8 <usart_serial_putchar+0xc8>)
  404e86:	4621      	mov	r1, r4
  404e88:	4630      	mov	r0, r6
  404e8a:	47a8      	blx	r5
  404e8c:	2800      	cmp	r0, #0
  404e8e:	d1fa      	bne.n	404e86 <usart_serial_putchar+0x86>
		return 1;
  404e90:	2001      	movs	r0, #1
  404e92:	bd70      	pop	{r4, r5, r6, pc}
	}
# endif
# ifdef USART2
	if (USART2 == p_usart) {
  404e94:	4b0e      	ldr	r3, [pc, #56]	; (404ed0 <usart_serial_putchar+0xd0>)
  404e96:	4298      	cmp	r0, r3
  404e98:	d108      	bne.n	404eac <usart_serial_putchar+0xac>
		while (usart_write(p_usart, c)!=0);
  404e9a:	461e      	mov	r6, r3
  404e9c:	4d0a      	ldr	r5, [pc, #40]	; (404ec8 <usart_serial_putchar+0xc8>)
  404e9e:	4621      	mov	r1, r4
  404ea0:	4630      	mov	r0, r6
  404ea2:	47a8      	blx	r5
  404ea4:	2800      	cmp	r0, #0
  404ea6:	d1fa      	bne.n	404e9e <usart_serial_putchar+0x9e>
		return 1;
  404ea8:	2001      	movs	r0, #1
  404eaa:	bd70      	pop	{r4, r5, r6, pc}
		return 1;
	}
# endif
#endif /* ifdef USART */

	return 0;
  404eac:	2000      	movs	r0, #0
}
  404eae:	bd70      	pop	{r4, r5, r6, pc}
  404eb0:	400e0800 	.word	0x400e0800
  404eb4:	00404791 	.word	0x00404791
  404eb8:	400e0a00 	.word	0x400e0a00
  404ebc:	400e1a00 	.word	0x400e1a00
  404ec0:	400e1c00 	.word	0x400e1c00
  404ec4:	40024000 	.word	0x40024000
  404ec8:	004048a5 	.word	0x004048a5
  404ecc:	40028000 	.word	0x40028000
  404ed0:	4002c000 	.word	0x4002c000

00404ed4 <main>:
 * Initialize system, UART console, network then test function of TCP server.
 *
 * \return program return value.
 */
int main(void)
{
  404ed4:	b570      	push	{r4, r5, r6, lr}
  404ed6:	b092      	sub	sp, #72	; 0x48
	struct sockaddr_in addr;
	
	

	/* Initialize the board. */
	sysclk_init();
  404ed8:	4b54      	ldr	r3, [pc, #336]	; (40502c <main+0x158>)
  404eda:	4798      	blx	r3
	board_init();
  404edc:	4b54      	ldr	r3, [pc, #336]	; (405030 <main+0x15c>)
  404ede:	4798      	blx	r3
 *
 * \param ul_id Id (number) of the peripheral clock.
 */
static inline void sysclk_enable_peripheral_clock(uint32_t ul_id)
{
	pmc_enable_periph_clk(ul_id);
  404ee0:	200e      	movs	r0, #14
  404ee2:	4e54      	ldr	r6, [pc, #336]	; (405034 <main+0x160>)
  404ee4:	47b0      	blx	r6
 * \param opt         Options needed to set up RS232 communication (see \ref usart_options_t).
 *
 */
static inline void stdio_serial_init(volatile void *usart, const usart_serial_options_t *opt)
{
	stdio_base = (void *)usart;
  404ee6:	4d54      	ldr	r5, [pc, #336]	; (405038 <main+0x164>)
  404ee8:	4b54      	ldr	r3, [pc, #336]	; (40503c <main+0x168>)
  404eea:	601d      	str	r5, [r3, #0]
	ptr_put = (int (*)(void volatile*,char))&usart_serial_putchar;
  404eec:	4a54      	ldr	r2, [pc, #336]	; (405040 <main+0x16c>)
  404eee:	4b55      	ldr	r3, [pc, #340]	; (405044 <main+0x170>)
  404ef0:	601a      	str	r2, [r3, #0]
	ptr_get = (void (*)(void volatile*,char*))&usart_serial_getchar;
  404ef2:	4a55      	ldr	r2, [pc, #340]	; (405048 <main+0x174>)
  404ef4:	4b55      	ldr	r3, [pc, #340]	; (40504c <main+0x178>)
  404ef6:	601a      	str	r2, [r3, #0]
	uart_settings.ul_baudrate = opt->baudrate;
	uart_settings.ul_mode = opt->paritytype;
#endif

	sam_usart_opt_t usart_settings;
	usart_settings.baudrate = opt->baudrate;
  404ef8:	f44f 33e1 	mov.w	r3, #115200	; 0x1c200
  404efc:	9302      	str	r3, [sp, #8]
	usart_settings.char_length = opt->charlength;
  404efe:	23c0      	movs	r3, #192	; 0xc0
  404f00:	9303      	str	r3, [sp, #12]
	usart_settings.parity_type = opt->paritytype;
  404f02:	f44f 6300 	mov.w	r3, #2048	; 0x800
  404f06:	9304      	str	r3, [sp, #16]
	usart_settings.stop_bits= opt->stopbits;
  404f08:	2400      	movs	r4, #0
  404f0a:	9405      	str	r4, [sp, #20]
	usart_settings.channel_mode= US_MR_CHMODE_NORMAL;
  404f0c:	9406      	str	r4, [sp, #24]
  404f0e:	200e      	movs	r0, #14
  404f10:	47b0      	blx	r6
		flexcom_set_opmode(FLEXCOM1, FLEXCOM_USART);
#else
		sysclk_enable_peripheral_clock(ID_USART1);
#endif
		/* Configure USART */
		usart_init_rs232(p_usart, &usart_settings,
  404f12:	4a4f      	ldr	r2, [pc, #316]	; (405050 <main+0x17c>)
  404f14:	a902      	add	r1, sp, #8
  404f16:	4628      	mov	r0, r5
  404f18:	4b4e      	ldr	r3, [pc, #312]	; (405054 <main+0x180>)
  404f1a:	4798      	blx	r3
		/* Configure USART */
		usart_init_rs232(p_usart, &usart_settings,
				sysclk_get_peripheral_bus_hz(p_usart));
#endif
		/* Enable the receiver and transmitter. */
		usart_enable_tx(p_usart);
  404f1c:	4628      	mov	r0, r5
  404f1e:	4b4e      	ldr	r3, [pc, #312]	; (405058 <main+0x184>)
  404f20:	4798      	blx	r3
		usart_enable_rx(p_usart);
  404f22:	4628      	mov	r0, r5
  404f24:	4b4d      	ldr	r3, [pc, #308]	; (40505c <main+0x188>)
  404f26:	4798      	blx	r3
	fdevopen((int (*)(char, FILE*))(_write),(int (*)(FILE*))(_read));
#  endif
#  if UC3 || SAM
	// For AVR32 and SAM GCC
	// Specify that stdout and stdin should not be buffered.
	setbuf(stdout, NULL);
  404f28:	4e4d      	ldr	r6, [pc, #308]	; (405060 <main+0x18c>)
  404f2a:	6833      	ldr	r3, [r6, #0]
  404f2c:	4621      	mov	r1, r4
  404f2e:	6898      	ldr	r0, [r3, #8]
  404f30:	4d4c      	ldr	r5, [pc, #304]	; (405064 <main+0x190>)
  404f32:	47a8      	blx	r5
	setbuf(stdin, NULL);
  404f34:	6833      	ldr	r3, [r6, #0]
  404f36:	4621      	mov	r1, r4
  404f38:	6858      	ldr	r0, [r3, #4]
  404f3a:	47a8      	blx	r5

	/* Initialize the UART console. */
	configure_console();
	printf(STRING_HEADER);
  404f3c:	484a      	ldr	r0, [pc, #296]	; (405068 <main+0x194>)
  404f3e:	4b4b      	ldr	r3, [pc, #300]	; (40506c <main+0x198>)
  404f40:	4798      	blx	r3

	/* Initialize the BSP. */
	nm_bsp_init();
  404f42:	4b4b      	ldr	r3, [pc, #300]	; (405070 <main+0x19c>)
  404f44:	4798      	blx	r3

	/* Initialize socket address structure. */
	addr.sin_family = AF_INET;
  404f46:	2302      	movs	r3, #2
  404f48:	f8ad 3020 	strh.w	r3, [sp, #32]
	addr.sin_port = _htons(MAIN_SERVER_PORT);
  404f4c:	f249 131f 	movw	r3, #37151	; 0x911f
  404f50:	f8ad 3022 	strh.w	r3, [sp, #34]	; 0x22
	addr.sin_addr.s_addr = MAIN_SERVER_IP;
  404f54:	4b47      	ldr	r3, [pc, #284]	; (405074 <main+0x1a0>)
  404f56:	9309      	str	r3, [sp, #36]	; 0x24

	/* Initialize Wi-Fi parameters structure. */
	memset((uint8_t *)&param, 0, sizeof(tstrWifiInitParam));
  404f58:	940d      	str	r4, [sp, #52]	; 0x34
  404f5a:	940e      	str	r4, [sp, #56]	; 0x38
  404f5c:	940f      	str	r4, [sp, #60]	; 0x3c
  404f5e:	9410      	str	r4, [sp, #64]	; 0x40
  404f60:	9411      	str	r4, [sp, #68]	; 0x44

	/* Initialize Wi-Fi driver with data and status callbacks. */
	param.pfAppWifiCb = wifi_cb;
  404f62:	4b45      	ldr	r3, [pc, #276]	; (405078 <main+0x1a4>)
  404f64:	930c      	str	r3, [sp, #48]	; 0x30
	ret = m2m_wifi_init(&param);
  404f66:	a80c      	add	r0, sp, #48	; 0x30
  404f68:	4b44      	ldr	r3, [pc, #272]	; (40507c <main+0x1a8>)
  404f6a:	4798      	blx	r3
	if (M2M_SUCCESS != ret) {
  404f6c:	b120      	cbz	r0, 404f78 <main+0xa4>
  404f6e:	4601      	mov	r1, r0
		printf("main: m2m_wifi_init call error!(%d)\r\n", ret);
  404f70:	4843      	ldr	r0, [pc, #268]	; (405080 <main+0x1ac>)
  404f72:	4b3e      	ldr	r3, [pc, #248]	; (40506c <main+0x198>)
  404f74:	4798      	blx	r3
  404f76:	e7fe      	b.n	404f76 <main+0xa2>
		while (1) {
		}
	}

	/* Initialize socket module */
	socketInit();
  404f78:	4b42      	ldr	r3, [pc, #264]	; (405084 <main+0x1b0>)
  404f7a:	4798      	blx	r3
	registerSocketCallback(socket_cb, NULL);
  404f7c:	2100      	movs	r1, #0
  404f7e:	4842      	ldr	r0, [pc, #264]	; (405088 <main+0x1b4>)
  404f80:	4b42      	ldr	r3, [pc, #264]	; (40508c <main+0x1b8>)
  404f82:	4798      	blx	r3

	/* Connect to router. */
	m2m_wifi_connect((char *)MAIN_WLAN_SSID, sizeof(MAIN_WLAN_SSID), MAIN_WLAN_AUTH, (char *)MAIN_WLAN_PSK, M2M_WIFI_CH_ALL);
  404f84:	23ff      	movs	r3, #255	; 0xff
  404f86:	9300      	str	r3, [sp, #0]
  404f88:	4b41      	ldr	r3, [pc, #260]	; (405090 <main+0x1bc>)
  404f8a:	2202      	movs	r2, #2
  404f8c:	2107      	movs	r1, #7
  404f8e:	4841      	ldr	r0, [pc, #260]	; (405094 <main+0x1c0>)
  404f90:	4c41      	ldr	r4, [pc, #260]	; (405098 <main+0x1c4>)
  404f92:	47a0      	blx	r4
  
	
	/** SDCARD */
	irq_initialize_vectors();
	cpu_irq_enable();
  404f94:	2201      	movs	r2, #1
  404f96:	4b41      	ldr	r3, [pc, #260]	; (40509c <main+0x1c8>)
  404f98:	701a      	strb	r2, [r3, #0]
    This function ensures the apparent order of the explicit memory operations before
    and after the instruction, without ensuring their completion.
 */
__attribute__( ( always_inline ) ) __STATIC_INLINE void __DMB(void)
{
  __ASM volatile ("dmb");
  404f9a:	f3bf 8f5f 	dmb	sy
  This function enables IRQ interrupts by clearing the I-bit in the CPSR.
  Can only be executed in Privileged modes.
 */
__attribute__( ( always_inline ) ) __STATIC_INLINE void __enable_irq(void)
{
  __ASM volatile ("cpsie i" : : : "memory");
  404f9e:	b662      	cpsie	i
	FRESULT res;
	FATFS fs;
	FIL file_object;
	
	/* Initialize SD MMC stack */
	sd_mmc_init();
  404fa0:	4b3f      	ldr	r3, [pc, #252]	; (4050a0 <main+0x1cc>)
  404fa2:	4798      	blx	r3
	printf("\x0C\n\r-- SD/MMC/SDIO Card Example on FatFs --\n\r");
  404fa4:	483f      	ldr	r0, [pc, #252]	; (4050a4 <main+0x1d0>)
  404fa6:	4c31      	ldr	r4, [pc, #196]	; (40506c <main+0x198>)
  404fa8:	47a0      	blx	r4
	
	printf("Please plug an SD, MMC or SDIO card in slot.\n\r");
  404faa:	483f      	ldr	r0, [pc, #252]	; (4050a8 <main+0x1d4>)
  404fac:	47a0      	blx	r4
	/* Wait card present and ready */
	do {
			status = sd_mmc_test_unit_ready(0);
  404fae:	4e3f      	ldr	r6, [pc, #252]	; (4050ac <main+0x1d8>)
			if (CTRL_FAIL == status) {
				printf("Card install FAIL\n\r");
				printf("Please unplug and re-plug the card.\n\r");
				while (CTRL_NO_PRESENT != sd_mmc_check(0)) {
  404fb0:	4d3f      	ldr	r5, [pc, #252]	; (4050b0 <main+0x1dc>)
	printf("\x0C\n\r-- SD/MMC/SDIO Card Example on FatFs --\n\r");
	
	printf("Please plug an SD, MMC or SDIO card in slot.\n\r");
	/* Wait card present and ready */
	do {
			status = sd_mmc_test_unit_ready(0);
  404fb2:	2000      	movs	r0, #0
  404fb4:	47b0      	blx	r6
			if (CTRL_FAIL == status) {
  404fb6:	2801      	cmp	r0, #1
  404fb8:	d10a      	bne.n	404fd0 <main+0xfc>
				printf("Card install FAIL\n\r");
  404fba:	483e      	ldr	r0, [pc, #248]	; (4050b4 <main+0x1e0>)
  404fbc:	4c2b      	ldr	r4, [pc, #172]	; (40506c <main+0x198>)
  404fbe:	47a0      	blx	r4
				printf("Please unplug and re-plug the card.\n\r");
  404fc0:	483d      	ldr	r0, [pc, #244]	; (4050b8 <main+0x1e4>)
  404fc2:	47a0      	blx	r4
				while (CTRL_NO_PRESENT != sd_mmc_check(0)) {
  404fc4:	2400      	movs	r4, #0
  404fc6:	4620      	mov	r0, r4
  404fc8:	47a8      	blx	r5
  404fca:	2802      	cmp	r0, #2
  404fcc:	d1fb      	bne.n	404fc6 <main+0xf2>
  404fce:	e7f0      	b.n	404fb2 <main+0xde>
				}
			}
	} while (CTRL_GOOD != status);	
  404fd0:	2800      	cmp	r0, #0
  404fd2:	d1ee      	bne.n	404fb2 <main+0xde>
	
	printf("Mount disk (f_mount)...\r\n");
  404fd4:	4839      	ldr	r0, [pc, #228]	; (4050bc <main+0x1e8>)
  404fd6:	4b25      	ldr	r3, [pc, #148]	; (40506c <main+0x198>)
  404fd8:	4798      	blx	r3

	
	while (1) {
		/* Handle pending events from network controller. */
		m2m_wifi_handle_events(NULL);
  404fda:	4d39      	ldr	r5, [pc, #228]	; (4050c0 <main+0x1ec>)

		if (wifi_connected == M2M_WIFI_CONNECTED) {
  404fdc:	4c39      	ldr	r4, [pc, #228]	; (4050c4 <main+0x1f0>)
				if (tcp_client_socket < 0) {
  404fde:	4e3a      	ldr	r6, [pc, #232]	; (4050c8 <main+0x1f4>)
	printf("Mount disk (f_mount)...\r\n");

	
	while (1) {
		/* Handle pending events from network controller. */
		m2m_wifi_handle_events(NULL);
  404fe0:	2000      	movs	r0, #0
  404fe2:	47a8      	blx	r5

		if (wifi_connected == M2M_WIFI_CONNECTED) {
  404fe4:	7823      	ldrb	r3, [r4, #0]
  404fe6:	2b01      	cmp	r3, #1
  404fe8:	d1fa      	bne.n	404fe0 <main+0x10c>
				if (tcp_client_socket < 0) {
  404fea:	f996 3000 	ldrsb.w	r3, [r6]
  404fee:	2b00      	cmp	r3, #0
  404ff0:	daf6      	bge.n	404fe0 <main+0x10c>
  				if ((tcp_client_socket = socket(AF_INET, SOCK_STREAM, 0)) < 0) {
  404ff2:	2200      	movs	r2, #0
  404ff4:	2101      	movs	r1, #1
  404ff6:	2002      	movs	r0, #2
  404ff8:	4b34      	ldr	r3, [pc, #208]	; (4050cc <main+0x1f8>)
  404ffa:	4798      	blx	r3
  404ffc:	7030      	strb	r0, [r6, #0]
  404ffe:	2800      	cmp	r0, #0
  405000:	da03      	bge.n	40500a <main+0x136>
    				printf("main: failed to create TCP client socket error!\r\n");
  405002:	4833      	ldr	r0, [pc, #204]	; (4050d0 <main+0x1fc>)
  405004:	4b19      	ldr	r3, [pc, #100]	; (40506c <main+0x198>)
  405006:	4798      	blx	r3
    				continue;
  405008:	e7ea      	b.n	404fe0 <main+0x10c>
  				}
          
          /* Connect TCP client socket. */
          if (connect(tcp_client_socket, (struct sockaddr *)&addr, sizeof(struct sockaddr_in)) != SOCK_ERR_NO_ERROR ) {
  40500a:	2210      	movs	r2, #16
  40500c:	a908      	add	r1, sp, #32
  40500e:	4b31      	ldr	r3, [pc, #196]	; (4050d4 <main+0x200>)
  405010:	4798      	blx	r3
  405012:	b138      	cbz	r0, 405024 <main+0x150>
            printf("main: failed to connect socket error!\r\n");
  405014:	4830      	ldr	r0, [pc, #192]	; (4050d8 <main+0x204>)
  405016:	4b15      	ldr	r3, [pc, #84]	; (40506c <main+0x198>)
  405018:	4798      	blx	r3
            close(tcp_client_socket);
  40501a:	f996 0000 	ldrsb.w	r0, [r6]
  40501e:	4b2f      	ldr	r3, [pc, #188]	; (4050dc <main+0x208>)
  405020:	4798      	blx	r3
            continue;
  405022:	e7dd      	b.n	404fe0 <main+0x10c>
          }else{
            printf("Conectado ! \n");
  405024:	482e      	ldr	r0, [pc, #184]	; (4050e0 <main+0x20c>)
  405026:	4b11      	ldr	r3, [pc, #68]	; (40506c <main+0x198>)
  405028:	4798      	blx	r3
  40502a:	e7d9      	b.n	404fe0 <main+0x10c>
  40502c:	00403be1 	.word	0x00403be1
  405030:	00403cdd 	.word	0x00403cdd
  405034:	004045d5 	.word	0x004045d5
  405038:	40028000 	.word	0x40028000
  40503c:	2040163c 	.word	0x2040163c
  405040:	00404e01 	.word	0x00404e01
  405044:	20401638 	.word	0x20401638
  405048:	00404d29 	.word	0x00404d29
  40504c:	20401634 	.word	0x20401634
  405050:	08f0d180 	.word	0x08f0d180
  405054:	00404841 	.word	0x00404841
  405058:	00404895 	.word	0x00404895
  40505c:	0040489d 	.word	0x0040489d
  405060:	20400470 	.word	0x20400470
  405064:	004051f9 	.word	0x004051f9
  405068:	0040c934 	.word	0x0040c934
  40506c:	00405135 	.word	0x00405135
  405070:	004011a9 	.word	0x004011a9
  405074:	070a14ac 	.word	0x070a14ac
  405078:	00404ca9 	.word	0x00404ca9
  40507c:	00401fd1 	.word	0x00401fd1
  405080:	0040c994 	.word	0x0040c994
  405084:	0040376d 	.word	0x0040376d
  405088:	00404b89 	.word	0x00404b89
  40508c:	004037b1 	.word	0x004037b1
  405090:	0040c8e8 	.word	0x0040c8e8
  405094:	0040c8f4 	.word	0x0040c8f4
  405098:	0040231d 	.word	0x0040231d
  40509c:	20400038 	.word	0x20400038
  4050a0:	00400345 	.word	0x00400345
  4050a4:	0040c9bc 	.word	0x0040c9bc
  4050a8:	0040c9ec 	.word	0x0040c9ec
  4050ac:	00400c29 	.word	0x00400c29
  4050b0:	00400371 	.word	0x00400371
  4050b4:	0040ca1c 	.word	0x0040ca1c
  4050b8:	0040ca30 	.word	0x0040ca30
  4050bc:	0040ca58 	.word	0x0040ca58
  4050c0:	004020cd 	.word	0x004020cd
  4050c4:	2040153c 	.word	0x2040153c
  4050c8:	20400040 	.word	0x20400040
  4050cc:	004037c5 	.word	0x004037c5
  4050d0:	0040ca74 	.word	0x0040ca74
  4050d4:	004038a5 	.word	0x004038a5
  4050d8:	0040caa8 	.word	0x0040caa8
  4050dc:	00403a79 	.word	0x00403a79
  4050e0:	0040cad0 	.word	0x0040cad0

004050e4 <__libc_init_array>:
  4050e4:	b570      	push	{r4, r5, r6, lr}
  4050e6:	4e0f      	ldr	r6, [pc, #60]	; (405124 <__libc_init_array+0x40>)
  4050e8:	4d0f      	ldr	r5, [pc, #60]	; (405128 <__libc_init_array+0x44>)
  4050ea:	1b76      	subs	r6, r6, r5
  4050ec:	10b6      	asrs	r6, r6, #2
  4050ee:	bf18      	it	ne
  4050f0:	2400      	movne	r4, #0
  4050f2:	d005      	beq.n	405100 <__libc_init_array+0x1c>
  4050f4:	3401      	adds	r4, #1
  4050f6:	f855 3b04 	ldr.w	r3, [r5], #4
  4050fa:	4798      	blx	r3
  4050fc:	42a6      	cmp	r6, r4
  4050fe:	d1f9      	bne.n	4050f4 <__libc_init_array+0x10>
  405100:	4e0a      	ldr	r6, [pc, #40]	; (40512c <__libc_init_array+0x48>)
  405102:	4d0b      	ldr	r5, [pc, #44]	; (405130 <__libc_init_array+0x4c>)
  405104:	1b76      	subs	r6, r6, r5
  405106:	f007 fdbd 	bl	40cc84 <_init>
  40510a:	10b6      	asrs	r6, r6, #2
  40510c:	bf18      	it	ne
  40510e:	2400      	movne	r4, #0
  405110:	d006      	beq.n	405120 <__libc_init_array+0x3c>
  405112:	3401      	adds	r4, #1
  405114:	f855 3b04 	ldr.w	r3, [r5], #4
  405118:	4798      	blx	r3
  40511a:	42a6      	cmp	r6, r4
  40511c:	d1f9      	bne.n	405112 <__libc_init_array+0x2e>
  40511e:	bd70      	pop	{r4, r5, r6, pc}
  405120:	bd70      	pop	{r4, r5, r6, pc}
  405122:	bf00      	nop
  405124:	0040cc90 	.word	0x0040cc90
  405128:	0040cc90 	.word	0x0040cc90
  40512c:	0040cc98 	.word	0x0040cc98
  405130:	0040cc90 	.word	0x0040cc90

00405134 <iprintf>:
  405134:	b40f      	push	{r0, r1, r2, r3}
  405136:	b500      	push	{lr}
  405138:	4907      	ldr	r1, [pc, #28]	; (405158 <iprintf+0x24>)
  40513a:	b083      	sub	sp, #12
  40513c:	ab04      	add	r3, sp, #16
  40513e:	6808      	ldr	r0, [r1, #0]
  405140:	f853 2b04 	ldr.w	r2, [r3], #4
  405144:	6881      	ldr	r1, [r0, #8]
  405146:	9301      	str	r3, [sp, #4]
  405148:	f001 fd32 	bl	406bb0 <_vfiprintf_r>
  40514c:	b003      	add	sp, #12
  40514e:	f85d eb04 	ldr.w	lr, [sp], #4
  405152:	b004      	add	sp, #16
  405154:	4770      	bx	lr
  405156:	bf00      	nop
  405158:	20400470 	.word	0x20400470

0040515c <memset>:
  40515c:	b470      	push	{r4, r5, r6}
  40515e:	0784      	lsls	r4, r0, #30
  405160:	d046      	beq.n	4051f0 <memset+0x94>
  405162:	1e54      	subs	r4, r2, #1
  405164:	2a00      	cmp	r2, #0
  405166:	d041      	beq.n	4051ec <memset+0x90>
  405168:	b2cd      	uxtb	r5, r1
  40516a:	4603      	mov	r3, r0
  40516c:	e002      	b.n	405174 <memset+0x18>
  40516e:	1e62      	subs	r2, r4, #1
  405170:	b3e4      	cbz	r4, 4051ec <memset+0x90>
  405172:	4614      	mov	r4, r2
  405174:	f803 5b01 	strb.w	r5, [r3], #1
  405178:	079a      	lsls	r2, r3, #30
  40517a:	d1f8      	bne.n	40516e <memset+0x12>
  40517c:	2c03      	cmp	r4, #3
  40517e:	d92e      	bls.n	4051de <memset+0x82>
  405180:	b2cd      	uxtb	r5, r1
  405182:	ea45 2505 	orr.w	r5, r5, r5, lsl #8
  405186:	2c0f      	cmp	r4, #15
  405188:	ea45 4505 	orr.w	r5, r5, r5, lsl #16
  40518c:	d919      	bls.n	4051c2 <memset+0x66>
  40518e:	f103 0210 	add.w	r2, r3, #16
  405192:	4626      	mov	r6, r4
  405194:	3e10      	subs	r6, #16
  405196:	2e0f      	cmp	r6, #15
  405198:	f842 5c10 	str.w	r5, [r2, #-16]
  40519c:	f842 5c0c 	str.w	r5, [r2, #-12]
  4051a0:	f842 5c08 	str.w	r5, [r2, #-8]
  4051a4:	f842 5c04 	str.w	r5, [r2, #-4]
  4051a8:	f102 0210 	add.w	r2, r2, #16
  4051ac:	d8f2      	bhi.n	405194 <memset+0x38>
  4051ae:	f1a4 0210 	sub.w	r2, r4, #16
  4051b2:	f022 020f 	bic.w	r2, r2, #15
  4051b6:	f004 040f 	and.w	r4, r4, #15
  4051ba:	3210      	adds	r2, #16
  4051bc:	2c03      	cmp	r4, #3
  4051be:	4413      	add	r3, r2
  4051c0:	d90d      	bls.n	4051de <memset+0x82>
  4051c2:	461e      	mov	r6, r3
  4051c4:	4622      	mov	r2, r4
  4051c6:	3a04      	subs	r2, #4
  4051c8:	2a03      	cmp	r2, #3
  4051ca:	f846 5b04 	str.w	r5, [r6], #4
  4051ce:	d8fa      	bhi.n	4051c6 <memset+0x6a>
  4051d0:	1f22      	subs	r2, r4, #4
  4051d2:	f022 0203 	bic.w	r2, r2, #3
  4051d6:	3204      	adds	r2, #4
  4051d8:	4413      	add	r3, r2
  4051da:	f004 0403 	and.w	r4, r4, #3
  4051de:	b12c      	cbz	r4, 4051ec <memset+0x90>
  4051e0:	b2c9      	uxtb	r1, r1
  4051e2:	441c      	add	r4, r3
  4051e4:	f803 1b01 	strb.w	r1, [r3], #1
  4051e8:	42a3      	cmp	r3, r4
  4051ea:	d1fb      	bne.n	4051e4 <memset+0x88>
  4051ec:	bc70      	pop	{r4, r5, r6}
  4051ee:	4770      	bx	lr
  4051f0:	4614      	mov	r4, r2
  4051f2:	4603      	mov	r3, r0
  4051f4:	e7c2      	b.n	40517c <memset+0x20>
  4051f6:	bf00      	nop

004051f8 <setbuf>:
  4051f8:	2900      	cmp	r1, #0
  4051fa:	bf0c      	ite	eq
  4051fc:	2202      	moveq	r2, #2
  4051fe:	2200      	movne	r2, #0
  405200:	f44f 6380 	mov.w	r3, #1024	; 0x400
  405204:	f000 b800 	b.w	405208 <setvbuf>

00405208 <setvbuf>:
  405208:	e92d 43f0 	stmdb	sp!, {r4, r5, r6, r7, r8, r9, lr}
  40520c:	4c51      	ldr	r4, [pc, #324]	; (405354 <setvbuf+0x14c>)
  40520e:	6825      	ldr	r5, [r4, #0]
  405210:	b083      	sub	sp, #12
  405212:	4604      	mov	r4, r0
  405214:	460f      	mov	r7, r1
  405216:	4690      	mov	r8, r2
  405218:	461e      	mov	r6, r3
  40521a:	b115      	cbz	r5, 405222 <setvbuf+0x1a>
  40521c:	6bab      	ldr	r3, [r5, #56]	; 0x38
  40521e:	2b00      	cmp	r3, #0
  405220:	d079      	beq.n	405316 <setvbuf+0x10e>
  405222:	f1b8 0f02 	cmp.w	r8, #2
  405226:	d004      	beq.n	405232 <setvbuf+0x2a>
  405228:	f1b8 0f01 	cmp.w	r8, #1
  40522c:	d87f      	bhi.n	40532e <setvbuf+0x126>
  40522e:	2e00      	cmp	r6, #0
  405230:	db7d      	blt.n	40532e <setvbuf+0x126>
  405232:	4621      	mov	r1, r4
  405234:	4628      	mov	r0, r5
  405236:	f003 fcc7 	bl	408bc8 <_fflush_r>
  40523a:	6b21      	ldr	r1, [r4, #48]	; 0x30
  40523c:	b141      	cbz	r1, 405250 <setvbuf+0x48>
  40523e:	f104 0340 	add.w	r3, r4, #64	; 0x40
  405242:	4299      	cmp	r1, r3
  405244:	d002      	beq.n	40524c <setvbuf+0x44>
  405246:	4628      	mov	r0, r5
  405248:	f003 fe1c 	bl	408e84 <_free_r>
  40524c:	2300      	movs	r3, #0
  40524e:	6323      	str	r3, [r4, #48]	; 0x30
  405250:	f9b4 300c 	ldrsh.w	r3, [r4, #12]
  405254:	2200      	movs	r2, #0
  405256:	61a2      	str	r2, [r4, #24]
  405258:	6062      	str	r2, [r4, #4]
  40525a:	061a      	lsls	r2, r3, #24
  40525c:	d454      	bmi.n	405308 <setvbuf+0x100>
  40525e:	f423 634a 	bic.w	r3, r3, #3232	; 0xca0
  405262:	f023 0303 	bic.w	r3, r3, #3
  405266:	f1b8 0f02 	cmp.w	r8, #2
  40526a:	81a3      	strh	r3, [r4, #12]
  40526c:	d039      	beq.n	4052e2 <setvbuf+0xda>
  40526e:	ab01      	add	r3, sp, #4
  405270:	466a      	mov	r2, sp
  405272:	4621      	mov	r1, r4
  405274:	4628      	mov	r0, r5
  405276:	f004 f8a7 	bl	4093c8 <__swhatbuf_r>
  40527a:	89a3      	ldrh	r3, [r4, #12]
  40527c:	4318      	orrs	r0, r3
  40527e:	81a0      	strh	r0, [r4, #12]
  405280:	b326      	cbz	r6, 4052cc <setvbuf+0xc4>
  405282:	b327      	cbz	r7, 4052ce <setvbuf+0xc6>
  405284:	6bab      	ldr	r3, [r5, #56]	; 0x38
  405286:	2b00      	cmp	r3, #0
  405288:	d04d      	beq.n	405326 <setvbuf+0x11e>
  40528a:	9b00      	ldr	r3, [sp, #0]
  40528c:	f9b4 000c 	ldrsh.w	r0, [r4, #12]
  405290:	6027      	str	r7, [r4, #0]
  405292:	429e      	cmp	r6, r3
  405294:	bf1c      	itt	ne
  405296:	f440 6000 	orrne.w	r0, r0, #2048	; 0x800
  40529a:	81a0      	strhne	r0, [r4, #12]
  40529c:	f1b8 0f01 	cmp.w	r8, #1
  4052a0:	bf08      	it	eq
  4052a2:	f040 0001 	orreq.w	r0, r0, #1
  4052a6:	b283      	uxth	r3, r0
  4052a8:	bf08      	it	eq
  4052aa:	81a0      	strheq	r0, [r4, #12]
  4052ac:	f003 0008 	and.w	r0, r3, #8
  4052b0:	b280      	uxth	r0, r0
  4052b2:	6127      	str	r7, [r4, #16]
  4052b4:	6166      	str	r6, [r4, #20]
  4052b6:	b318      	cbz	r0, 405300 <setvbuf+0xf8>
  4052b8:	f013 0001 	ands.w	r0, r3, #1
  4052bc:	d02f      	beq.n	40531e <setvbuf+0x116>
  4052be:	2000      	movs	r0, #0
  4052c0:	4276      	negs	r6, r6
  4052c2:	61a6      	str	r6, [r4, #24]
  4052c4:	60a0      	str	r0, [r4, #8]
  4052c6:	b003      	add	sp, #12
  4052c8:	e8bd 83f0 	ldmia.w	sp!, {r4, r5, r6, r7, r8, r9, pc}
  4052cc:	9e00      	ldr	r6, [sp, #0]
  4052ce:	4630      	mov	r0, r6
  4052d0:	f004 f8ee 	bl	4094b0 <malloc>
  4052d4:	4607      	mov	r7, r0
  4052d6:	b368      	cbz	r0, 405334 <setvbuf+0x12c>
  4052d8:	89a3      	ldrh	r3, [r4, #12]
  4052da:	f043 0380 	orr.w	r3, r3, #128	; 0x80
  4052de:	81a3      	strh	r3, [r4, #12]
  4052e0:	e7d0      	b.n	405284 <setvbuf+0x7c>
  4052e2:	2000      	movs	r0, #0
  4052e4:	f104 0243 	add.w	r2, r4, #67	; 0x43
  4052e8:	f043 0302 	orr.w	r3, r3, #2
  4052ec:	2500      	movs	r5, #0
  4052ee:	2101      	movs	r1, #1
  4052f0:	81a3      	strh	r3, [r4, #12]
  4052f2:	60a5      	str	r5, [r4, #8]
  4052f4:	6022      	str	r2, [r4, #0]
  4052f6:	6122      	str	r2, [r4, #16]
  4052f8:	6161      	str	r1, [r4, #20]
  4052fa:	b003      	add	sp, #12
  4052fc:	e8bd 83f0 	ldmia.w	sp!, {r4, r5, r6, r7, r8, r9, pc}
  405300:	60a0      	str	r0, [r4, #8]
  405302:	b003      	add	sp, #12
  405304:	e8bd 83f0 	ldmia.w	sp!, {r4, r5, r6, r7, r8, r9, pc}
  405308:	6921      	ldr	r1, [r4, #16]
  40530a:	4628      	mov	r0, r5
  40530c:	f003 fdba 	bl	408e84 <_free_r>
  405310:	f9b4 300c 	ldrsh.w	r3, [r4, #12]
  405314:	e7a3      	b.n	40525e <setvbuf+0x56>
  405316:	4628      	mov	r0, r5
  405318:	f003 fcea 	bl	408cf0 <__sinit>
  40531c:	e781      	b.n	405222 <setvbuf+0x1a>
  40531e:	60a6      	str	r6, [r4, #8]
  405320:	b003      	add	sp, #12
  405322:	e8bd 83f0 	ldmia.w	sp!, {r4, r5, r6, r7, r8, r9, pc}
  405326:	4628      	mov	r0, r5
  405328:	f003 fce2 	bl	408cf0 <__sinit>
  40532c:	e7ad      	b.n	40528a <setvbuf+0x82>
  40532e:	f04f 30ff 	mov.w	r0, #4294967295
  405332:	e7e2      	b.n	4052fa <setvbuf+0xf2>
  405334:	f8dd 9000 	ldr.w	r9, [sp]
  405338:	45b1      	cmp	r9, r6
  40533a:	d006      	beq.n	40534a <setvbuf+0x142>
  40533c:	4648      	mov	r0, r9
  40533e:	f004 f8b7 	bl	4094b0 <malloc>
  405342:	4607      	mov	r7, r0
  405344:	b108      	cbz	r0, 40534a <setvbuf+0x142>
  405346:	464e      	mov	r6, r9
  405348:	e7c6      	b.n	4052d8 <setvbuf+0xd0>
  40534a:	f9b4 300c 	ldrsh.w	r3, [r4, #12]
  40534e:	f04f 30ff 	mov.w	r0, #4294967295
  405352:	e7c7      	b.n	4052e4 <setvbuf+0xdc>
  405354:	20400470 	.word	0x20400470

00405358 <sprintf>:
  405358:	b40e      	push	{r1, r2, r3}
  40535a:	b5f0      	push	{r4, r5, r6, r7, lr}
  40535c:	b09c      	sub	sp, #112	; 0x70
  40535e:	ab21      	add	r3, sp, #132	; 0x84
  405360:	490f      	ldr	r1, [pc, #60]	; (4053a0 <sprintf+0x48>)
  405362:	f853 2b04 	ldr.w	r2, [r3], #4
  405366:	9301      	str	r3, [sp, #4]
  405368:	4605      	mov	r5, r0
  40536a:	f06f 4400 	mvn.w	r4, #2147483648	; 0x80000000
  40536e:	6808      	ldr	r0, [r1, #0]
  405370:	9502      	str	r5, [sp, #8]
  405372:	f44f 7702 	mov.w	r7, #520	; 0x208
  405376:	f64f 76ff 	movw	r6, #65535	; 0xffff
  40537a:	a902      	add	r1, sp, #8
  40537c:	9506      	str	r5, [sp, #24]
  40537e:	f8ad 7014 	strh.w	r7, [sp, #20]
  405382:	9404      	str	r4, [sp, #16]
  405384:	9407      	str	r4, [sp, #28]
  405386:	f8ad 6016 	strh.w	r6, [sp, #22]
  40538a:	f000 f887 	bl	40549c <_svfprintf_r>
  40538e:	9b02      	ldr	r3, [sp, #8]
  405390:	2200      	movs	r2, #0
  405392:	701a      	strb	r2, [r3, #0]
  405394:	b01c      	add	sp, #112	; 0x70
  405396:	e8bd 40f0 	ldmia.w	sp!, {r4, r5, r6, r7, lr}
  40539a:	b003      	add	sp, #12
  40539c:	4770      	bx	lr
  40539e:	bf00      	nop
  4053a0:	20400470 	.word	0x20400470
	...

004053c0 <strlen>:
  4053c0:	f890 f000 	pld	[r0]
  4053c4:	e96d 4502 	strd	r4, r5, [sp, #-8]!
  4053c8:	f020 0107 	bic.w	r1, r0, #7
  4053cc:	f06f 0c00 	mvn.w	ip, #0
  4053d0:	f010 0407 	ands.w	r4, r0, #7
  4053d4:	f891 f020 	pld	[r1, #32]
  4053d8:	f040 8049 	bne.w	40546e <strlen+0xae>
  4053dc:	f04f 0400 	mov.w	r4, #0
  4053e0:	f06f 0007 	mvn.w	r0, #7
  4053e4:	e9d1 2300 	ldrd	r2, r3, [r1]
  4053e8:	f891 f040 	pld	[r1, #64]	; 0x40
  4053ec:	f100 0008 	add.w	r0, r0, #8
  4053f0:	fa82 f24c 	uadd8	r2, r2, ip
  4053f4:	faa4 f28c 	sel	r2, r4, ip
  4053f8:	fa83 f34c 	uadd8	r3, r3, ip
  4053fc:	faa2 f38c 	sel	r3, r2, ip
  405400:	bb4b      	cbnz	r3, 405456 <strlen+0x96>
  405402:	e9d1 2302 	ldrd	r2, r3, [r1, #8]
  405406:	fa82 f24c 	uadd8	r2, r2, ip
  40540a:	f100 0008 	add.w	r0, r0, #8
  40540e:	faa4 f28c 	sel	r2, r4, ip
  405412:	fa83 f34c 	uadd8	r3, r3, ip
  405416:	faa2 f38c 	sel	r3, r2, ip
  40541a:	b9e3      	cbnz	r3, 405456 <strlen+0x96>
  40541c:	e9d1 2304 	ldrd	r2, r3, [r1, #16]
  405420:	fa82 f24c 	uadd8	r2, r2, ip
  405424:	f100 0008 	add.w	r0, r0, #8
  405428:	faa4 f28c 	sel	r2, r4, ip
  40542c:	fa83 f34c 	uadd8	r3, r3, ip
  405430:	faa2 f38c 	sel	r3, r2, ip
  405434:	b97b      	cbnz	r3, 405456 <strlen+0x96>
  405436:	e9d1 2306 	ldrd	r2, r3, [r1, #24]
  40543a:	f101 0120 	add.w	r1, r1, #32
  40543e:	fa82 f24c 	uadd8	r2, r2, ip
  405442:	f100 0008 	add.w	r0, r0, #8
  405446:	faa4 f28c 	sel	r2, r4, ip
  40544a:	fa83 f34c 	uadd8	r3, r3, ip
  40544e:	faa2 f38c 	sel	r3, r2, ip
  405452:	2b00      	cmp	r3, #0
  405454:	d0c6      	beq.n	4053e4 <strlen+0x24>
  405456:	2a00      	cmp	r2, #0
  405458:	bf04      	itt	eq
  40545a:	3004      	addeq	r0, #4
  40545c:	461a      	moveq	r2, r3
  40545e:	ba12      	rev	r2, r2
  405460:	fab2 f282 	clz	r2, r2
  405464:	e8fd 4502 	ldrd	r4, r5, [sp], #8
  405468:	eb00 00d2 	add.w	r0, r0, r2, lsr #3
  40546c:	4770      	bx	lr
  40546e:	e9d1 2300 	ldrd	r2, r3, [r1]
  405472:	f004 0503 	and.w	r5, r4, #3
  405476:	f1c4 0000 	rsb	r0, r4, #0
  40547a:	ea4f 05c5 	mov.w	r5, r5, lsl #3
  40547e:	f014 0f04 	tst.w	r4, #4
  405482:	f891 f040 	pld	[r1, #64]	; 0x40
  405486:	fa0c f505 	lsl.w	r5, ip, r5
  40548a:	ea62 0205 	orn	r2, r2, r5
  40548e:	bf1c      	itt	ne
  405490:	ea63 0305 	ornne	r3, r3, r5
  405494:	4662      	movne	r2, ip
  405496:	f04f 0400 	mov.w	r4, #0
  40549a:	e7a9      	b.n	4053f0 <strlen+0x30>

0040549c <_svfprintf_r>:
  40549c:	e92d 4ff0 	stmdb	sp!, {r4, r5, r6, r7, r8, r9, sl, fp, lr}
  4054a0:	b0c1      	sub	sp, #260	; 0x104
  4054a2:	460c      	mov	r4, r1
  4054a4:	9109      	str	r1, [sp, #36]	; 0x24
  4054a6:	4615      	mov	r5, r2
  4054a8:	930e      	str	r3, [sp, #56]	; 0x38
  4054aa:	900a      	str	r0, [sp, #40]	; 0x28
  4054ac:	f003 ff88 	bl	4093c0 <_localeconv_r>
  4054b0:	6803      	ldr	r3, [r0, #0]
  4054b2:	9317      	str	r3, [sp, #92]	; 0x5c
  4054b4:	4618      	mov	r0, r3
  4054b6:	f7ff ff83 	bl	4053c0 <strlen>
  4054ba:	89a3      	ldrh	r3, [r4, #12]
  4054bc:	9016      	str	r0, [sp, #88]	; 0x58
  4054be:	061e      	lsls	r6, r3, #24
  4054c0:	d503      	bpl.n	4054ca <_svfprintf_r+0x2e>
  4054c2:	6923      	ldr	r3, [r4, #16]
  4054c4:	2b00      	cmp	r3, #0
  4054c6:	f001 8119 	beq.w	4066fc <_svfprintf_r+0x1260>
  4054ca:	2300      	movs	r3, #0
  4054cc:	461a      	mov	r2, r3
  4054ce:	9312      	str	r3, [sp, #72]	; 0x48
  4054d0:	9325      	str	r3, [sp, #148]	; 0x94
  4054d2:	9324      	str	r3, [sp, #144]	; 0x90
  4054d4:	9319      	str	r3, [sp, #100]	; 0x64
  4054d6:	930b      	str	r3, [sp, #44]	; 0x2c
  4054d8:	f8df a464 	ldr.w	sl, [pc, #1124]	; 405940 <_svfprintf_r+0x4a4>
  4054dc:	9214      	str	r2, [sp, #80]	; 0x50
  4054de:	ab30      	add	r3, sp, #192	; 0xc0
  4054e0:	9323      	str	r3, [sp, #140]	; 0x8c
  4054e2:	4699      	mov	r9, r3
  4054e4:	9215      	str	r2, [sp, #84]	; 0x54
  4054e6:	46a8      	mov	r8, r5
  4054e8:	f898 3000 	ldrb.w	r3, [r8]
  4054ec:	4644      	mov	r4, r8
  4054ee:	b1eb      	cbz	r3, 40552c <_svfprintf_r+0x90>
  4054f0:	2b25      	cmp	r3, #37	; 0x25
  4054f2:	d102      	bne.n	4054fa <_svfprintf_r+0x5e>
  4054f4:	e01a      	b.n	40552c <_svfprintf_r+0x90>
  4054f6:	2b25      	cmp	r3, #37	; 0x25
  4054f8:	d003      	beq.n	405502 <_svfprintf_r+0x66>
  4054fa:	f814 3f01 	ldrb.w	r3, [r4, #1]!
  4054fe:	2b00      	cmp	r3, #0
  405500:	d1f9      	bne.n	4054f6 <_svfprintf_r+0x5a>
  405502:	ebc8 0504 	rsb	r5, r8, r4
  405506:	b18d      	cbz	r5, 40552c <_svfprintf_r+0x90>
  405508:	9b24      	ldr	r3, [sp, #144]	; 0x90
  40550a:	9a25      	ldr	r2, [sp, #148]	; 0x94
  40550c:	f8c9 8000 	str.w	r8, [r9]
  405510:	3301      	adds	r3, #1
  405512:	442a      	add	r2, r5
  405514:	2b07      	cmp	r3, #7
  405516:	f8c9 5004 	str.w	r5, [r9, #4]
  40551a:	9225      	str	r2, [sp, #148]	; 0x94
  40551c:	9324      	str	r3, [sp, #144]	; 0x90
  40551e:	f300 80a6 	bgt.w	40566e <_svfprintf_r+0x1d2>
  405522:	f109 0908 	add.w	r9, r9, #8
  405526:	9b0b      	ldr	r3, [sp, #44]	; 0x2c
  405528:	442b      	add	r3, r5
  40552a:	930b      	str	r3, [sp, #44]	; 0x2c
  40552c:	7823      	ldrb	r3, [r4, #0]
  40552e:	2b00      	cmp	r3, #0
  405530:	f000 80a6 	beq.w	405680 <_svfprintf_r+0x1e4>
  405534:	2300      	movs	r3, #0
  405536:	461a      	mov	r2, r3
  405538:	f88d 306f 	strb.w	r3, [sp, #111]	; 0x6f
  40553c:	4619      	mov	r1, r3
  40553e:	930c      	str	r3, [sp, #48]	; 0x30
  405540:	9307      	str	r3, [sp, #28]
  405542:	f04f 3bff 	mov.w	fp, #4294967295
  405546:	7863      	ldrb	r3, [r4, #1]
  405548:	f104 0801 	add.w	r8, r4, #1
  40554c:	465d      	mov	r5, fp
  40554e:	f108 0801 	add.w	r8, r8, #1
  405552:	f1a3 0020 	sub.w	r0, r3, #32
  405556:	2858      	cmp	r0, #88	; 0x58
  405558:	f200 8425 	bhi.w	405da6 <_svfprintf_r+0x90a>
  40555c:	e8df f010 	tbh	[pc, r0, lsl #1]
  405560:	04230388 	.word	0x04230388
  405564:	03900423 	.word	0x03900423
  405568:	04230423 	.word	0x04230423
  40556c:	04230423 	.word	0x04230423
  405570:	04230423 	.word	0x04230423
  405574:	03a50397 	.word	0x03a50397
  405578:	005d0423 	.word	0x005d0423
  40557c:	042300e2 	.word	0x042300e2
  405580:	010500fe 	.word	0x010500fe
  405584:	01050105 	.word	0x01050105
  405588:	01050105 	.word	0x01050105
  40558c:	01050105 	.word	0x01050105
  405590:	01050105 	.word	0x01050105
  405594:	04230423 	.word	0x04230423
  405598:	04230423 	.word	0x04230423
  40559c:	04230423 	.word	0x04230423
  4055a0:	04230423 	.word	0x04230423
  4055a4:	04230423 	.word	0x04230423
  4055a8:	02810115 	.word	0x02810115
  4055ac:	02810423 	.word	0x02810423
  4055b0:	04230423 	.word	0x04230423
  4055b4:	04230423 	.word	0x04230423
  4055b8:	042302c6 	.word	0x042302c6
  4055bc:	02cd0423 	.word	0x02cd0423
  4055c0:	04230423 	.word	0x04230423
  4055c4:	04230423 	.word	0x04230423
  4055c8:	02f70423 	.word	0x02f70423
  4055cc:	04230423 	.word	0x04230423
  4055d0:	04230325 	.word	0x04230325
  4055d4:	04230423 	.word	0x04230423
  4055d8:	04230423 	.word	0x04230423
  4055dc:	04230423 	.word	0x04230423
  4055e0:	04230423 	.word	0x04230423
  4055e4:	03660423 	.word	0x03660423
  4055e8:	02810379 	.word	0x02810379
  4055ec:	02810281 	.word	0x02810281
  4055f0:	03790381 	.word	0x03790381
  4055f4:	04230423 	.word	0x04230423
  4055f8:	042303d1 	.word	0x042303d1
  4055fc:	00a303db 	.word	0x00a303db
  405600:	03ee0064 	.word	0x03ee0064
  405604:	03f50423 	.word	0x03f50423
  405608:	03aa0423 	.word	0x03aa0423
  40560c:	04230423 	.word	0x04230423
  405610:	03bc      	.short	0x03bc
  405612:	980c      	ldr	r0, [sp, #48]	; 0x30
  405614:	930e      	str	r3, [sp, #56]	; 0x38
  405616:	4240      	negs	r0, r0
  405618:	900c      	str	r0, [sp, #48]	; 0x30
  40561a:	9b07      	ldr	r3, [sp, #28]
  40561c:	f043 0304 	orr.w	r3, r3, #4
  405620:	9307      	str	r3, [sp, #28]
  405622:	f898 3000 	ldrb.w	r3, [r8]
  405626:	e792      	b.n	40554e <_svfprintf_r+0xb2>
  405628:	980e      	ldr	r0, [sp, #56]	; 0x38
  40562a:	46ab      	mov	fp, r5
  40562c:	2100      	movs	r1, #0
  40562e:	6804      	ldr	r4, [r0, #0]
  405630:	f88d 106f 	strb.w	r1, [sp, #111]	; 0x6f
  405634:	1d07      	adds	r7, r0, #4
  405636:	9807      	ldr	r0, [sp, #28]
  405638:	2330      	movs	r3, #48	; 0x30
  40563a:	2278      	movs	r2, #120	; 0x78
  40563c:	458b      	cmp	fp, r1
  40563e:	f88d 3070 	strb.w	r3, [sp, #112]	; 0x70
  405642:	f04f 0500 	mov.w	r5, #0
  405646:	f88d 2071 	strb.w	r2, [sp, #113]	; 0x71
  40564a:	f040 0302 	orr.w	r3, r0, #2
  40564e:	f2c0 83c7 	blt.w	405de0 <_svfprintf_r+0x944>
  405652:	f020 0380 	bic.w	r3, r0, #128	; 0x80
  405656:	f043 0302 	orr.w	r3, r3, #2
  40565a:	9307      	str	r3, [sp, #28]
  40565c:	ea54 0305 	orrs.w	r3, r4, r5
  405660:	970e      	str	r7, [sp, #56]	; 0x38
  405662:	f000 8393 	beq.w	405d8c <_svfprintf_r+0x8f0>
  405666:	460f      	mov	r7, r1
  405668:	9211      	str	r2, [sp, #68]	; 0x44
  40566a:	48b3      	ldr	r0, [pc, #716]	; (405938 <_svfprintf_r+0x49c>)
  40566c:	e2ce      	b.n	405c0c <_svfprintf_r+0x770>
  40566e:	aa23      	add	r2, sp, #140	; 0x8c
  405670:	9909      	ldr	r1, [sp, #36]	; 0x24
  405672:	980a      	ldr	r0, [sp, #40]	; 0x28
  405674:	f005 f882 	bl	40a77c <__ssprint_r>
  405678:	b948      	cbnz	r0, 40568e <_svfprintf_r+0x1f2>
  40567a:	f10d 09c0 	add.w	r9, sp, #192	; 0xc0
  40567e:	e752      	b.n	405526 <_svfprintf_r+0x8a>
  405680:	9b25      	ldr	r3, [sp, #148]	; 0x94
  405682:	b123      	cbz	r3, 40568e <_svfprintf_r+0x1f2>
  405684:	980a      	ldr	r0, [sp, #40]	; 0x28
  405686:	9909      	ldr	r1, [sp, #36]	; 0x24
  405688:	aa23      	add	r2, sp, #140	; 0x8c
  40568a:	f005 f877 	bl	40a77c <__ssprint_r>
  40568e:	9b09      	ldr	r3, [sp, #36]	; 0x24
  405690:	899b      	ldrh	r3, [r3, #12]
  405692:	f013 0f40 	tst.w	r3, #64	; 0x40
  405696:	9b0b      	ldr	r3, [sp, #44]	; 0x2c
  405698:	bf18      	it	ne
  40569a:	f04f 33ff 	movne.w	r3, #4294967295
  40569e:	4618      	mov	r0, r3
  4056a0:	b041      	add	sp, #260	; 0x104
  4056a2:	e8bd 8ff0 	ldmia.w	sp!, {r4, r5, r6, r7, r8, r9, sl, fp, pc}
  4056a6:	9311      	str	r3, [sp, #68]	; 0x44
  4056a8:	46ab      	mov	fp, r5
  4056aa:	2a00      	cmp	r2, #0
  4056ac:	f041 8223 	bne.w	406af6 <_svfprintf_r+0x165a>
  4056b0:	9a07      	ldr	r2, [sp, #28]
  4056b2:	f012 0320 	ands.w	r3, r2, #32
  4056b6:	f000 822e 	beq.w	405b16 <_svfprintf_r+0x67a>
  4056ba:	9f0e      	ldr	r7, [sp, #56]	; 0x38
  4056bc:	3707      	adds	r7, #7
  4056be:	f027 0307 	bic.w	r3, r7, #7
  4056c2:	2700      	movs	r7, #0
  4056c4:	f103 0108 	add.w	r1, r3, #8
  4056c8:	45bb      	cmp	fp, r7
  4056ca:	910e      	str	r1, [sp, #56]	; 0x38
  4056cc:	e9d3 4500 	ldrd	r4, r5, [r3]
  4056d0:	f88d 706f 	strb.w	r7, [sp, #111]	; 0x6f
  4056d4:	f2c0 8752 	blt.w	40657c <_svfprintf_r+0x10e0>
  4056d8:	f022 0380 	bic.w	r3, r2, #128	; 0x80
  4056dc:	9307      	str	r3, [sp, #28]
  4056de:	ea54 0305 	orrs.w	r3, r4, r5
  4056e2:	f000 8375 	beq.w	405dd0 <_svfprintf_r+0x934>
  4056e6:	ae30      	add	r6, sp, #192	; 0xc0
  4056e8:	08e2      	lsrs	r2, r4, #3
  4056ea:	ea42 7245 	orr.w	r2, r2, r5, lsl #29
  4056ee:	08e9      	lsrs	r1, r5, #3
  4056f0:	f004 0307 	and.w	r3, r4, #7
  4056f4:	460d      	mov	r5, r1
  4056f6:	4614      	mov	r4, r2
  4056f8:	3330      	adds	r3, #48	; 0x30
  4056fa:	ea54 0205 	orrs.w	r2, r4, r5
  4056fe:	f806 3d01 	strb.w	r3, [r6, #-1]!
  405702:	d1f1      	bne.n	4056e8 <_svfprintf_r+0x24c>
  405704:	9a07      	ldr	r2, [sp, #28]
  405706:	07d1      	lsls	r1, r2, #31
  405708:	f140 8084 	bpl.w	405814 <_svfprintf_r+0x378>
  40570c:	2b30      	cmp	r3, #48	; 0x30
  40570e:	f000 8081 	beq.w	405814 <_svfprintf_r+0x378>
  405712:	2230      	movs	r2, #48	; 0x30
  405714:	1e73      	subs	r3, r6, #1
  405716:	f806 2c01 	strb.w	r2, [r6, #-1]
  40571a:	aa30      	add	r2, sp, #192	; 0xc0
  40571c:	1ad2      	subs	r2, r2, r3
  40571e:	920d      	str	r2, [sp, #52]	; 0x34
  405720:	461e      	mov	r6, r3
  405722:	e07a      	b.n	40581a <_svfprintf_r+0x37e>
  405724:	f898 3000 	ldrb.w	r3, [r8]
  405728:	2b2a      	cmp	r3, #42	; 0x2a
  40572a:	f108 0401 	add.w	r4, r8, #1
  40572e:	f001 81b1 	beq.w	406a94 <_svfprintf_r+0x15f8>
  405732:	f1a3 0030 	sub.w	r0, r3, #48	; 0x30
  405736:	2809      	cmp	r0, #9
  405738:	bf98      	it	ls
  40573a:	2500      	movls	r5, #0
  40573c:	f201 8164 	bhi.w	406a08 <_svfprintf_r+0x156c>
  405740:	f814 3b01 	ldrb.w	r3, [r4], #1
  405744:	eb05 0585 	add.w	r5, r5, r5, lsl #2
  405748:	eb00 0545 	add.w	r5, r0, r5, lsl #1
  40574c:	f1a3 0030 	sub.w	r0, r3, #48	; 0x30
  405750:	2809      	cmp	r0, #9
  405752:	d9f5      	bls.n	405740 <_svfprintf_r+0x2a4>
  405754:	ea45 75e5 	orr.w	r5, r5, r5, asr #31
  405758:	46a0      	mov	r8, r4
  40575a:	e6fa      	b.n	405552 <_svfprintf_r+0xb6>
  40575c:	9b07      	ldr	r3, [sp, #28]
  40575e:	f043 0380 	orr.w	r3, r3, #128	; 0x80
  405762:	9307      	str	r3, [sp, #28]
  405764:	f898 3000 	ldrb.w	r3, [r8]
  405768:	e6f1      	b.n	40554e <_svfprintf_r+0xb2>
  40576a:	f1a3 0030 	sub.w	r0, r3, #48	; 0x30
  40576e:	2300      	movs	r3, #0
  405770:	461c      	mov	r4, r3
  405772:	f818 3b01 	ldrb.w	r3, [r8], #1
  405776:	eb04 0484 	add.w	r4, r4, r4, lsl #2
  40577a:	eb00 0444 	add.w	r4, r0, r4, lsl #1
  40577e:	f1a3 0030 	sub.w	r0, r3, #48	; 0x30
  405782:	2809      	cmp	r0, #9
  405784:	d9f5      	bls.n	405772 <_svfprintf_r+0x2d6>
  405786:	940c      	str	r4, [sp, #48]	; 0x30
  405788:	e6e3      	b.n	405552 <_svfprintf_r+0xb6>
  40578a:	9311      	str	r3, [sp, #68]	; 0x44
  40578c:	46ab      	mov	fp, r5
  40578e:	2a00      	cmp	r2, #0
  405790:	f041 81c9 	bne.w	406b26 <_svfprintf_r+0x168a>
  405794:	9b07      	ldr	r3, [sp, #28]
  405796:	f043 0310 	orr.w	r3, r3, #16
  40579a:	9307      	str	r3, [sp, #28]
  40579c:	9b07      	ldr	r3, [sp, #28]
  40579e:	0698      	lsls	r0, r3, #26
  4057a0:	f140 8530 	bpl.w	406204 <_svfprintf_r+0xd68>
  4057a4:	9f0e      	ldr	r7, [sp, #56]	; 0x38
  4057a6:	3707      	adds	r7, #7
  4057a8:	f027 0707 	bic.w	r7, r7, #7
  4057ac:	e9d7 2300 	ldrd	r2, r3, [r7]
  4057b0:	f107 0108 	add.w	r1, r7, #8
  4057b4:	910e      	str	r1, [sp, #56]	; 0x38
  4057b6:	4614      	mov	r4, r2
  4057b8:	461d      	mov	r5, r3
  4057ba:	2a00      	cmp	r2, #0
  4057bc:	f173 0300 	sbcs.w	r3, r3, #0
  4057c0:	f2c0 855b 	blt.w	40627a <_svfprintf_r+0xdde>
  4057c4:	f1bb 0f00 	cmp.w	fp, #0
  4057c8:	f89d 706f 	ldrb.w	r7, [sp, #111]	; 0x6f
  4057cc:	f2c0 8538 	blt.w	406240 <_svfprintf_r+0xda4>
  4057d0:	9b07      	ldr	r3, [sp, #28]
  4057d2:	f023 0380 	bic.w	r3, r3, #128	; 0x80
  4057d6:	9307      	str	r3, [sp, #28]
  4057d8:	ea54 0305 	orrs.w	r3, r4, r5
  4057dc:	f000 81db 	beq.w	405b96 <_svfprintf_r+0x6fa>
  4057e0:	2d00      	cmp	r5, #0
  4057e2:	bf08      	it	eq
  4057e4:	2c0a      	cmpeq	r4, #10
  4057e6:	f0c0 81db 	bcc.w	405ba0 <_svfprintf_r+0x704>
  4057ea:	ae30      	add	r6, sp, #192	; 0xc0
  4057ec:	4620      	mov	r0, r4
  4057ee:	4629      	mov	r1, r5
  4057f0:	220a      	movs	r2, #10
  4057f2:	2300      	movs	r3, #0
  4057f4:	f005 fe9e 	bl	40b534 <__aeabi_uldivmod>
  4057f8:	3230      	adds	r2, #48	; 0x30
  4057fa:	f806 2d01 	strb.w	r2, [r6, #-1]!
  4057fe:	4620      	mov	r0, r4
  405800:	4629      	mov	r1, r5
  405802:	2300      	movs	r3, #0
  405804:	220a      	movs	r2, #10
  405806:	f005 fe95 	bl	40b534 <__aeabi_uldivmod>
  40580a:	4604      	mov	r4, r0
  40580c:	460d      	mov	r5, r1
  40580e:	ea54 0305 	orrs.w	r3, r4, r5
  405812:	d1eb      	bne.n	4057ec <_svfprintf_r+0x350>
  405814:	ab30      	add	r3, sp, #192	; 0xc0
  405816:	1b9b      	subs	r3, r3, r6
  405818:	930d      	str	r3, [sp, #52]	; 0x34
  40581a:	9b0d      	ldr	r3, [sp, #52]	; 0x34
  40581c:	455b      	cmp	r3, fp
  40581e:	bfb8      	it	lt
  405820:	465b      	movlt	r3, fp
  405822:	9308      	str	r3, [sp, #32]
  405824:	2300      	movs	r3, #0
  405826:	9313      	str	r3, [sp, #76]	; 0x4c
  405828:	b117      	cbz	r7, 405830 <_svfprintf_r+0x394>
  40582a:	9b08      	ldr	r3, [sp, #32]
  40582c:	3301      	adds	r3, #1
  40582e:	9308      	str	r3, [sp, #32]
  405830:	9b07      	ldr	r3, [sp, #28]
  405832:	f013 0302 	ands.w	r3, r3, #2
  405836:	930f      	str	r3, [sp, #60]	; 0x3c
  405838:	d002      	beq.n	405840 <_svfprintf_r+0x3a4>
  40583a:	9b08      	ldr	r3, [sp, #32]
  40583c:	3302      	adds	r3, #2
  40583e:	9308      	str	r3, [sp, #32]
  405840:	9b07      	ldr	r3, [sp, #28]
  405842:	f013 0384 	ands.w	r3, r3, #132	; 0x84
  405846:	9310      	str	r3, [sp, #64]	; 0x40
  405848:	f040 82d7 	bne.w	405dfa <_svfprintf_r+0x95e>
  40584c:	9b0c      	ldr	r3, [sp, #48]	; 0x30
  40584e:	9a08      	ldr	r2, [sp, #32]
  405850:	1a9d      	subs	r5, r3, r2
  405852:	2d00      	cmp	r5, #0
  405854:	f340 82d1 	ble.w	405dfa <_svfprintf_r+0x95e>
  405858:	2d10      	cmp	r5, #16
  40585a:	9925      	ldr	r1, [sp, #148]	; 0x94
  40585c:	9a24      	ldr	r2, [sp, #144]	; 0x90
  40585e:	4f37      	ldr	r7, [pc, #220]	; (40593c <_svfprintf_r+0x4a0>)
  405860:	dd27      	ble.n	4058b2 <_svfprintf_r+0x416>
  405862:	9618      	str	r6, [sp, #96]	; 0x60
  405864:	4648      	mov	r0, r9
  405866:	2410      	movs	r4, #16
  405868:	46b9      	mov	r9, r7
  40586a:	9e09      	ldr	r6, [sp, #36]	; 0x24
  40586c:	462f      	mov	r7, r5
  40586e:	9d0a      	ldr	r5, [sp, #40]	; 0x28
  405870:	e004      	b.n	40587c <_svfprintf_r+0x3e0>
  405872:	3f10      	subs	r7, #16
  405874:	2f10      	cmp	r7, #16
  405876:	f100 0008 	add.w	r0, r0, #8
  40587a:	dd16      	ble.n	4058aa <_svfprintf_r+0x40e>
  40587c:	3201      	adds	r2, #1
  40587e:	4b2f      	ldr	r3, [pc, #188]	; (40593c <_svfprintf_r+0x4a0>)
  405880:	9224      	str	r2, [sp, #144]	; 0x90
  405882:	3110      	adds	r1, #16
  405884:	2a07      	cmp	r2, #7
  405886:	9125      	str	r1, [sp, #148]	; 0x94
  405888:	e880 0018 	stmia.w	r0, {r3, r4}
  40588c:	ddf1      	ble.n	405872 <_svfprintf_r+0x3d6>
  40588e:	aa23      	add	r2, sp, #140	; 0x8c
  405890:	4631      	mov	r1, r6
  405892:	4628      	mov	r0, r5
  405894:	f004 ff72 	bl	40a77c <__ssprint_r>
  405898:	2800      	cmp	r0, #0
  40589a:	f47f aef8 	bne.w	40568e <_svfprintf_r+0x1f2>
  40589e:	3f10      	subs	r7, #16
  4058a0:	2f10      	cmp	r7, #16
  4058a2:	9925      	ldr	r1, [sp, #148]	; 0x94
  4058a4:	9a24      	ldr	r2, [sp, #144]	; 0x90
  4058a6:	a830      	add	r0, sp, #192	; 0xc0
  4058a8:	dce8      	bgt.n	40587c <_svfprintf_r+0x3e0>
  4058aa:	9e18      	ldr	r6, [sp, #96]	; 0x60
  4058ac:	463d      	mov	r5, r7
  4058ae:	464f      	mov	r7, r9
  4058b0:	4681      	mov	r9, r0
  4058b2:	3201      	adds	r2, #1
  4058b4:	186c      	adds	r4, r5, r1
  4058b6:	2a07      	cmp	r2, #7
  4058b8:	9425      	str	r4, [sp, #148]	; 0x94
  4058ba:	9224      	str	r2, [sp, #144]	; 0x90
  4058bc:	f8c9 7000 	str.w	r7, [r9]
  4058c0:	f8c9 5004 	str.w	r5, [r9, #4]
  4058c4:	f300 8428 	bgt.w	406118 <_svfprintf_r+0xc7c>
  4058c8:	f89d 706f 	ldrb.w	r7, [sp, #111]	; 0x6f
  4058cc:	f109 0908 	add.w	r9, r9, #8
  4058d0:	b177      	cbz	r7, 4058f0 <_svfprintf_r+0x454>
  4058d2:	9b24      	ldr	r3, [sp, #144]	; 0x90
  4058d4:	3301      	adds	r3, #1
  4058d6:	3401      	adds	r4, #1
  4058d8:	f10d 016f 	add.w	r1, sp, #111	; 0x6f
  4058dc:	2201      	movs	r2, #1
  4058de:	2b07      	cmp	r3, #7
  4058e0:	9425      	str	r4, [sp, #148]	; 0x94
  4058e2:	9324      	str	r3, [sp, #144]	; 0x90
  4058e4:	e889 0006 	stmia.w	r9, {r1, r2}
  4058e8:	f300 83a0 	bgt.w	40602c <_svfprintf_r+0xb90>
  4058ec:	f109 0908 	add.w	r9, r9, #8
  4058f0:	9b0f      	ldr	r3, [sp, #60]	; 0x3c
  4058f2:	b16b      	cbz	r3, 405910 <_svfprintf_r+0x474>
  4058f4:	9b24      	ldr	r3, [sp, #144]	; 0x90
  4058f6:	3301      	adds	r3, #1
  4058f8:	3402      	adds	r4, #2
  4058fa:	a91c      	add	r1, sp, #112	; 0x70
  4058fc:	2202      	movs	r2, #2
  4058fe:	2b07      	cmp	r3, #7
  405900:	9425      	str	r4, [sp, #148]	; 0x94
  405902:	9324      	str	r3, [sp, #144]	; 0x90
  405904:	e889 0006 	stmia.w	r9, {r1, r2}
  405908:	f300 839c 	bgt.w	406044 <_svfprintf_r+0xba8>
  40590c:	f109 0908 	add.w	r9, r9, #8
  405910:	9b10      	ldr	r3, [sp, #64]	; 0x40
  405912:	2b80      	cmp	r3, #128	; 0x80
  405914:	f000 82d5 	beq.w	405ec2 <_svfprintf_r+0xa26>
  405918:	9b0d      	ldr	r3, [sp, #52]	; 0x34
  40591a:	ebc3 070b 	rsb	r7, r3, fp
  40591e:	2f00      	cmp	r7, #0
  405920:	dd39      	ble.n	405996 <_svfprintf_r+0x4fa>
  405922:	4a07      	ldr	r2, [pc, #28]	; (405940 <_svfprintf_r+0x4a4>)
  405924:	9b24      	ldr	r3, [sp, #144]	; 0x90
  405926:	920f      	str	r2, [sp, #60]	; 0x3c
  405928:	2f10      	cmp	r7, #16
  40592a:	dd28      	ble.n	40597e <_svfprintf_r+0x4e2>
  40592c:	4622      	mov	r2, r4
  40592e:	f04f 0b10 	mov.w	fp, #16
  405932:	9d0a      	ldr	r5, [sp, #40]	; 0x28
  405934:	9c09      	ldr	r4, [sp, #36]	; 0x24
  405936:	e00a      	b.n	40594e <_svfprintf_r+0x4b2>
  405938:	0040cb1c 	.word	0x0040cb1c
  40593c:	0040cb3c 	.word	0x0040cb3c
  405940:	0040cae8 	.word	0x0040cae8
  405944:	3f10      	subs	r7, #16
  405946:	2f10      	cmp	r7, #16
  405948:	f109 0908 	add.w	r9, r9, #8
  40594c:	dd16      	ble.n	40597c <_svfprintf_r+0x4e0>
  40594e:	3301      	adds	r3, #1
  405950:	3210      	adds	r2, #16
  405952:	2b07      	cmp	r3, #7
  405954:	9225      	str	r2, [sp, #148]	; 0x94
  405956:	9324      	str	r3, [sp, #144]	; 0x90
  405958:	e889 0c00 	stmia.w	r9, {sl, fp}
  40595c:	ddf2      	ble.n	405944 <_svfprintf_r+0x4a8>
  40595e:	aa23      	add	r2, sp, #140	; 0x8c
  405960:	4621      	mov	r1, r4
  405962:	4628      	mov	r0, r5
  405964:	f004 ff0a 	bl	40a77c <__ssprint_r>
  405968:	2800      	cmp	r0, #0
  40596a:	f47f ae90 	bne.w	40568e <_svfprintf_r+0x1f2>
  40596e:	3f10      	subs	r7, #16
  405970:	2f10      	cmp	r7, #16
  405972:	9a25      	ldr	r2, [sp, #148]	; 0x94
  405974:	9b24      	ldr	r3, [sp, #144]	; 0x90
  405976:	f10d 09c0 	add.w	r9, sp, #192	; 0xc0
  40597a:	dce8      	bgt.n	40594e <_svfprintf_r+0x4b2>
  40597c:	4614      	mov	r4, r2
  40597e:	3301      	adds	r3, #1
  405980:	9a0f      	ldr	r2, [sp, #60]	; 0x3c
  405982:	9324      	str	r3, [sp, #144]	; 0x90
  405984:	443c      	add	r4, r7
  405986:	2b07      	cmp	r3, #7
  405988:	9425      	str	r4, [sp, #148]	; 0x94
  40598a:	e889 0084 	stmia.w	r9, {r2, r7}
  40598e:	f300 8341 	bgt.w	406014 <_svfprintf_r+0xb78>
  405992:	f109 0908 	add.w	r9, r9, #8
  405996:	9b07      	ldr	r3, [sp, #28]
  405998:	05da      	lsls	r2, r3, #23
  40599a:	f100 8230 	bmi.w	405dfe <_svfprintf_r+0x962>
  40599e:	9b24      	ldr	r3, [sp, #144]	; 0x90
  4059a0:	990d      	ldr	r1, [sp, #52]	; 0x34
  4059a2:	f8c9 6000 	str.w	r6, [r9]
  4059a6:	3301      	adds	r3, #1
  4059a8:	440c      	add	r4, r1
  4059aa:	2b07      	cmp	r3, #7
  4059ac:	9425      	str	r4, [sp, #148]	; 0x94
  4059ae:	f8c9 1004 	str.w	r1, [r9, #4]
  4059b2:	9324      	str	r3, [sp, #144]	; 0x90
  4059b4:	f300 8318 	bgt.w	405fe8 <_svfprintf_r+0xb4c>
  4059b8:	f109 0908 	add.w	r9, r9, #8
  4059bc:	9b07      	ldr	r3, [sp, #28]
  4059be:	0759      	lsls	r1, r3, #29
  4059c0:	d53f      	bpl.n	405a42 <_svfprintf_r+0x5a6>
  4059c2:	9b0c      	ldr	r3, [sp, #48]	; 0x30
  4059c4:	9a08      	ldr	r2, [sp, #32]
  4059c6:	1a9d      	subs	r5, r3, r2
  4059c8:	2d00      	cmp	r5, #0
  4059ca:	dd3a      	ble.n	405a42 <_svfprintf_r+0x5a6>
  4059cc:	2d10      	cmp	r5, #16
  4059ce:	9b24      	ldr	r3, [sp, #144]	; 0x90
  4059d0:	4fbc      	ldr	r7, [pc, #752]	; (405cc4 <_svfprintf_r+0x828>)
  4059d2:	dd23      	ble.n	405a1c <_svfprintf_r+0x580>
  4059d4:	4622      	mov	r2, r4
  4059d6:	2610      	movs	r6, #16
  4059d8:	f8dd b028 	ldr.w	fp, [sp, #40]	; 0x28
  4059dc:	9c09      	ldr	r4, [sp, #36]	; 0x24
  4059de:	e004      	b.n	4059ea <_svfprintf_r+0x54e>
  4059e0:	3d10      	subs	r5, #16
  4059e2:	2d10      	cmp	r5, #16
  4059e4:	f109 0908 	add.w	r9, r9, #8
  4059e8:	dd17      	ble.n	405a1a <_svfprintf_r+0x57e>
  4059ea:	3301      	adds	r3, #1
  4059ec:	49b5      	ldr	r1, [pc, #724]	; (405cc4 <_svfprintf_r+0x828>)
  4059ee:	9324      	str	r3, [sp, #144]	; 0x90
  4059f0:	3210      	adds	r2, #16
  4059f2:	2b07      	cmp	r3, #7
  4059f4:	9225      	str	r2, [sp, #148]	; 0x94
  4059f6:	e889 0042 	stmia.w	r9, {r1, r6}
  4059fa:	ddf1      	ble.n	4059e0 <_svfprintf_r+0x544>
  4059fc:	aa23      	add	r2, sp, #140	; 0x8c
  4059fe:	4621      	mov	r1, r4
  405a00:	4658      	mov	r0, fp
  405a02:	f004 febb 	bl	40a77c <__ssprint_r>
  405a06:	2800      	cmp	r0, #0
  405a08:	f47f ae41 	bne.w	40568e <_svfprintf_r+0x1f2>
  405a0c:	3d10      	subs	r5, #16
  405a0e:	2d10      	cmp	r5, #16
  405a10:	9a25      	ldr	r2, [sp, #148]	; 0x94
  405a12:	9b24      	ldr	r3, [sp, #144]	; 0x90
  405a14:	f10d 09c0 	add.w	r9, sp, #192	; 0xc0
  405a18:	dce7      	bgt.n	4059ea <_svfprintf_r+0x54e>
  405a1a:	4614      	mov	r4, r2
  405a1c:	3301      	adds	r3, #1
  405a1e:	442c      	add	r4, r5
  405a20:	2b07      	cmp	r3, #7
  405a22:	9425      	str	r4, [sp, #148]	; 0x94
  405a24:	9324      	str	r3, [sp, #144]	; 0x90
  405a26:	f8c9 7000 	str.w	r7, [r9]
  405a2a:	f8c9 5004 	str.w	r5, [r9, #4]
  405a2e:	dd08      	ble.n	405a42 <_svfprintf_r+0x5a6>
  405a30:	aa23      	add	r2, sp, #140	; 0x8c
  405a32:	9909      	ldr	r1, [sp, #36]	; 0x24
  405a34:	980a      	ldr	r0, [sp, #40]	; 0x28
  405a36:	f004 fea1 	bl	40a77c <__ssprint_r>
  405a3a:	2800      	cmp	r0, #0
  405a3c:	f47f ae27 	bne.w	40568e <_svfprintf_r+0x1f2>
  405a40:	9c25      	ldr	r4, [sp, #148]	; 0x94
  405a42:	9b0b      	ldr	r3, [sp, #44]	; 0x2c
  405a44:	9a0c      	ldr	r2, [sp, #48]	; 0x30
  405a46:	9908      	ldr	r1, [sp, #32]
  405a48:	428a      	cmp	r2, r1
  405a4a:	bfac      	ite	ge
  405a4c:	189b      	addge	r3, r3, r2
  405a4e:	185b      	addlt	r3, r3, r1
  405a50:	930b      	str	r3, [sp, #44]	; 0x2c
  405a52:	2c00      	cmp	r4, #0
  405a54:	f040 82d4 	bne.w	406000 <_svfprintf_r+0xb64>
  405a58:	2300      	movs	r3, #0
  405a5a:	9324      	str	r3, [sp, #144]	; 0x90
  405a5c:	f10d 09c0 	add.w	r9, sp, #192	; 0xc0
  405a60:	e542      	b.n	4054e8 <_svfprintf_r+0x4c>
  405a62:	9311      	str	r3, [sp, #68]	; 0x44
  405a64:	46ab      	mov	fp, r5
  405a66:	2a00      	cmp	r2, #0
  405a68:	f041 8059 	bne.w	406b1e <_svfprintf_r+0x1682>
  405a6c:	9f0e      	ldr	r7, [sp, #56]	; 0x38
  405a6e:	3707      	adds	r7, #7
  405a70:	f027 0307 	bic.w	r3, r7, #7
  405a74:	f103 0208 	add.w	r2, r3, #8
  405a78:	920e      	str	r2, [sp, #56]	; 0x38
  405a7a:	681a      	ldr	r2, [r3, #0]
  405a7c:	9214      	str	r2, [sp, #80]	; 0x50
  405a7e:	685b      	ldr	r3, [r3, #4]
  405a80:	9315      	str	r3, [sp, #84]	; 0x54
  405a82:	9b15      	ldr	r3, [sp, #84]	; 0x54
  405a84:	9d14      	ldr	r5, [sp, #80]	; 0x50
  405a86:	f023 4400 	bic.w	r4, r3, #2147483648	; 0x80000000
  405a8a:	4628      	mov	r0, r5
  405a8c:	4621      	mov	r1, r4
  405a8e:	f04f 32ff 	mov.w	r2, #4294967295
  405a92:	4b8d      	ldr	r3, [pc, #564]	; (405cc8 <_svfprintf_r+0x82c>)
  405a94:	f005 fd10 	bl	40b4b8 <__aeabi_dcmpun>
  405a98:	2800      	cmp	r0, #0
  405a9a:	f040 84c1 	bne.w	406420 <_svfprintf_r+0xf84>
  405a9e:	4628      	mov	r0, r5
  405aa0:	4621      	mov	r1, r4
  405aa2:	f04f 32ff 	mov.w	r2, #4294967295
  405aa6:	4b88      	ldr	r3, [pc, #544]	; (405cc8 <_svfprintf_r+0x82c>)
  405aa8:	f005 fce8 	bl	40b47c <__aeabi_dcmple>
  405aac:	2800      	cmp	r0, #0
  405aae:	f040 84b7 	bne.w	406420 <_svfprintf_r+0xf84>
  405ab2:	9814      	ldr	r0, [sp, #80]	; 0x50
  405ab4:	9915      	ldr	r1, [sp, #84]	; 0x54
  405ab6:	2200      	movs	r2, #0
  405ab8:	2300      	movs	r3, #0
  405aba:	f005 fcd5 	bl	40b468 <__aeabi_dcmplt>
  405abe:	2800      	cmp	r0, #0
  405ac0:	f040 874b 	bne.w	40695a <_svfprintf_r+0x14be>
  405ac4:	f89d 706f 	ldrb.w	r7, [sp, #111]	; 0x6f
  405ac8:	4e80      	ldr	r6, [pc, #512]	; (405ccc <_svfprintf_r+0x830>)
  405aca:	4b81      	ldr	r3, [pc, #516]	; (405cd0 <_svfprintf_r+0x834>)
  405acc:	9907      	ldr	r1, [sp, #28]
  405ace:	f021 0180 	bic.w	r1, r1, #128	; 0x80
  405ad2:	9107      	str	r1, [sp, #28]
  405ad4:	9911      	ldr	r1, [sp, #68]	; 0x44
  405ad6:	2203      	movs	r2, #3
  405ad8:	f04f 0b00 	mov.w	fp, #0
  405adc:	9208      	str	r2, [sp, #32]
  405ade:	2947      	cmp	r1, #71	; 0x47
  405ae0:	bfd8      	it	le
  405ae2:	461e      	movle	r6, r3
  405ae4:	920d      	str	r2, [sp, #52]	; 0x34
  405ae6:	f8cd b04c 	str.w	fp, [sp, #76]	; 0x4c
  405aea:	e69d      	b.n	405828 <_svfprintf_r+0x38c>
  405aec:	9b07      	ldr	r3, [sp, #28]
  405aee:	f043 0308 	orr.w	r3, r3, #8
  405af2:	9307      	str	r3, [sp, #28]
  405af4:	f898 3000 	ldrb.w	r3, [r8]
  405af8:	e529      	b.n	40554e <_svfprintf_r+0xb2>
  405afa:	9311      	str	r3, [sp, #68]	; 0x44
  405afc:	46ab      	mov	fp, r5
  405afe:	2a00      	cmp	r2, #0
  405b00:	f041 8009 	bne.w	406b16 <_svfprintf_r+0x167a>
  405b04:	9b07      	ldr	r3, [sp, #28]
  405b06:	f043 0310 	orr.w	r3, r3, #16
  405b0a:	9307      	str	r3, [sp, #28]
  405b0c:	9a07      	ldr	r2, [sp, #28]
  405b0e:	f012 0320 	ands.w	r3, r2, #32
  405b12:	f47f add2 	bne.w	4056ba <_svfprintf_r+0x21e>
  405b16:	9907      	ldr	r1, [sp, #28]
  405b18:	f011 0210 	ands.w	r2, r1, #16
  405b1c:	f000 8507 	beq.w	40652e <_svfprintf_r+0x1092>
  405b20:	980e      	ldr	r0, [sp, #56]	; 0x38
  405b22:	f88d 306f 	strb.w	r3, [sp, #111]	; 0x6f
  405b26:	f1bb 0f00 	cmp.w	fp, #0
  405b2a:	6804      	ldr	r4, [r0, #0]
  405b2c:	f100 0704 	add.w	r7, r0, #4
  405b30:	f04f 0500 	mov.w	r5, #0
  405b34:	f2c0 8521 	blt.w	40657a <_svfprintf_r+0x10de>
  405b38:	460a      	mov	r2, r1
  405b3a:	f022 0280 	bic.w	r2, r2, #128	; 0x80
  405b3e:	9207      	str	r2, [sp, #28]
  405b40:	ea54 0205 	orrs.w	r2, r4, r5
  405b44:	970e      	str	r7, [sp, #56]	; 0x38
  405b46:	f000 8143 	beq.w	405dd0 <_svfprintf_r+0x934>
  405b4a:	461f      	mov	r7, r3
  405b4c:	e5cb      	b.n	4056e6 <_svfprintf_r+0x24a>
  405b4e:	9311      	str	r3, [sp, #68]	; 0x44
  405b50:	46ab      	mov	fp, r5
  405b52:	2a00      	cmp	r2, #0
  405b54:	f040 87d7 	bne.w	406b06 <_svfprintf_r+0x166a>
  405b58:	9b07      	ldr	r3, [sp, #28]
  405b5a:	f043 0310 	orr.w	r3, r3, #16
  405b5e:	9307      	str	r3, [sp, #28]
  405b60:	9a07      	ldr	r2, [sp, #28]
  405b62:	f012 0320 	ands.w	r3, r2, #32
  405b66:	f000 8332 	beq.w	4061ce <_svfprintf_r+0xd32>
  405b6a:	9f0e      	ldr	r7, [sp, #56]	; 0x38
  405b6c:	3707      	adds	r7, #7
  405b6e:	f027 0307 	bic.w	r3, r7, #7
  405b72:	2700      	movs	r7, #0
  405b74:	f103 0108 	add.w	r1, r3, #8
  405b78:	45bb      	cmp	fp, r7
  405b7a:	910e      	str	r1, [sp, #56]	; 0x38
  405b7c:	e9d3 4500 	ldrd	r4, r5, [r3]
  405b80:	f88d 706f 	strb.w	r7, [sp, #111]	; 0x6f
  405b84:	f2c0 835c 	blt.w	406240 <_svfprintf_r+0xda4>
  405b88:	f022 0380 	bic.w	r3, r2, #128	; 0x80
  405b8c:	9307      	str	r3, [sp, #28]
  405b8e:	ea54 0305 	orrs.w	r3, r4, r5
  405b92:	f47f ae25 	bne.w	4057e0 <_svfprintf_r+0x344>
  405b96:	f1bb 0f00 	cmp.w	fp, #0
  405b9a:	f000 80fe 	beq.w	405d9a <_svfprintf_r+0x8fe>
  405b9e:	2400      	movs	r4, #0
  405ba0:	ae40      	add	r6, sp, #256	; 0x100
  405ba2:	3430      	adds	r4, #48	; 0x30
  405ba4:	f806 4d41 	strb.w	r4, [r6, #-65]!
  405ba8:	e634      	b.n	405814 <_svfprintf_r+0x378>
  405baa:	9311      	str	r3, [sp, #68]	; 0x44
  405bac:	46ab      	mov	fp, r5
  405bae:	2a00      	cmp	r2, #0
  405bb0:	f040 87a5 	bne.w	406afe <_svfprintf_r+0x1662>
  405bb4:	9b07      	ldr	r3, [sp, #28]
  405bb6:	4847      	ldr	r0, [pc, #284]	; (405cd4 <_svfprintf_r+0x838>)
  405bb8:	069d      	lsls	r5, r3, #26
  405bba:	f140 8097 	bpl.w	405cec <_svfprintf_r+0x850>
  405bbe:	9f0e      	ldr	r7, [sp, #56]	; 0x38
  405bc0:	3707      	adds	r7, #7
  405bc2:	f027 0307 	bic.w	r3, r7, #7
  405bc6:	e9d3 4500 	ldrd	r4, r5, [r3]
  405bca:	f103 0208 	add.w	r2, r3, #8
  405bce:	920e      	str	r2, [sp, #56]	; 0x38
  405bd0:	9a07      	ldr	r2, [sp, #28]
  405bd2:	f012 0701 	ands.w	r7, r2, #1
  405bd6:	f000 8241 	beq.w	40605c <_svfprintf_r+0xbc0>
  405bda:	ea54 0305 	orrs.w	r3, r4, r5
  405bde:	f000 84f5 	beq.w	4065cc <_svfprintf_r+0x1130>
  405be2:	f89d 2044 	ldrb.w	r2, [sp, #68]	; 0x44
  405be6:	f88d 2071 	strb.w	r2, [sp, #113]	; 0x71
  405bea:	2700      	movs	r7, #0
  405bec:	9a07      	ldr	r2, [sp, #28]
  405bee:	f88d 706f 	strb.w	r7, [sp, #111]	; 0x6f
  405bf2:	2330      	movs	r3, #48	; 0x30
  405bf4:	45bb      	cmp	fp, r7
  405bf6:	f88d 3070 	strb.w	r3, [sp, #112]	; 0x70
  405bfa:	f042 0302 	orr.w	r3, r2, #2
  405bfe:	f2c0 86a9 	blt.w	406954 <_svfprintf_r+0x14b8>
  405c02:	f022 0380 	bic.w	r3, r2, #128	; 0x80
  405c06:	f043 0302 	orr.w	r3, r3, #2
  405c0a:	9307      	str	r3, [sp, #28]
  405c0c:	ae30      	add	r6, sp, #192	; 0xc0
  405c0e:	0923      	lsrs	r3, r4, #4
  405c10:	f004 010f 	and.w	r1, r4, #15
  405c14:	ea43 7305 	orr.w	r3, r3, r5, lsl #28
  405c18:	092a      	lsrs	r2, r5, #4
  405c1a:	461c      	mov	r4, r3
  405c1c:	4615      	mov	r5, r2
  405c1e:	5c43      	ldrb	r3, [r0, r1]
  405c20:	f806 3d01 	strb.w	r3, [r6, #-1]!
  405c24:	ea54 0305 	orrs.w	r3, r4, r5
  405c28:	d1f1      	bne.n	405c0e <_svfprintf_r+0x772>
  405c2a:	e5f3      	b.n	405814 <_svfprintf_r+0x378>
  405c2c:	990e      	ldr	r1, [sp, #56]	; 0x38
  405c2e:	9311      	str	r3, [sp, #68]	; 0x44
  405c30:	680a      	ldr	r2, [r1, #0]
  405c32:	f88d 2098 	strb.w	r2, [sp, #152]	; 0x98
  405c36:	2300      	movs	r3, #0
  405c38:	460a      	mov	r2, r1
  405c3a:	461f      	mov	r7, r3
  405c3c:	f88d 306f 	strb.w	r3, [sp, #111]	; 0x6f
  405c40:	3204      	adds	r2, #4
  405c42:	2301      	movs	r3, #1
  405c44:	9308      	str	r3, [sp, #32]
  405c46:	46bb      	mov	fp, r7
  405c48:	9713      	str	r7, [sp, #76]	; 0x4c
  405c4a:	920e      	str	r2, [sp, #56]	; 0x38
  405c4c:	930d      	str	r3, [sp, #52]	; 0x34
  405c4e:	ae26      	add	r6, sp, #152	; 0x98
  405c50:	e5ee      	b.n	405830 <_svfprintf_r+0x394>
  405c52:	9311      	str	r3, [sp, #68]	; 0x44
  405c54:	46ab      	mov	fp, r5
  405c56:	2a00      	cmp	r2, #0
  405c58:	f43f ada0 	beq.w	40579c <_svfprintf_r+0x300>
  405c5c:	f88d 106f 	strb.w	r1, [sp, #111]	; 0x6f
  405c60:	e59c      	b.n	40579c <_svfprintf_r+0x300>
  405c62:	9b07      	ldr	r3, [sp, #28]
  405c64:	f043 0340 	orr.w	r3, r3, #64	; 0x40
  405c68:	9307      	str	r3, [sp, #28]
  405c6a:	f898 3000 	ldrb.w	r3, [r8]
  405c6e:	e46e      	b.n	40554e <_svfprintf_r+0xb2>
  405c70:	f898 3000 	ldrb.w	r3, [r8]
  405c74:	2900      	cmp	r1, #0
  405c76:	f47f ac6a 	bne.w	40554e <_svfprintf_r+0xb2>
  405c7a:	2201      	movs	r2, #1
  405c7c:	2120      	movs	r1, #32
  405c7e:	e466      	b.n	40554e <_svfprintf_r+0xb2>
  405c80:	9b07      	ldr	r3, [sp, #28]
  405c82:	f043 0301 	orr.w	r3, r3, #1
  405c86:	9307      	str	r3, [sp, #28]
  405c88:	f898 3000 	ldrb.w	r3, [r8]
  405c8c:	e45f      	b.n	40554e <_svfprintf_r+0xb2>
  405c8e:	9c0e      	ldr	r4, [sp, #56]	; 0x38
  405c90:	6823      	ldr	r3, [r4, #0]
  405c92:	930c      	str	r3, [sp, #48]	; 0x30
  405c94:	4618      	mov	r0, r3
  405c96:	2800      	cmp	r0, #0
  405c98:	4623      	mov	r3, r4
  405c9a:	f103 0304 	add.w	r3, r3, #4
  405c9e:	f6ff acb8 	blt.w	405612 <_svfprintf_r+0x176>
  405ca2:	930e      	str	r3, [sp, #56]	; 0x38
  405ca4:	f898 3000 	ldrb.w	r3, [r8]
  405ca8:	e451      	b.n	40554e <_svfprintf_r+0xb2>
  405caa:	f898 3000 	ldrb.w	r3, [r8]
  405cae:	2201      	movs	r2, #1
  405cb0:	212b      	movs	r1, #43	; 0x2b
  405cb2:	e44c      	b.n	40554e <_svfprintf_r+0xb2>
  405cb4:	9311      	str	r3, [sp, #68]	; 0x44
  405cb6:	46ab      	mov	fp, r5
  405cb8:	2a00      	cmp	r2, #0
  405cba:	f43f af51 	beq.w	405b60 <_svfprintf_r+0x6c4>
  405cbe:	f88d 106f 	strb.w	r1, [sp, #111]	; 0x6f
  405cc2:	e74d      	b.n	405b60 <_svfprintf_r+0x6c4>
  405cc4:	0040cb3c 	.word	0x0040cb3c
  405cc8:	7fefffff 	.word	0x7fefffff
  405ccc:	0040cafc 	.word	0x0040cafc
  405cd0:	0040caf8 	.word	0x0040caf8
  405cd4:	0040cb08 	.word	0x0040cb08
  405cd8:	9311      	str	r3, [sp, #68]	; 0x44
  405cda:	46ab      	mov	fp, r5
  405cdc:	2a00      	cmp	r2, #0
  405cde:	f040 8703 	bne.w	406ae8 <_svfprintf_r+0x164c>
  405ce2:	9b07      	ldr	r3, [sp, #28]
  405ce4:	4899      	ldr	r0, [pc, #612]	; (405f4c <_svfprintf_r+0xab0>)
  405ce6:	069d      	lsls	r5, r3, #26
  405ce8:	f53f af69 	bmi.w	405bbe <_svfprintf_r+0x722>
  405cec:	9b07      	ldr	r3, [sp, #28]
  405cee:	06dc      	lsls	r4, r3, #27
  405cf0:	f140 845e 	bpl.w	4065b0 <_svfprintf_r+0x1114>
  405cf4:	9a0e      	ldr	r2, [sp, #56]	; 0x38
  405cf6:	4613      	mov	r3, r2
  405cf8:	3304      	adds	r3, #4
  405cfa:	6814      	ldr	r4, [r2, #0]
  405cfc:	930e      	str	r3, [sp, #56]	; 0x38
  405cfe:	2500      	movs	r5, #0
  405d00:	e766      	b.n	405bd0 <_svfprintf_r+0x734>
  405d02:	f898 3000 	ldrb.w	r3, [r8]
  405d06:	2b6c      	cmp	r3, #108	; 0x6c
  405d08:	f000 84e1 	beq.w	4066ce <_svfprintf_r+0x1232>
  405d0c:	9807      	ldr	r0, [sp, #28]
  405d0e:	f040 0010 	orr.w	r0, r0, #16
  405d12:	9007      	str	r0, [sp, #28]
  405d14:	e41b      	b.n	40554e <_svfprintf_r+0xb2>
  405d16:	2a00      	cmp	r2, #0
  405d18:	f040 86db 	bne.w	406ad2 <_svfprintf_r+0x1636>
  405d1c:	9b07      	ldr	r3, [sp, #28]
  405d1e:	069b      	lsls	r3, r3, #26
  405d20:	f140 842f 	bpl.w	406582 <_svfprintf_r+0x10e6>
  405d24:	9a0e      	ldr	r2, [sp, #56]	; 0x38
  405d26:	990b      	ldr	r1, [sp, #44]	; 0x2c
  405d28:	6813      	ldr	r3, [r2, #0]
  405d2a:	17cd      	asrs	r5, r1, #31
  405d2c:	4608      	mov	r0, r1
  405d2e:	3204      	adds	r2, #4
  405d30:	4629      	mov	r1, r5
  405d32:	920e      	str	r2, [sp, #56]	; 0x38
  405d34:	e9c3 0100 	strd	r0, r1, [r3]
  405d38:	f7ff bbd6 	b.w	4054e8 <_svfprintf_r+0x4c>
  405d3c:	9b07      	ldr	r3, [sp, #28]
  405d3e:	f043 0320 	orr.w	r3, r3, #32
  405d42:	9307      	str	r3, [sp, #28]
  405d44:	f898 3000 	ldrb.w	r3, [r8]
  405d48:	e401      	b.n	40554e <_svfprintf_r+0xb2>
  405d4a:	9a0e      	ldr	r2, [sp, #56]	; 0x38
  405d4c:	9311      	str	r3, [sp, #68]	; 0x44
  405d4e:	6816      	ldr	r6, [r2, #0]
  405d50:	2400      	movs	r4, #0
  405d52:	f88d 406f 	strb.w	r4, [sp, #111]	; 0x6f
  405d56:	1d17      	adds	r7, r2, #4
  405d58:	2e00      	cmp	r6, #0
  405d5a:	f000 85bd 	beq.w	4068d8 <_svfprintf_r+0x143c>
  405d5e:	2d00      	cmp	r5, #0
  405d60:	f2c0 850f 	blt.w	406782 <_svfprintf_r+0x12e6>
  405d64:	462a      	mov	r2, r5
  405d66:	4621      	mov	r1, r4
  405d68:	4630      	mov	r0, r6
  405d6a:	f003 fe61 	bl	409a30 <memchr>
  405d6e:	2800      	cmp	r0, #0
  405d70:	f000 8604 	beq.w	40697c <_svfprintf_r+0x14e0>
  405d74:	1b83      	subs	r3, r0, r6
  405d76:	930d      	str	r3, [sp, #52]	; 0x34
  405d78:	46a3      	mov	fp, r4
  405d7a:	ea23 73e3 	bic.w	r3, r3, r3, asr #31
  405d7e:	970e      	str	r7, [sp, #56]	; 0x38
  405d80:	9308      	str	r3, [sp, #32]
  405d82:	f8cd b04c 	str.w	fp, [sp, #76]	; 0x4c
  405d86:	f89d 706f 	ldrb.w	r7, [sp, #111]	; 0x6f
  405d8a:	e54d      	b.n	405828 <_svfprintf_r+0x38c>
  405d8c:	486f      	ldr	r0, [pc, #444]	; (405f4c <_svfprintf_r+0xab0>)
  405d8e:	9211      	str	r2, [sp, #68]	; 0x44
  405d90:	f1bb 0f00 	cmp.w	fp, #0
  405d94:	f040 8173 	bne.w	40607e <_svfprintf_r+0xbe2>
  405d98:	465f      	mov	r7, fp
  405d9a:	f04f 0b00 	mov.w	fp, #0
  405d9e:	f8cd b034 	str.w	fp, [sp, #52]	; 0x34
  405da2:	ae30      	add	r6, sp, #192	; 0xc0
  405da4:	e539      	b.n	40581a <_svfprintf_r+0x37e>
  405da6:	9311      	str	r3, [sp, #68]	; 0x44
  405da8:	2a00      	cmp	r2, #0
  405daa:	f040 86b0 	bne.w	406b0e <_svfprintf_r+0x1672>
  405dae:	9a11      	ldr	r2, [sp, #68]	; 0x44
  405db0:	2a00      	cmp	r2, #0
  405db2:	f43f ac65 	beq.w	405680 <_svfprintf_r+0x1e4>
  405db6:	2300      	movs	r3, #0
  405db8:	2101      	movs	r1, #1
  405dba:	461f      	mov	r7, r3
  405dbc:	9108      	str	r1, [sp, #32]
  405dbe:	f88d 2098 	strb.w	r2, [sp, #152]	; 0x98
  405dc2:	f88d 306f 	strb.w	r3, [sp, #111]	; 0x6f
  405dc6:	469b      	mov	fp, r3
  405dc8:	9313      	str	r3, [sp, #76]	; 0x4c
  405dca:	910d      	str	r1, [sp, #52]	; 0x34
  405dcc:	ae26      	add	r6, sp, #152	; 0x98
  405dce:	e52f      	b.n	405830 <_svfprintf_r+0x394>
  405dd0:	f1bb 0f00 	cmp.w	fp, #0
  405dd4:	f000 85dd 	beq.w	406992 <_svfprintf_r+0x14f6>
  405dd8:	2700      	movs	r7, #0
  405dda:	2400      	movs	r4, #0
  405ddc:	2500      	movs	r5, #0
  405dde:	e482      	b.n	4056e6 <_svfprintf_r+0x24a>
  405de0:	485a      	ldr	r0, [pc, #360]	; (405f4c <_svfprintf_r+0xab0>)
  405de2:	9307      	str	r3, [sp, #28]
  405de4:	9211      	str	r2, [sp, #68]	; 0x44
  405de6:	ea54 0305 	orrs.w	r3, r4, r5
  405dea:	970e      	str	r7, [sp, #56]	; 0x38
  405dec:	f04f 0700 	mov.w	r7, #0
  405df0:	f47f af0c 	bne.w	405c0c <_svfprintf_r+0x770>
  405df4:	2400      	movs	r4, #0
  405df6:	2500      	movs	r5, #0
  405df8:	e708      	b.n	405c0c <_svfprintf_r+0x770>
  405dfa:	9c25      	ldr	r4, [sp, #148]	; 0x94
  405dfc:	e568      	b.n	4058d0 <_svfprintf_r+0x434>
  405dfe:	9b11      	ldr	r3, [sp, #68]	; 0x44
  405e00:	2b65      	cmp	r3, #101	; 0x65
  405e02:	f340 80a9 	ble.w	405f58 <_svfprintf_r+0xabc>
  405e06:	9814      	ldr	r0, [sp, #80]	; 0x50
  405e08:	9915      	ldr	r1, [sp, #84]	; 0x54
  405e0a:	2200      	movs	r2, #0
  405e0c:	2300      	movs	r3, #0
  405e0e:	f005 fb21 	bl	40b454 <__aeabi_dcmpeq>
  405e12:	2800      	cmp	r0, #0
  405e14:	f000 8135 	beq.w	406082 <_svfprintf_r+0xbe6>
  405e18:	9b24      	ldr	r3, [sp, #144]	; 0x90
  405e1a:	4a4d      	ldr	r2, [pc, #308]	; (405f50 <_svfprintf_r+0xab4>)
  405e1c:	f8c9 2000 	str.w	r2, [r9]
  405e20:	3301      	adds	r3, #1
  405e22:	3401      	adds	r4, #1
  405e24:	2201      	movs	r2, #1
  405e26:	2b07      	cmp	r3, #7
  405e28:	9425      	str	r4, [sp, #148]	; 0x94
  405e2a:	9324      	str	r3, [sp, #144]	; 0x90
  405e2c:	f8c9 2004 	str.w	r2, [r9, #4]
  405e30:	f300 83e6 	bgt.w	406600 <_svfprintf_r+0x1164>
  405e34:	f109 0908 	add.w	r9, r9, #8
  405e38:	9b1d      	ldr	r3, [sp, #116]	; 0x74
  405e3a:	9a12      	ldr	r2, [sp, #72]	; 0x48
  405e3c:	4293      	cmp	r3, r2
  405e3e:	db03      	blt.n	405e48 <_svfprintf_r+0x9ac>
  405e40:	9b07      	ldr	r3, [sp, #28]
  405e42:	07db      	lsls	r3, r3, #31
  405e44:	f57f adba 	bpl.w	4059bc <_svfprintf_r+0x520>
  405e48:	9b24      	ldr	r3, [sp, #144]	; 0x90
  405e4a:	9916      	ldr	r1, [sp, #88]	; 0x58
  405e4c:	9a17      	ldr	r2, [sp, #92]	; 0x5c
  405e4e:	f8c9 2000 	str.w	r2, [r9]
  405e52:	3301      	adds	r3, #1
  405e54:	440c      	add	r4, r1
  405e56:	2b07      	cmp	r3, #7
  405e58:	9425      	str	r4, [sp, #148]	; 0x94
  405e5a:	f8c9 1004 	str.w	r1, [r9, #4]
  405e5e:	9324      	str	r3, [sp, #144]	; 0x90
  405e60:	f300 843f 	bgt.w	4066e2 <_svfprintf_r+0x1246>
  405e64:	f109 0908 	add.w	r9, r9, #8
  405e68:	9b12      	ldr	r3, [sp, #72]	; 0x48
  405e6a:	1e5d      	subs	r5, r3, #1
  405e6c:	2d00      	cmp	r5, #0
  405e6e:	f77f ada5 	ble.w	4059bc <_svfprintf_r+0x520>
  405e72:	4a38      	ldr	r2, [pc, #224]	; (405f54 <_svfprintf_r+0xab8>)
  405e74:	9b24      	ldr	r3, [sp, #144]	; 0x90
  405e76:	920f      	str	r2, [sp, #60]	; 0x3c
  405e78:	2d10      	cmp	r5, #16
  405e7a:	f340 81e6 	ble.w	40624a <_svfprintf_r+0xdae>
  405e7e:	2610      	movs	r6, #16
  405e80:	9f0a      	ldr	r7, [sp, #40]	; 0x28
  405e82:	f8dd b024 	ldr.w	fp, [sp, #36]	; 0x24
  405e86:	e005      	b.n	405e94 <_svfprintf_r+0x9f8>
  405e88:	f109 0908 	add.w	r9, r9, #8
  405e8c:	3d10      	subs	r5, #16
  405e8e:	2d10      	cmp	r5, #16
  405e90:	f340 81db 	ble.w	40624a <_svfprintf_r+0xdae>
  405e94:	3301      	adds	r3, #1
  405e96:	3410      	adds	r4, #16
  405e98:	2b07      	cmp	r3, #7
  405e9a:	9425      	str	r4, [sp, #148]	; 0x94
  405e9c:	9324      	str	r3, [sp, #144]	; 0x90
  405e9e:	f8c9 a000 	str.w	sl, [r9]
  405ea2:	f8c9 6004 	str.w	r6, [r9, #4]
  405ea6:	ddef      	ble.n	405e88 <_svfprintf_r+0x9ec>
  405ea8:	aa23      	add	r2, sp, #140	; 0x8c
  405eaa:	4659      	mov	r1, fp
  405eac:	4638      	mov	r0, r7
  405eae:	f004 fc65 	bl	40a77c <__ssprint_r>
  405eb2:	2800      	cmp	r0, #0
  405eb4:	f47f abeb 	bne.w	40568e <_svfprintf_r+0x1f2>
  405eb8:	9c25      	ldr	r4, [sp, #148]	; 0x94
  405eba:	9b24      	ldr	r3, [sp, #144]	; 0x90
  405ebc:	f10d 09c0 	add.w	r9, sp, #192	; 0xc0
  405ec0:	e7e4      	b.n	405e8c <_svfprintf_r+0x9f0>
  405ec2:	9b0c      	ldr	r3, [sp, #48]	; 0x30
  405ec4:	9a08      	ldr	r2, [sp, #32]
  405ec6:	1a9f      	subs	r7, r3, r2
  405ec8:	2f00      	cmp	r7, #0
  405eca:	f77f ad25 	ble.w	405918 <_svfprintf_r+0x47c>
  405ece:	4a21      	ldr	r2, [pc, #132]	; (405f54 <_svfprintf_r+0xab8>)
  405ed0:	9b24      	ldr	r3, [sp, #144]	; 0x90
  405ed2:	920f      	str	r2, [sp, #60]	; 0x3c
  405ed4:	2f10      	cmp	r7, #16
  405ed6:	dd2b      	ble.n	405f30 <_svfprintf_r+0xa94>
  405ed8:	464a      	mov	r2, r9
  405eda:	4621      	mov	r1, r4
  405edc:	46b9      	mov	r9, r7
  405ede:	2510      	movs	r5, #16
  405ee0:	4637      	mov	r7, r6
  405ee2:	9c0a      	ldr	r4, [sp, #40]	; 0x28
  405ee4:	9e09      	ldr	r6, [sp, #36]	; 0x24
  405ee6:	e006      	b.n	405ef6 <_svfprintf_r+0xa5a>
  405ee8:	f1a9 0910 	sub.w	r9, r9, #16
  405eec:	f1b9 0f10 	cmp.w	r9, #16
  405ef0:	f102 0208 	add.w	r2, r2, #8
  405ef4:	dd18      	ble.n	405f28 <_svfprintf_r+0xa8c>
  405ef6:	3301      	adds	r3, #1
  405ef8:	3110      	adds	r1, #16
  405efa:	2b07      	cmp	r3, #7
  405efc:	9125      	str	r1, [sp, #148]	; 0x94
  405efe:	9324      	str	r3, [sp, #144]	; 0x90
  405f00:	f8c2 a000 	str.w	sl, [r2]
  405f04:	6055      	str	r5, [r2, #4]
  405f06:	ddef      	ble.n	405ee8 <_svfprintf_r+0xa4c>
  405f08:	aa23      	add	r2, sp, #140	; 0x8c
  405f0a:	4631      	mov	r1, r6
  405f0c:	4620      	mov	r0, r4
  405f0e:	f004 fc35 	bl	40a77c <__ssprint_r>
  405f12:	2800      	cmp	r0, #0
  405f14:	f47f abbb 	bne.w	40568e <_svfprintf_r+0x1f2>
  405f18:	f1a9 0910 	sub.w	r9, r9, #16
  405f1c:	f1b9 0f10 	cmp.w	r9, #16
  405f20:	9925      	ldr	r1, [sp, #148]	; 0x94
  405f22:	9b24      	ldr	r3, [sp, #144]	; 0x90
  405f24:	aa30      	add	r2, sp, #192	; 0xc0
  405f26:	dce6      	bgt.n	405ef6 <_svfprintf_r+0xa5a>
  405f28:	463e      	mov	r6, r7
  405f2a:	460c      	mov	r4, r1
  405f2c:	464f      	mov	r7, r9
  405f2e:	4691      	mov	r9, r2
  405f30:	3301      	adds	r3, #1
  405f32:	9a0f      	ldr	r2, [sp, #60]	; 0x3c
  405f34:	9324      	str	r3, [sp, #144]	; 0x90
  405f36:	443c      	add	r4, r7
  405f38:	2b07      	cmp	r3, #7
  405f3a:	9425      	str	r4, [sp, #148]	; 0x94
  405f3c:	e889 0084 	stmia.w	r9, {r2, r7}
  405f40:	f300 8245 	bgt.w	4063ce <_svfprintf_r+0xf32>
  405f44:	f109 0908 	add.w	r9, r9, #8
  405f48:	e4e6      	b.n	405918 <_svfprintf_r+0x47c>
  405f4a:	bf00      	nop
  405f4c:	0040cb1c 	.word	0x0040cb1c
  405f50:	0040cb38 	.word	0x0040cb38
  405f54:	0040cae8 	.word	0x0040cae8
  405f58:	9b12      	ldr	r3, [sp, #72]	; 0x48
  405f5a:	9d24      	ldr	r5, [sp, #144]	; 0x90
  405f5c:	2b01      	cmp	r3, #1
  405f5e:	f340 8208 	ble.w	406372 <_svfprintf_r+0xed6>
  405f62:	3501      	adds	r5, #1
  405f64:	3401      	adds	r4, #1
  405f66:	2301      	movs	r3, #1
  405f68:	2d07      	cmp	r5, #7
  405f6a:	9425      	str	r4, [sp, #148]	; 0x94
  405f6c:	9524      	str	r5, [sp, #144]	; 0x90
  405f6e:	f8c9 6000 	str.w	r6, [r9]
  405f72:	f8c9 3004 	str.w	r3, [r9, #4]
  405f76:	f300 820d 	bgt.w	406394 <_svfprintf_r+0xef8>
  405f7a:	f109 0908 	add.w	r9, r9, #8
  405f7e:	9a16      	ldr	r2, [sp, #88]	; 0x58
  405f80:	9b17      	ldr	r3, [sp, #92]	; 0x5c
  405f82:	f8c9 3000 	str.w	r3, [r9]
  405f86:	3501      	adds	r5, #1
  405f88:	4414      	add	r4, r2
  405f8a:	2d07      	cmp	r5, #7
  405f8c:	9425      	str	r4, [sp, #148]	; 0x94
  405f8e:	9524      	str	r5, [sp, #144]	; 0x90
  405f90:	f8c9 2004 	str.w	r2, [r9, #4]
  405f94:	f300 820e 	bgt.w	4063b4 <_svfprintf_r+0xf18>
  405f98:	f109 0908 	add.w	r9, r9, #8
  405f9c:	2300      	movs	r3, #0
  405f9e:	9814      	ldr	r0, [sp, #80]	; 0x50
  405fa0:	9915      	ldr	r1, [sp, #84]	; 0x54
  405fa2:	2200      	movs	r2, #0
  405fa4:	f005 fa56 	bl	40b454 <__aeabi_dcmpeq>
  405fa8:	9b12      	ldr	r3, [sp, #72]	; 0x48
  405faa:	2800      	cmp	r0, #0
  405fac:	f040 80c3 	bne.w	406136 <_svfprintf_r+0xc9a>
  405fb0:	3b01      	subs	r3, #1
  405fb2:	3501      	adds	r5, #1
  405fb4:	3601      	adds	r6, #1
  405fb6:	441c      	add	r4, r3
  405fb8:	2d07      	cmp	r5, #7
  405fba:	9524      	str	r5, [sp, #144]	; 0x90
  405fbc:	9425      	str	r4, [sp, #148]	; 0x94
  405fbe:	f8c9 6000 	str.w	r6, [r9]
  405fc2:	f8c9 3004 	str.w	r3, [r9, #4]
  405fc6:	f300 80f5 	bgt.w	4061b4 <_svfprintf_r+0xd18>
  405fca:	f109 0908 	add.w	r9, r9, #8
  405fce:	9a19      	ldr	r2, [sp, #100]	; 0x64
  405fd0:	f8c9 2004 	str.w	r2, [r9, #4]
  405fd4:	3501      	adds	r5, #1
  405fd6:	4414      	add	r4, r2
  405fd8:	ab1f      	add	r3, sp, #124	; 0x7c
  405fda:	2d07      	cmp	r5, #7
  405fdc:	9425      	str	r4, [sp, #148]	; 0x94
  405fde:	9524      	str	r5, [sp, #144]	; 0x90
  405fe0:	f8c9 3000 	str.w	r3, [r9]
  405fe4:	f77f ace8 	ble.w	4059b8 <_svfprintf_r+0x51c>
  405fe8:	aa23      	add	r2, sp, #140	; 0x8c
  405fea:	9909      	ldr	r1, [sp, #36]	; 0x24
  405fec:	980a      	ldr	r0, [sp, #40]	; 0x28
  405fee:	f004 fbc5 	bl	40a77c <__ssprint_r>
  405ff2:	2800      	cmp	r0, #0
  405ff4:	f47f ab4b 	bne.w	40568e <_svfprintf_r+0x1f2>
  405ff8:	9c25      	ldr	r4, [sp, #148]	; 0x94
  405ffa:	f10d 09c0 	add.w	r9, sp, #192	; 0xc0
  405ffe:	e4dd      	b.n	4059bc <_svfprintf_r+0x520>
  406000:	aa23      	add	r2, sp, #140	; 0x8c
  406002:	9909      	ldr	r1, [sp, #36]	; 0x24
  406004:	980a      	ldr	r0, [sp, #40]	; 0x28
  406006:	f004 fbb9 	bl	40a77c <__ssprint_r>
  40600a:	2800      	cmp	r0, #0
  40600c:	f43f ad24 	beq.w	405a58 <_svfprintf_r+0x5bc>
  406010:	f7ff bb3d 	b.w	40568e <_svfprintf_r+0x1f2>
  406014:	aa23      	add	r2, sp, #140	; 0x8c
  406016:	9909      	ldr	r1, [sp, #36]	; 0x24
  406018:	980a      	ldr	r0, [sp, #40]	; 0x28
  40601a:	f004 fbaf 	bl	40a77c <__ssprint_r>
  40601e:	2800      	cmp	r0, #0
  406020:	f47f ab35 	bne.w	40568e <_svfprintf_r+0x1f2>
  406024:	9c25      	ldr	r4, [sp, #148]	; 0x94
  406026:	f10d 09c0 	add.w	r9, sp, #192	; 0xc0
  40602a:	e4b4      	b.n	405996 <_svfprintf_r+0x4fa>
  40602c:	aa23      	add	r2, sp, #140	; 0x8c
  40602e:	9909      	ldr	r1, [sp, #36]	; 0x24
  406030:	980a      	ldr	r0, [sp, #40]	; 0x28
  406032:	f004 fba3 	bl	40a77c <__ssprint_r>
  406036:	2800      	cmp	r0, #0
  406038:	f47f ab29 	bne.w	40568e <_svfprintf_r+0x1f2>
  40603c:	9c25      	ldr	r4, [sp, #148]	; 0x94
  40603e:	f10d 09c0 	add.w	r9, sp, #192	; 0xc0
  406042:	e455      	b.n	4058f0 <_svfprintf_r+0x454>
  406044:	aa23      	add	r2, sp, #140	; 0x8c
  406046:	9909      	ldr	r1, [sp, #36]	; 0x24
  406048:	980a      	ldr	r0, [sp, #40]	; 0x28
  40604a:	f004 fb97 	bl	40a77c <__ssprint_r>
  40604e:	2800      	cmp	r0, #0
  406050:	f47f ab1d 	bne.w	40568e <_svfprintf_r+0x1f2>
  406054:	9c25      	ldr	r4, [sp, #148]	; 0x94
  406056:	f10d 09c0 	add.w	r9, sp, #192	; 0xc0
  40605a:	e459      	b.n	405910 <_svfprintf_r+0x474>
  40605c:	f1bb 0f00 	cmp.w	fp, #0
  406060:	f88d 706f 	strb.w	r7, [sp, #111]	; 0x6f
  406064:	f2c0 82d8 	blt.w	406618 <_svfprintf_r+0x117c>
  406068:	f022 0380 	bic.w	r3, r2, #128	; 0x80
  40606c:	9307      	str	r3, [sp, #28]
  40606e:	ea54 0305 	orrs.w	r3, r4, r5
  406072:	f47f adcb 	bne.w	405c0c <_svfprintf_r+0x770>
  406076:	f1bb 0f00 	cmp.w	fp, #0
  40607a:	f43f ae8d 	beq.w	405d98 <_svfprintf_r+0x8fc>
  40607e:	2700      	movs	r7, #0
  406080:	e6b8      	b.n	405df4 <_svfprintf_r+0x958>
  406082:	9d1d      	ldr	r5, [sp, #116]	; 0x74
  406084:	2d00      	cmp	r5, #0
  406086:	f340 82ca 	ble.w	40661e <_svfprintf_r+0x1182>
  40608a:	9b13      	ldr	r3, [sp, #76]	; 0x4c
  40608c:	9a12      	ldr	r2, [sp, #72]	; 0x48
  40608e:	4293      	cmp	r3, r2
  406090:	bfa8      	it	ge
  406092:	4613      	movge	r3, r2
  406094:	2b00      	cmp	r3, #0
  406096:	461d      	mov	r5, r3
  406098:	dd0d      	ble.n	4060b6 <_svfprintf_r+0xc1a>
  40609a:	9b24      	ldr	r3, [sp, #144]	; 0x90
  40609c:	f8c9 6000 	str.w	r6, [r9]
  4060a0:	3301      	adds	r3, #1
  4060a2:	442c      	add	r4, r5
  4060a4:	2b07      	cmp	r3, #7
  4060a6:	9425      	str	r4, [sp, #148]	; 0x94
  4060a8:	f8c9 5004 	str.w	r5, [r9, #4]
  4060ac:	9324      	str	r3, [sp, #144]	; 0x90
  4060ae:	f300 839c 	bgt.w	4067ea <_svfprintf_r+0x134e>
  4060b2:	f109 0908 	add.w	r9, r9, #8
  4060b6:	9b13      	ldr	r3, [sp, #76]	; 0x4c
  4060b8:	2d00      	cmp	r5, #0
  4060ba:	bfa8      	it	ge
  4060bc:	1b5b      	subge	r3, r3, r5
  4060be:	2b00      	cmp	r3, #0
  4060c0:	461d      	mov	r5, r3
  4060c2:	f340 80f6 	ble.w	4062b2 <_svfprintf_r+0xe16>
  4060c6:	4aba      	ldr	r2, [pc, #744]	; (4063b0 <_svfprintf_r+0xf14>)
  4060c8:	9b24      	ldr	r3, [sp, #144]	; 0x90
  4060ca:	920f      	str	r2, [sp, #60]	; 0x3c
  4060cc:	2d10      	cmp	r5, #16
  4060ce:	f340 828a 	ble.w	4065e6 <_svfprintf_r+0x114a>
  4060d2:	4622      	mov	r2, r4
  4060d4:	2710      	movs	r7, #16
  4060d6:	f8dd b028 	ldr.w	fp, [sp, #40]	; 0x28
  4060da:	9c09      	ldr	r4, [sp, #36]	; 0x24
  4060dc:	e005      	b.n	4060ea <_svfprintf_r+0xc4e>
  4060de:	f109 0908 	add.w	r9, r9, #8
  4060e2:	3d10      	subs	r5, #16
  4060e4:	2d10      	cmp	r5, #16
  4060e6:	f340 827d 	ble.w	4065e4 <_svfprintf_r+0x1148>
  4060ea:	3301      	adds	r3, #1
  4060ec:	3210      	adds	r2, #16
  4060ee:	2b07      	cmp	r3, #7
  4060f0:	9225      	str	r2, [sp, #148]	; 0x94
  4060f2:	9324      	str	r3, [sp, #144]	; 0x90
  4060f4:	f8c9 a000 	str.w	sl, [r9]
  4060f8:	f8c9 7004 	str.w	r7, [r9, #4]
  4060fc:	ddef      	ble.n	4060de <_svfprintf_r+0xc42>
  4060fe:	aa23      	add	r2, sp, #140	; 0x8c
  406100:	4621      	mov	r1, r4
  406102:	4658      	mov	r0, fp
  406104:	f004 fb3a 	bl	40a77c <__ssprint_r>
  406108:	2800      	cmp	r0, #0
  40610a:	f47f aac0 	bne.w	40568e <_svfprintf_r+0x1f2>
  40610e:	9a25      	ldr	r2, [sp, #148]	; 0x94
  406110:	9b24      	ldr	r3, [sp, #144]	; 0x90
  406112:	f10d 09c0 	add.w	r9, sp, #192	; 0xc0
  406116:	e7e4      	b.n	4060e2 <_svfprintf_r+0xc46>
  406118:	aa23      	add	r2, sp, #140	; 0x8c
  40611a:	9909      	ldr	r1, [sp, #36]	; 0x24
  40611c:	980a      	ldr	r0, [sp, #40]	; 0x28
  40611e:	f004 fb2d 	bl	40a77c <__ssprint_r>
  406122:	2800      	cmp	r0, #0
  406124:	f47f aab3 	bne.w	40568e <_svfprintf_r+0x1f2>
  406128:	f89d 706f 	ldrb.w	r7, [sp, #111]	; 0x6f
  40612c:	9c25      	ldr	r4, [sp, #148]	; 0x94
  40612e:	f10d 09c0 	add.w	r9, sp, #192	; 0xc0
  406132:	f7ff bbcd 	b.w	4058d0 <_svfprintf_r+0x434>
  406136:	1e5e      	subs	r6, r3, #1
  406138:	2e00      	cmp	r6, #0
  40613a:	f77f af48 	ble.w	405fce <_svfprintf_r+0xb32>
  40613e:	4b9c      	ldr	r3, [pc, #624]	; (4063b0 <_svfprintf_r+0xf14>)
  406140:	930f      	str	r3, [sp, #60]	; 0x3c
  406142:	2e10      	cmp	r6, #16
  406144:	dd2c      	ble.n	4061a0 <_svfprintf_r+0xd04>
  406146:	f8cd 8034 	str.w	r8, [sp, #52]	; 0x34
  40614a:	2710      	movs	r7, #16
  40614c:	46b0      	mov	r8, r6
  40614e:	f8dd b028 	ldr.w	fp, [sp, #40]	; 0x28
  406152:	9e09      	ldr	r6, [sp, #36]	; 0x24
  406154:	e006      	b.n	406164 <_svfprintf_r+0xcc8>
  406156:	f1a8 0810 	sub.w	r8, r8, #16
  40615a:	f1b8 0f10 	cmp.w	r8, #16
  40615e:	f109 0908 	add.w	r9, r9, #8
  406162:	dd1a      	ble.n	40619a <_svfprintf_r+0xcfe>
  406164:	3501      	adds	r5, #1
  406166:	3410      	adds	r4, #16
  406168:	2d07      	cmp	r5, #7
  40616a:	9425      	str	r4, [sp, #148]	; 0x94
  40616c:	9524      	str	r5, [sp, #144]	; 0x90
  40616e:	f8c9 a000 	str.w	sl, [r9]
  406172:	f8c9 7004 	str.w	r7, [r9, #4]
  406176:	ddee      	ble.n	406156 <_svfprintf_r+0xcba>
  406178:	aa23      	add	r2, sp, #140	; 0x8c
  40617a:	4631      	mov	r1, r6
  40617c:	4658      	mov	r0, fp
  40617e:	f004 fafd 	bl	40a77c <__ssprint_r>
  406182:	2800      	cmp	r0, #0
  406184:	f47f aa83 	bne.w	40568e <_svfprintf_r+0x1f2>
  406188:	f1a8 0810 	sub.w	r8, r8, #16
  40618c:	f1b8 0f10 	cmp.w	r8, #16
  406190:	9c25      	ldr	r4, [sp, #148]	; 0x94
  406192:	9d24      	ldr	r5, [sp, #144]	; 0x90
  406194:	f10d 09c0 	add.w	r9, sp, #192	; 0xc0
  406198:	dce4      	bgt.n	406164 <_svfprintf_r+0xcc8>
  40619a:	4646      	mov	r6, r8
  40619c:	f8dd 8034 	ldr.w	r8, [sp, #52]	; 0x34
  4061a0:	9b0f      	ldr	r3, [sp, #60]	; 0x3c
  4061a2:	3501      	adds	r5, #1
  4061a4:	4434      	add	r4, r6
  4061a6:	2d07      	cmp	r5, #7
  4061a8:	9425      	str	r4, [sp, #148]	; 0x94
  4061aa:	9524      	str	r5, [sp, #144]	; 0x90
  4061ac:	e889 0048 	stmia.w	r9, {r3, r6}
  4061b0:	f77f af0b 	ble.w	405fca <_svfprintf_r+0xb2e>
  4061b4:	aa23      	add	r2, sp, #140	; 0x8c
  4061b6:	9909      	ldr	r1, [sp, #36]	; 0x24
  4061b8:	980a      	ldr	r0, [sp, #40]	; 0x28
  4061ba:	f004 fadf 	bl	40a77c <__ssprint_r>
  4061be:	2800      	cmp	r0, #0
  4061c0:	f47f aa65 	bne.w	40568e <_svfprintf_r+0x1f2>
  4061c4:	9c25      	ldr	r4, [sp, #148]	; 0x94
  4061c6:	9d24      	ldr	r5, [sp, #144]	; 0x90
  4061c8:	f10d 09c0 	add.w	r9, sp, #192	; 0xc0
  4061cc:	e6ff      	b.n	405fce <_svfprintf_r+0xb32>
  4061ce:	9907      	ldr	r1, [sp, #28]
  4061d0:	f011 0210 	ands.w	r2, r1, #16
  4061d4:	f000 8108 	beq.w	4063e8 <_svfprintf_r+0xf4c>
  4061d8:	980e      	ldr	r0, [sp, #56]	; 0x38
  4061da:	f88d 306f 	strb.w	r3, [sp, #111]	; 0x6f
  4061de:	f1bb 0f00 	cmp.w	fp, #0
  4061e2:	6804      	ldr	r4, [r0, #0]
  4061e4:	f100 0704 	add.w	r7, r0, #4
  4061e8:	f04f 0500 	mov.w	r5, #0
  4061ec:	db26      	blt.n	40623c <_svfprintf_r+0xda0>
  4061ee:	460a      	mov	r2, r1
  4061f0:	f022 0280 	bic.w	r2, r2, #128	; 0x80
  4061f4:	9207      	str	r2, [sp, #28]
  4061f6:	ea54 0205 	orrs.w	r2, r4, r5
  4061fa:	970e      	str	r7, [sp, #56]	; 0x38
  4061fc:	461f      	mov	r7, r3
  4061fe:	f47f aaef 	bne.w	4057e0 <_svfprintf_r+0x344>
  406202:	e4c8      	b.n	405b96 <_svfprintf_r+0x6fa>
  406204:	9b07      	ldr	r3, [sp, #28]
  406206:	06d9      	lsls	r1, r3, #27
  406208:	d42a      	bmi.n	406260 <_svfprintf_r+0xdc4>
  40620a:	9b07      	ldr	r3, [sp, #28]
  40620c:	065a      	lsls	r2, r3, #25
  40620e:	d527      	bpl.n	406260 <_svfprintf_r+0xdc4>
  406210:	990e      	ldr	r1, [sp, #56]	; 0x38
  406212:	f9b1 4000 	ldrsh.w	r4, [r1]
  406216:	3104      	adds	r1, #4
  406218:	17e5      	asrs	r5, r4, #31
  40621a:	4622      	mov	r2, r4
  40621c:	462b      	mov	r3, r5
  40621e:	910e      	str	r1, [sp, #56]	; 0x38
  406220:	f7ff bacb 	b.w	4057ba <_svfprintf_r+0x31e>
  406224:	990e      	ldr	r1, [sp, #56]	; 0x38
  406226:	f88d 306f 	strb.w	r3, [sp, #111]	; 0x6f
  40622a:	f1bb 0f00 	cmp.w	fp, #0
  40622e:	680c      	ldr	r4, [r1, #0]
  406230:	f101 0704 	add.w	r7, r1, #4
  406234:	f04f 0500 	mov.w	r5, #0
  406238:	f280 8247 	bge.w	4066ca <_svfprintf_r+0x122e>
  40623c:	970e      	str	r7, [sp, #56]	; 0x38
  40623e:	461f      	mov	r7, r3
  406240:	ea54 0305 	orrs.w	r3, r4, r5
  406244:	f47f aacc 	bne.w	4057e0 <_svfprintf_r+0x344>
  406248:	e4aa      	b.n	405ba0 <_svfprintf_r+0x704>
  40624a:	3301      	adds	r3, #1
  40624c:	9a0f      	ldr	r2, [sp, #60]	; 0x3c
  40624e:	9324      	str	r3, [sp, #144]	; 0x90
  406250:	442c      	add	r4, r5
  406252:	2b07      	cmp	r3, #7
  406254:	9425      	str	r4, [sp, #148]	; 0x94
  406256:	e889 0024 	stmia.w	r9, {r2, r5}
  40625a:	f77f abad 	ble.w	4059b8 <_svfprintf_r+0x51c>
  40625e:	e6c3      	b.n	405fe8 <_svfprintf_r+0xb4c>
  406260:	9a0e      	ldr	r2, [sp, #56]	; 0x38
  406262:	6814      	ldr	r4, [r2, #0]
  406264:	4613      	mov	r3, r2
  406266:	3304      	adds	r3, #4
  406268:	17e5      	asrs	r5, r4, #31
  40626a:	4622      	mov	r2, r4
  40626c:	930e      	str	r3, [sp, #56]	; 0x38
  40626e:	2a00      	cmp	r2, #0
  406270:	462b      	mov	r3, r5
  406272:	f173 0300 	sbcs.w	r3, r3, #0
  406276:	f6bf aaa5 	bge.w	4057c4 <_svfprintf_r+0x328>
  40627a:	4264      	negs	r4, r4
  40627c:	f04f 072d 	mov.w	r7, #45	; 0x2d
  406280:	eb65 0545 	sbc.w	r5, r5, r5, lsl #1
  406284:	f1bb 0f00 	cmp.w	fp, #0
  406288:	f88d 706f 	strb.w	r7, [sp, #111]	; 0x6f
  40628c:	f6ff aaa8 	blt.w	4057e0 <_svfprintf_r+0x344>
  406290:	9b07      	ldr	r3, [sp, #28]
  406292:	f023 0380 	bic.w	r3, r3, #128	; 0x80
  406296:	9307      	str	r3, [sp, #28]
  406298:	f7ff baa2 	b.w	4057e0 <_svfprintf_r+0x344>
  40629c:	aa23      	add	r2, sp, #140	; 0x8c
  40629e:	9909      	ldr	r1, [sp, #36]	; 0x24
  4062a0:	980a      	ldr	r0, [sp, #40]	; 0x28
  4062a2:	f004 fa6b 	bl	40a77c <__ssprint_r>
  4062a6:	2800      	cmp	r0, #0
  4062a8:	f47f a9f1 	bne.w	40568e <_svfprintf_r+0x1f2>
  4062ac:	9c25      	ldr	r4, [sp, #148]	; 0x94
  4062ae:	f10d 09c0 	add.w	r9, sp, #192	; 0xc0
  4062b2:	9a13      	ldr	r2, [sp, #76]	; 0x4c
  4062b4:	9b1d      	ldr	r3, [sp, #116]	; 0x74
  4062b6:	4432      	add	r2, r6
  4062b8:	4617      	mov	r7, r2
  4062ba:	9a12      	ldr	r2, [sp, #72]	; 0x48
  4062bc:	4293      	cmp	r3, r2
  4062be:	db47      	blt.n	406350 <_svfprintf_r+0xeb4>
  4062c0:	9a07      	ldr	r2, [sp, #28]
  4062c2:	07d5      	lsls	r5, r2, #31
  4062c4:	d444      	bmi.n	406350 <_svfprintf_r+0xeb4>
  4062c6:	9912      	ldr	r1, [sp, #72]	; 0x48
  4062c8:	440e      	add	r6, r1
  4062ca:	1bf5      	subs	r5, r6, r7
  4062cc:	1acb      	subs	r3, r1, r3
  4062ce:	429d      	cmp	r5, r3
  4062d0:	bfa8      	it	ge
  4062d2:	461d      	movge	r5, r3
  4062d4:	2d00      	cmp	r5, #0
  4062d6:	462e      	mov	r6, r5
  4062d8:	dd0d      	ble.n	4062f6 <_svfprintf_r+0xe5a>
  4062da:	9a24      	ldr	r2, [sp, #144]	; 0x90
  4062dc:	f8c9 7000 	str.w	r7, [r9]
  4062e0:	3201      	adds	r2, #1
  4062e2:	442c      	add	r4, r5
  4062e4:	2a07      	cmp	r2, #7
  4062e6:	9425      	str	r4, [sp, #148]	; 0x94
  4062e8:	f8c9 5004 	str.w	r5, [r9, #4]
  4062ec:	9224      	str	r2, [sp, #144]	; 0x90
  4062ee:	f300 830b 	bgt.w	406908 <_svfprintf_r+0x146c>
  4062f2:	f109 0908 	add.w	r9, r9, #8
  4062f6:	2e00      	cmp	r6, #0
  4062f8:	bfac      	ite	ge
  4062fa:	1b9d      	subge	r5, r3, r6
  4062fc:	461d      	movlt	r5, r3
  4062fe:	2d00      	cmp	r5, #0
  406300:	f77f ab5c 	ble.w	4059bc <_svfprintf_r+0x520>
  406304:	4a2a      	ldr	r2, [pc, #168]	; (4063b0 <_svfprintf_r+0xf14>)
  406306:	9b24      	ldr	r3, [sp, #144]	; 0x90
  406308:	920f      	str	r2, [sp, #60]	; 0x3c
  40630a:	2d10      	cmp	r5, #16
  40630c:	dd9d      	ble.n	40624a <_svfprintf_r+0xdae>
  40630e:	2610      	movs	r6, #16
  406310:	9f0a      	ldr	r7, [sp, #40]	; 0x28
  406312:	f8dd b024 	ldr.w	fp, [sp, #36]	; 0x24
  406316:	e004      	b.n	406322 <_svfprintf_r+0xe86>
  406318:	f109 0908 	add.w	r9, r9, #8
  40631c:	3d10      	subs	r5, #16
  40631e:	2d10      	cmp	r5, #16
  406320:	dd93      	ble.n	40624a <_svfprintf_r+0xdae>
  406322:	3301      	adds	r3, #1
  406324:	3410      	adds	r4, #16
  406326:	2b07      	cmp	r3, #7
  406328:	9425      	str	r4, [sp, #148]	; 0x94
  40632a:	9324      	str	r3, [sp, #144]	; 0x90
  40632c:	f8c9 a000 	str.w	sl, [r9]
  406330:	f8c9 6004 	str.w	r6, [r9, #4]
  406334:	ddf0      	ble.n	406318 <_svfprintf_r+0xe7c>
  406336:	aa23      	add	r2, sp, #140	; 0x8c
  406338:	4659      	mov	r1, fp
  40633a:	4638      	mov	r0, r7
  40633c:	f004 fa1e 	bl	40a77c <__ssprint_r>
  406340:	2800      	cmp	r0, #0
  406342:	f47f a9a4 	bne.w	40568e <_svfprintf_r+0x1f2>
  406346:	9c25      	ldr	r4, [sp, #148]	; 0x94
  406348:	9b24      	ldr	r3, [sp, #144]	; 0x90
  40634a:	f10d 09c0 	add.w	r9, sp, #192	; 0xc0
  40634e:	e7e5      	b.n	40631c <_svfprintf_r+0xe80>
  406350:	9a24      	ldr	r2, [sp, #144]	; 0x90
  406352:	9816      	ldr	r0, [sp, #88]	; 0x58
  406354:	9917      	ldr	r1, [sp, #92]	; 0x5c
  406356:	f8c9 1000 	str.w	r1, [r9]
  40635a:	3201      	adds	r2, #1
  40635c:	4404      	add	r4, r0
  40635e:	2a07      	cmp	r2, #7
  406360:	9425      	str	r4, [sp, #148]	; 0x94
  406362:	f8c9 0004 	str.w	r0, [r9, #4]
  406366:	9224      	str	r2, [sp, #144]	; 0x90
  406368:	f300 82a9 	bgt.w	4068be <_svfprintf_r+0x1422>
  40636c:	f109 0908 	add.w	r9, r9, #8
  406370:	e7a9      	b.n	4062c6 <_svfprintf_r+0xe2a>
  406372:	9b07      	ldr	r3, [sp, #28]
  406374:	07d8      	lsls	r0, r3, #31
  406376:	f53f adf4 	bmi.w	405f62 <_svfprintf_r+0xac6>
  40637a:	3501      	adds	r5, #1
  40637c:	3401      	adds	r4, #1
  40637e:	2301      	movs	r3, #1
  406380:	2d07      	cmp	r5, #7
  406382:	9425      	str	r4, [sp, #148]	; 0x94
  406384:	9524      	str	r5, [sp, #144]	; 0x90
  406386:	f8c9 6000 	str.w	r6, [r9]
  40638a:	f8c9 3004 	str.w	r3, [r9, #4]
  40638e:	f77f ae1c 	ble.w	405fca <_svfprintf_r+0xb2e>
  406392:	e70f      	b.n	4061b4 <_svfprintf_r+0xd18>
  406394:	aa23      	add	r2, sp, #140	; 0x8c
  406396:	9909      	ldr	r1, [sp, #36]	; 0x24
  406398:	980a      	ldr	r0, [sp, #40]	; 0x28
  40639a:	f004 f9ef 	bl	40a77c <__ssprint_r>
  40639e:	2800      	cmp	r0, #0
  4063a0:	f47f a975 	bne.w	40568e <_svfprintf_r+0x1f2>
  4063a4:	9c25      	ldr	r4, [sp, #148]	; 0x94
  4063a6:	9d24      	ldr	r5, [sp, #144]	; 0x90
  4063a8:	f10d 09c0 	add.w	r9, sp, #192	; 0xc0
  4063ac:	e5e7      	b.n	405f7e <_svfprintf_r+0xae2>
  4063ae:	bf00      	nop
  4063b0:	0040cae8 	.word	0x0040cae8
  4063b4:	aa23      	add	r2, sp, #140	; 0x8c
  4063b6:	9909      	ldr	r1, [sp, #36]	; 0x24
  4063b8:	980a      	ldr	r0, [sp, #40]	; 0x28
  4063ba:	f004 f9df 	bl	40a77c <__ssprint_r>
  4063be:	2800      	cmp	r0, #0
  4063c0:	f47f a965 	bne.w	40568e <_svfprintf_r+0x1f2>
  4063c4:	9c25      	ldr	r4, [sp, #148]	; 0x94
  4063c6:	9d24      	ldr	r5, [sp, #144]	; 0x90
  4063c8:	f10d 09c0 	add.w	r9, sp, #192	; 0xc0
  4063cc:	e5e6      	b.n	405f9c <_svfprintf_r+0xb00>
  4063ce:	aa23      	add	r2, sp, #140	; 0x8c
  4063d0:	9909      	ldr	r1, [sp, #36]	; 0x24
  4063d2:	980a      	ldr	r0, [sp, #40]	; 0x28
  4063d4:	f004 f9d2 	bl	40a77c <__ssprint_r>
  4063d8:	2800      	cmp	r0, #0
  4063da:	f47f a958 	bne.w	40568e <_svfprintf_r+0x1f2>
  4063de:	9c25      	ldr	r4, [sp, #148]	; 0x94
  4063e0:	f10d 09c0 	add.w	r9, sp, #192	; 0xc0
  4063e4:	f7ff ba98 	b.w	405918 <_svfprintf_r+0x47c>
  4063e8:	9907      	ldr	r1, [sp, #28]
  4063ea:	f011 0340 	ands.w	r3, r1, #64	; 0x40
  4063ee:	f43f af19 	beq.w	406224 <_svfprintf_r+0xd88>
  4063f2:	980e      	ldr	r0, [sp, #56]	; 0x38
  4063f4:	f88d 206f 	strb.w	r2, [sp, #111]	; 0x6f
  4063f8:	f1bb 0f00 	cmp.w	fp, #0
  4063fc:	8804      	ldrh	r4, [r0, #0]
  4063fe:	f100 0704 	add.w	r7, r0, #4
  406402:	f04f 0500 	mov.w	r5, #0
  406406:	f2c0 81b9 	blt.w	40677c <_svfprintf_r+0x12e0>
  40640a:	f021 0380 	bic.w	r3, r1, #128	; 0x80
  40640e:	9307      	str	r3, [sp, #28]
  406410:	ea54 0305 	orrs.w	r3, r4, r5
  406414:	970e      	str	r7, [sp, #56]	; 0x38
  406416:	4617      	mov	r7, r2
  406418:	f47f a9e2 	bne.w	4057e0 <_svfprintf_r+0x344>
  40641c:	f7ff bbbb 	b.w	405b96 <_svfprintf_r+0x6fa>
  406420:	9c14      	ldr	r4, [sp, #80]	; 0x50
  406422:	4622      	mov	r2, r4
  406424:	4620      	mov	r0, r4
  406426:	9c15      	ldr	r4, [sp, #84]	; 0x54
  406428:	4623      	mov	r3, r4
  40642a:	4621      	mov	r1, r4
  40642c:	f005 f844 	bl	40b4b8 <__aeabi_dcmpun>
  406430:	2800      	cmp	r0, #0
  406432:	f040 8317 	bne.w	406a64 <_svfprintf_r+0x15c8>
  406436:	9b11      	ldr	r3, [sp, #68]	; 0x44
  406438:	f1bb 3fff 	cmp.w	fp, #4294967295
  40643c:	f023 0320 	bic.w	r3, r3, #32
  406440:	930d      	str	r3, [sp, #52]	; 0x34
  406442:	f000 8270 	beq.w	406926 <_svfprintf_r+0x148a>
  406446:	2b47      	cmp	r3, #71	; 0x47
  406448:	f000 8192 	beq.w	406770 <_svfprintf_r+0x12d4>
  40644c:	9b07      	ldr	r3, [sp, #28]
  40644e:	f443 7380 	orr.w	r3, r3, #256	; 0x100
  406452:	9310      	str	r3, [sp, #64]	; 0x40
  406454:	9b15      	ldr	r3, [sp, #84]	; 0x54
  406456:	1e1f      	subs	r7, r3, #0
  406458:	9b14      	ldr	r3, [sp, #80]	; 0x50
  40645a:	9308      	str	r3, [sp, #32]
  40645c:	bfbb      	ittet	lt
  40645e:	463b      	movlt	r3, r7
  406460:	f103 4700 	addlt.w	r7, r3, #2147483648	; 0x80000000
  406464:	2300      	movge	r3, #0
  406466:	232d      	movlt	r3, #45	; 0x2d
  406468:	930f      	str	r3, [sp, #60]	; 0x3c
  40646a:	9b11      	ldr	r3, [sp, #68]	; 0x44
  40646c:	2b66      	cmp	r3, #102	; 0x66
  40646e:	f000 825d 	beq.w	40692c <_svfprintf_r+0x1490>
  406472:	2b46      	cmp	r3, #70	; 0x46
  406474:	f000 8151 	beq.w	40671a <_svfprintf_r+0x127e>
  406478:	9b0d      	ldr	r3, [sp, #52]	; 0x34
  40647a:	9a08      	ldr	r2, [sp, #32]
  40647c:	2b45      	cmp	r3, #69	; 0x45
  40647e:	a821      	add	r0, sp, #132	; 0x84
  406480:	a91e      	add	r1, sp, #120	; 0x78
  406482:	bf0c      	ite	eq
  406484:	f10b 0501 	addeq.w	r5, fp, #1
  406488:	465d      	movne	r5, fp
  40648a:	9004      	str	r0, [sp, #16]
  40648c:	9103      	str	r1, [sp, #12]
  40648e:	a81d      	add	r0, sp, #116	; 0x74
  406490:	2102      	movs	r1, #2
  406492:	463b      	mov	r3, r7
  406494:	9002      	str	r0, [sp, #8]
  406496:	9501      	str	r5, [sp, #4]
  406498:	9100      	str	r1, [sp, #0]
  40649a:	980a      	ldr	r0, [sp, #40]	; 0x28
  40649c:	f001 fbc4 	bl	407c28 <_dtoa_r>
  4064a0:	9b11      	ldr	r3, [sp, #68]	; 0x44
  4064a2:	2b67      	cmp	r3, #103	; 0x67
  4064a4:	4606      	mov	r6, r0
  4064a6:	f040 8290 	bne.w	4069ca <_svfprintf_r+0x152e>
  4064aa:	9b07      	ldr	r3, [sp, #28]
  4064ac:	07da      	lsls	r2, r3, #31
  4064ae:	f140 82af 	bpl.w	406a10 <_svfprintf_r+0x1574>
  4064b2:	1974      	adds	r4, r6, r5
  4064b4:	9808      	ldr	r0, [sp, #32]
  4064b6:	4639      	mov	r1, r7
  4064b8:	2200      	movs	r2, #0
  4064ba:	2300      	movs	r3, #0
  4064bc:	f004 ffca 	bl	40b454 <__aeabi_dcmpeq>
  4064c0:	2800      	cmp	r0, #0
  4064c2:	f040 8190 	bne.w	4067e6 <_svfprintf_r+0x134a>
  4064c6:	9b21      	ldr	r3, [sp, #132]	; 0x84
  4064c8:	429c      	cmp	r4, r3
  4064ca:	d906      	bls.n	4064da <_svfprintf_r+0x103e>
  4064cc:	2130      	movs	r1, #48	; 0x30
  4064ce:	1c5a      	adds	r2, r3, #1
  4064d0:	9221      	str	r2, [sp, #132]	; 0x84
  4064d2:	7019      	strb	r1, [r3, #0]
  4064d4:	9b21      	ldr	r3, [sp, #132]	; 0x84
  4064d6:	429c      	cmp	r4, r3
  4064d8:	d8f9      	bhi.n	4064ce <_svfprintf_r+0x1032>
  4064da:	1b9b      	subs	r3, r3, r6
  4064dc:	9312      	str	r3, [sp, #72]	; 0x48
  4064de:	9b0d      	ldr	r3, [sp, #52]	; 0x34
  4064e0:	2b47      	cmp	r3, #71	; 0x47
  4064e2:	f000 8179 	beq.w	4067d8 <_svfprintf_r+0x133c>
  4064e6:	9b11      	ldr	r3, [sp, #68]	; 0x44
  4064e8:	2b65      	cmp	r3, #101	; 0x65
  4064ea:	f340 827d 	ble.w	4069e8 <_svfprintf_r+0x154c>
  4064ee:	9b11      	ldr	r3, [sp, #68]	; 0x44
  4064f0:	2b66      	cmp	r3, #102	; 0x66
  4064f2:	9b1d      	ldr	r3, [sp, #116]	; 0x74
  4064f4:	9313      	str	r3, [sp, #76]	; 0x4c
  4064f6:	f000 825b 	beq.w	4069b0 <_svfprintf_r+0x1514>
  4064fa:	9a13      	ldr	r2, [sp, #76]	; 0x4c
  4064fc:	9912      	ldr	r1, [sp, #72]	; 0x48
  4064fe:	428a      	cmp	r2, r1
  406500:	f2c0 8230 	blt.w	406964 <_svfprintf_r+0x14c8>
  406504:	9b07      	ldr	r3, [sp, #28]
  406506:	07d9      	lsls	r1, r3, #31
  406508:	f100 8284 	bmi.w	406a14 <_svfprintf_r+0x1578>
  40650c:	ea22 73e2 	bic.w	r3, r2, r2, asr #31
  406510:	920d      	str	r2, [sp, #52]	; 0x34
  406512:	2267      	movs	r2, #103	; 0x67
  406514:	9211      	str	r2, [sp, #68]	; 0x44
  406516:	9a0f      	ldr	r2, [sp, #60]	; 0x3c
  406518:	2a00      	cmp	r2, #0
  40651a:	f040 8153 	bne.w	4067c4 <_svfprintf_r+0x1328>
  40651e:	9308      	str	r3, [sp, #32]
  406520:	9b10      	ldr	r3, [sp, #64]	; 0x40
  406522:	9307      	str	r3, [sp, #28]
  406524:	4693      	mov	fp, r2
  406526:	f89d 706f 	ldrb.w	r7, [sp, #111]	; 0x6f
  40652a:	f7ff b97d 	b.w	405828 <_svfprintf_r+0x38c>
  40652e:	9907      	ldr	r1, [sp, #28]
  406530:	f011 0340 	ands.w	r3, r1, #64	; 0x40
  406534:	d015      	beq.n	406562 <_svfprintf_r+0x10c6>
  406536:	980e      	ldr	r0, [sp, #56]	; 0x38
  406538:	f88d 206f 	strb.w	r2, [sp, #111]	; 0x6f
  40653c:	f1bb 0f00 	cmp.w	fp, #0
  406540:	8804      	ldrh	r4, [r0, #0]
  406542:	f100 0704 	add.w	r7, r0, #4
  406546:	f04f 0500 	mov.w	r5, #0
  40654a:	db16      	blt.n	40657a <_svfprintf_r+0x10de>
  40654c:	f021 0380 	bic.w	r3, r1, #128	; 0x80
  406550:	9307      	str	r3, [sp, #28]
  406552:	ea54 0305 	orrs.w	r3, r4, r5
  406556:	970e      	str	r7, [sp, #56]	; 0x38
  406558:	f43f ac3a 	beq.w	405dd0 <_svfprintf_r+0x934>
  40655c:	4617      	mov	r7, r2
  40655e:	f7ff b8c2 	b.w	4056e6 <_svfprintf_r+0x24a>
  406562:	990e      	ldr	r1, [sp, #56]	; 0x38
  406564:	f88d 306f 	strb.w	r3, [sp, #111]	; 0x6f
  406568:	f1bb 0f00 	cmp.w	fp, #0
  40656c:	680c      	ldr	r4, [r1, #0]
  40656e:	f101 0704 	add.w	r7, r1, #4
  406572:	f04f 0500 	mov.w	r5, #0
  406576:	f280 80a5 	bge.w	4066c4 <_svfprintf_r+0x1228>
  40657a:	970e      	str	r7, [sp, #56]	; 0x38
  40657c:	2700      	movs	r7, #0
  40657e:	f7ff b8b2 	b.w	4056e6 <_svfprintf_r+0x24a>
  406582:	9b07      	ldr	r3, [sp, #28]
  406584:	06df      	lsls	r7, r3, #27
  406586:	d40b      	bmi.n	4065a0 <_svfprintf_r+0x1104>
  406588:	9b07      	ldr	r3, [sp, #28]
  40658a:	065e      	lsls	r6, r3, #25
  40658c:	d508      	bpl.n	4065a0 <_svfprintf_r+0x1104>
  40658e:	9a0e      	ldr	r2, [sp, #56]	; 0x38
  406590:	6813      	ldr	r3, [r2, #0]
  406592:	3204      	adds	r2, #4
  406594:	920e      	str	r2, [sp, #56]	; 0x38
  406596:	f8bd 202c 	ldrh.w	r2, [sp, #44]	; 0x2c
  40659a:	801a      	strh	r2, [r3, #0]
  40659c:	f7fe bfa4 	b.w	4054e8 <_svfprintf_r+0x4c>
  4065a0:	9a0e      	ldr	r2, [sp, #56]	; 0x38
  4065a2:	6813      	ldr	r3, [r2, #0]
  4065a4:	3204      	adds	r2, #4
  4065a6:	920e      	str	r2, [sp, #56]	; 0x38
  4065a8:	9a0b      	ldr	r2, [sp, #44]	; 0x2c
  4065aa:	601a      	str	r2, [r3, #0]
  4065ac:	f7fe bf9c 	b.w	4054e8 <_svfprintf_r+0x4c>
  4065b0:	9a0e      	ldr	r2, [sp, #56]	; 0x38
  4065b2:	9b07      	ldr	r3, [sp, #28]
  4065b4:	f013 0f40 	tst.w	r3, #64	; 0x40
  4065b8:	4613      	mov	r3, r2
  4065ba:	f103 0304 	add.w	r3, r3, #4
  4065be:	bf0c      	ite	eq
  4065c0:	6814      	ldreq	r4, [r2, #0]
  4065c2:	8814      	ldrhne	r4, [r2, #0]
  4065c4:	930e      	str	r3, [sp, #56]	; 0x38
  4065c6:	2500      	movs	r5, #0
  4065c8:	f7ff bb02 	b.w	405bd0 <_svfprintf_r+0x734>
  4065cc:	2700      	movs	r7, #0
  4065ce:	45bb      	cmp	fp, r7
  4065d0:	f88d 706f 	strb.w	r7, [sp, #111]	; 0x6f
  4065d4:	f6ff ac0e 	blt.w	405df4 <_svfprintf_r+0x958>
  4065d8:	9b07      	ldr	r3, [sp, #28]
  4065da:	f023 0380 	bic.w	r3, r3, #128	; 0x80
  4065de:	9307      	str	r3, [sp, #28]
  4065e0:	f7ff bbd6 	b.w	405d90 <_svfprintf_r+0x8f4>
  4065e4:	4614      	mov	r4, r2
  4065e6:	3301      	adds	r3, #1
  4065e8:	9a0f      	ldr	r2, [sp, #60]	; 0x3c
  4065ea:	9324      	str	r3, [sp, #144]	; 0x90
  4065ec:	442c      	add	r4, r5
  4065ee:	2b07      	cmp	r3, #7
  4065f0:	9425      	str	r4, [sp, #148]	; 0x94
  4065f2:	e889 0024 	stmia.w	r9, {r2, r5}
  4065f6:	f73f ae51 	bgt.w	40629c <_svfprintf_r+0xe00>
  4065fa:	f109 0908 	add.w	r9, r9, #8
  4065fe:	e658      	b.n	4062b2 <_svfprintf_r+0xe16>
  406600:	aa23      	add	r2, sp, #140	; 0x8c
  406602:	9909      	ldr	r1, [sp, #36]	; 0x24
  406604:	980a      	ldr	r0, [sp, #40]	; 0x28
  406606:	f004 f8b9 	bl	40a77c <__ssprint_r>
  40660a:	2800      	cmp	r0, #0
  40660c:	f47f a83f 	bne.w	40568e <_svfprintf_r+0x1f2>
  406610:	9c25      	ldr	r4, [sp, #148]	; 0x94
  406612:	f10d 09c0 	add.w	r9, sp, #192	; 0xc0
  406616:	e40f      	b.n	405e38 <_svfprintf_r+0x99c>
  406618:	9f0e      	ldr	r7, [sp, #56]	; 0x38
  40661a:	f7ff bbe4 	b.w	405de6 <_svfprintf_r+0x94a>
  40661e:	9b24      	ldr	r3, [sp, #144]	; 0x90
  406620:	4ab5      	ldr	r2, [pc, #724]	; (4068f8 <_svfprintf_r+0x145c>)
  406622:	f8c9 2000 	str.w	r2, [r9]
  406626:	3301      	adds	r3, #1
  406628:	3401      	adds	r4, #1
  40662a:	2201      	movs	r2, #1
  40662c:	2b07      	cmp	r3, #7
  40662e:	9425      	str	r4, [sp, #148]	; 0x94
  406630:	9324      	str	r3, [sp, #144]	; 0x90
  406632:	f8c9 2004 	str.w	r2, [r9, #4]
  406636:	f300 808e 	bgt.w	406756 <_svfprintf_r+0x12ba>
  40663a:	f109 0908 	add.w	r9, r9, #8
  40663e:	b92d      	cbnz	r5, 40664c <_svfprintf_r+0x11b0>
  406640:	9b12      	ldr	r3, [sp, #72]	; 0x48
  406642:	b91b      	cbnz	r3, 40664c <_svfprintf_r+0x11b0>
  406644:	9b07      	ldr	r3, [sp, #28]
  406646:	07df      	lsls	r7, r3, #31
  406648:	f57f a9b8 	bpl.w	4059bc <_svfprintf_r+0x520>
  40664c:	9b24      	ldr	r3, [sp, #144]	; 0x90
  40664e:	9916      	ldr	r1, [sp, #88]	; 0x58
  406650:	9a17      	ldr	r2, [sp, #92]	; 0x5c
  406652:	f8c9 2000 	str.w	r2, [r9]
  406656:	3301      	adds	r3, #1
  406658:	440c      	add	r4, r1
  40665a:	2b07      	cmp	r3, #7
  40665c:	9425      	str	r4, [sp, #148]	; 0x94
  40665e:	f8c9 1004 	str.w	r1, [r9, #4]
  406662:	9324      	str	r3, [sp, #144]	; 0x90
  406664:	f300 81c2 	bgt.w	4069ec <_svfprintf_r+0x1550>
  406668:	f109 0908 	add.w	r9, r9, #8
  40666c:	426d      	negs	r5, r5
  40666e:	2d00      	cmp	r5, #0
  406670:	f340 809b 	ble.w	4067aa <_svfprintf_r+0x130e>
  406674:	4aa1      	ldr	r2, [pc, #644]	; (4068fc <_svfprintf_r+0x1460>)
  406676:	920f      	str	r2, [sp, #60]	; 0x3c
  406678:	2d10      	cmp	r5, #16
  40667a:	f340 80c3 	ble.w	406804 <_svfprintf_r+0x1368>
  40667e:	4622      	mov	r2, r4
  406680:	2710      	movs	r7, #16
  406682:	f8dd b028 	ldr.w	fp, [sp, #40]	; 0x28
  406686:	9c09      	ldr	r4, [sp, #36]	; 0x24
  406688:	e005      	b.n	406696 <_svfprintf_r+0x11fa>
  40668a:	f109 0908 	add.w	r9, r9, #8
  40668e:	3d10      	subs	r5, #16
  406690:	2d10      	cmp	r5, #16
  406692:	f340 80b6 	ble.w	406802 <_svfprintf_r+0x1366>
  406696:	3301      	adds	r3, #1
  406698:	3210      	adds	r2, #16
  40669a:	2b07      	cmp	r3, #7
  40669c:	9225      	str	r2, [sp, #148]	; 0x94
  40669e:	9324      	str	r3, [sp, #144]	; 0x90
  4066a0:	f8c9 a000 	str.w	sl, [r9]
  4066a4:	f8c9 7004 	str.w	r7, [r9, #4]
  4066a8:	ddef      	ble.n	40668a <_svfprintf_r+0x11ee>
  4066aa:	aa23      	add	r2, sp, #140	; 0x8c
  4066ac:	4621      	mov	r1, r4
  4066ae:	4658      	mov	r0, fp
  4066b0:	f004 f864 	bl	40a77c <__ssprint_r>
  4066b4:	2800      	cmp	r0, #0
  4066b6:	f47e afea 	bne.w	40568e <_svfprintf_r+0x1f2>
  4066ba:	9a25      	ldr	r2, [sp, #148]	; 0x94
  4066bc:	9b24      	ldr	r3, [sp, #144]	; 0x90
  4066be:	f10d 09c0 	add.w	r9, sp, #192	; 0xc0
  4066c2:	e7e4      	b.n	40668e <_svfprintf_r+0x11f2>
  4066c4:	9a07      	ldr	r2, [sp, #28]
  4066c6:	f7ff ba38 	b.w	405b3a <_svfprintf_r+0x69e>
  4066ca:	9a07      	ldr	r2, [sp, #28]
  4066cc:	e590      	b.n	4061f0 <_svfprintf_r+0xd54>
  4066ce:	9b07      	ldr	r3, [sp, #28]
  4066d0:	f043 0320 	orr.w	r3, r3, #32
  4066d4:	9307      	str	r3, [sp, #28]
  4066d6:	f108 0801 	add.w	r8, r8, #1
  4066da:	f898 3000 	ldrb.w	r3, [r8]
  4066de:	f7fe bf36 	b.w	40554e <_svfprintf_r+0xb2>
  4066e2:	aa23      	add	r2, sp, #140	; 0x8c
  4066e4:	9909      	ldr	r1, [sp, #36]	; 0x24
  4066e6:	980a      	ldr	r0, [sp, #40]	; 0x28
  4066e8:	f004 f848 	bl	40a77c <__ssprint_r>
  4066ec:	2800      	cmp	r0, #0
  4066ee:	f47e afce 	bne.w	40568e <_svfprintf_r+0x1f2>
  4066f2:	9c25      	ldr	r4, [sp, #148]	; 0x94
  4066f4:	f10d 09c0 	add.w	r9, sp, #192	; 0xc0
  4066f8:	f7ff bbb6 	b.w	405e68 <_svfprintf_r+0x9cc>
  4066fc:	2140      	movs	r1, #64	; 0x40
  4066fe:	980a      	ldr	r0, [sp, #40]	; 0x28
  406700:	f002 fede 	bl	4094c0 <_malloc_r>
  406704:	9a09      	ldr	r2, [sp, #36]	; 0x24
  406706:	6010      	str	r0, [r2, #0]
  406708:	6110      	str	r0, [r2, #16]
  40670a:	2800      	cmp	r0, #0
  40670c:	f000 81e5 	beq.w	406ada <_svfprintf_r+0x163e>
  406710:	9a09      	ldr	r2, [sp, #36]	; 0x24
  406712:	2340      	movs	r3, #64	; 0x40
  406714:	6153      	str	r3, [r2, #20]
  406716:	f7fe bed8 	b.w	4054ca <_svfprintf_r+0x2e>
  40671a:	a821      	add	r0, sp, #132	; 0x84
  40671c:	a91e      	add	r1, sp, #120	; 0x78
  40671e:	9004      	str	r0, [sp, #16]
  406720:	9103      	str	r1, [sp, #12]
  406722:	a81d      	add	r0, sp, #116	; 0x74
  406724:	2103      	movs	r1, #3
  406726:	9002      	str	r0, [sp, #8]
  406728:	9a08      	ldr	r2, [sp, #32]
  40672a:	f8cd b004 	str.w	fp, [sp, #4]
  40672e:	463b      	mov	r3, r7
  406730:	9100      	str	r1, [sp, #0]
  406732:	980a      	ldr	r0, [sp, #40]	; 0x28
  406734:	f001 fa78 	bl	407c28 <_dtoa_r>
  406738:	465d      	mov	r5, fp
  40673a:	4606      	mov	r6, r0
  40673c:	9b11      	ldr	r3, [sp, #68]	; 0x44
  40673e:	2b46      	cmp	r3, #70	; 0x46
  406740:	eb06 0405 	add.w	r4, r6, r5
  406744:	f47f aeb6 	bne.w	4064b4 <_svfprintf_r+0x1018>
  406748:	7833      	ldrb	r3, [r6, #0]
  40674a:	2b30      	cmp	r3, #48	; 0x30
  40674c:	f000 817c 	beq.w	406a48 <_svfprintf_r+0x15ac>
  406750:	9d1d      	ldr	r5, [sp, #116]	; 0x74
  406752:	442c      	add	r4, r5
  406754:	e6ae      	b.n	4064b4 <_svfprintf_r+0x1018>
  406756:	aa23      	add	r2, sp, #140	; 0x8c
  406758:	9909      	ldr	r1, [sp, #36]	; 0x24
  40675a:	980a      	ldr	r0, [sp, #40]	; 0x28
  40675c:	f004 f80e 	bl	40a77c <__ssprint_r>
  406760:	2800      	cmp	r0, #0
  406762:	f47e af94 	bne.w	40568e <_svfprintf_r+0x1f2>
  406766:	9d1d      	ldr	r5, [sp, #116]	; 0x74
  406768:	9c25      	ldr	r4, [sp, #148]	; 0x94
  40676a:	f10d 09c0 	add.w	r9, sp, #192	; 0xc0
  40676e:	e766      	b.n	40663e <_svfprintf_r+0x11a2>
  406770:	f1bb 0f00 	cmp.w	fp, #0
  406774:	bf08      	it	eq
  406776:	f04f 0b01 	moveq.w	fp, #1
  40677a:	e667      	b.n	40644c <_svfprintf_r+0xfb0>
  40677c:	970e      	str	r7, [sp, #56]	; 0x38
  40677e:	4617      	mov	r7, r2
  406780:	e55e      	b.n	406240 <_svfprintf_r+0xda4>
  406782:	4630      	mov	r0, r6
  406784:	f7fe fe1c 	bl	4053c0 <strlen>
  406788:	46a3      	mov	fp, r4
  40678a:	4603      	mov	r3, r0
  40678c:	900d      	str	r0, [sp, #52]	; 0x34
  40678e:	f7ff baf4 	b.w	405d7a <_svfprintf_r+0x8de>
  406792:	aa23      	add	r2, sp, #140	; 0x8c
  406794:	9909      	ldr	r1, [sp, #36]	; 0x24
  406796:	980a      	ldr	r0, [sp, #40]	; 0x28
  406798:	f003 fff0 	bl	40a77c <__ssprint_r>
  40679c:	2800      	cmp	r0, #0
  40679e:	f47e af76 	bne.w	40568e <_svfprintf_r+0x1f2>
  4067a2:	9c25      	ldr	r4, [sp, #148]	; 0x94
  4067a4:	9b24      	ldr	r3, [sp, #144]	; 0x90
  4067a6:	f10d 09c0 	add.w	r9, sp, #192	; 0xc0
  4067aa:	9912      	ldr	r1, [sp, #72]	; 0x48
  4067ac:	f8c9 6000 	str.w	r6, [r9]
  4067b0:	3301      	adds	r3, #1
  4067b2:	440c      	add	r4, r1
  4067b4:	2b07      	cmp	r3, #7
  4067b6:	9425      	str	r4, [sp, #148]	; 0x94
  4067b8:	9324      	str	r3, [sp, #144]	; 0x90
  4067ba:	f8c9 1004 	str.w	r1, [r9, #4]
  4067be:	f77f a8fb 	ble.w	4059b8 <_svfprintf_r+0x51c>
  4067c2:	e411      	b.n	405fe8 <_svfprintf_r+0xb4c>
  4067c4:	272d      	movs	r7, #45	; 0x2d
  4067c6:	9308      	str	r3, [sp, #32]
  4067c8:	9b10      	ldr	r3, [sp, #64]	; 0x40
  4067ca:	9307      	str	r3, [sp, #28]
  4067cc:	f88d 706f 	strb.w	r7, [sp, #111]	; 0x6f
  4067d0:	f04f 0b00 	mov.w	fp, #0
  4067d4:	f7ff b829 	b.w	40582a <_svfprintf_r+0x38e>
  4067d8:	9b1d      	ldr	r3, [sp, #116]	; 0x74
  4067da:	1cdd      	adds	r5, r3, #3
  4067dc:	db1e      	blt.n	40681c <_svfprintf_r+0x1380>
  4067de:	459b      	cmp	fp, r3
  4067e0:	db1c      	blt.n	40681c <_svfprintf_r+0x1380>
  4067e2:	9313      	str	r3, [sp, #76]	; 0x4c
  4067e4:	e689      	b.n	4064fa <_svfprintf_r+0x105e>
  4067e6:	4623      	mov	r3, r4
  4067e8:	e677      	b.n	4064da <_svfprintf_r+0x103e>
  4067ea:	aa23      	add	r2, sp, #140	; 0x8c
  4067ec:	9909      	ldr	r1, [sp, #36]	; 0x24
  4067ee:	980a      	ldr	r0, [sp, #40]	; 0x28
  4067f0:	f003 ffc4 	bl	40a77c <__ssprint_r>
  4067f4:	2800      	cmp	r0, #0
  4067f6:	f47e af4a 	bne.w	40568e <_svfprintf_r+0x1f2>
  4067fa:	9c25      	ldr	r4, [sp, #148]	; 0x94
  4067fc:	f10d 09c0 	add.w	r9, sp, #192	; 0xc0
  406800:	e459      	b.n	4060b6 <_svfprintf_r+0xc1a>
  406802:	4614      	mov	r4, r2
  406804:	3301      	adds	r3, #1
  406806:	9a0f      	ldr	r2, [sp, #60]	; 0x3c
  406808:	9324      	str	r3, [sp, #144]	; 0x90
  40680a:	442c      	add	r4, r5
  40680c:	2b07      	cmp	r3, #7
  40680e:	9425      	str	r4, [sp, #148]	; 0x94
  406810:	e889 0024 	stmia.w	r9, {r2, r5}
  406814:	dcbd      	bgt.n	406792 <_svfprintf_r+0x12f6>
  406816:	f109 0908 	add.w	r9, r9, #8
  40681a:	e7c6      	b.n	4067aa <_svfprintf_r+0x130e>
  40681c:	9a11      	ldr	r2, [sp, #68]	; 0x44
  40681e:	3a02      	subs	r2, #2
  406820:	9211      	str	r2, [sp, #68]	; 0x44
  406822:	3b01      	subs	r3, #1
  406824:	2b00      	cmp	r3, #0
  406826:	f89d 2044 	ldrb.w	r2, [sp, #68]	; 0x44
  40682a:	931d      	str	r3, [sp, #116]	; 0x74
  40682c:	bfb8      	it	lt
  40682e:	425b      	neglt	r3, r3
  406830:	f88d 207c 	strb.w	r2, [sp, #124]	; 0x7c
  406834:	bfb4      	ite	lt
  406836:	222d      	movlt	r2, #45	; 0x2d
  406838:	222b      	movge	r2, #43	; 0x2b
  40683a:	2b09      	cmp	r3, #9
  40683c:	f88d 207d 	strb.w	r2, [sp, #125]	; 0x7d
  406840:	f340 80f1 	ble.w	406a26 <_svfprintf_r+0x158a>
  406844:	f10d 008b 	add.w	r0, sp, #139	; 0x8b
  406848:	4604      	mov	r4, r0
  40684a:	4a2d      	ldr	r2, [pc, #180]	; (406900 <_svfprintf_r+0x1464>)
  40684c:	fb82 2103 	smull	r2, r1, r2, r3
  406850:	17da      	asrs	r2, r3, #31
  406852:	ebc2 02a1 	rsb	r2, r2, r1, asr #2
  406856:	eb02 0182 	add.w	r1, r2, r2, lsl #2
  40685a:	eba3 0341 	sub.w	r3, r3, r1, lsl #1
  40685e:	f103 0130 	add.w	r1, r3, #48	; 0x30
  406862:	2a09      	cmp	r2, #9
  406864:	4613      	mov	r3, r2
  406866:	f804 1d01 	strb.w	r1, [r4, #-1]!
  40686a:	dcee      	bgt.n	40684a <_svfprintf_r+0x13ae>
  40686c:	4621      	mov	r1, r4
  40686e:	3330      	adds	r3, #48	; 0x30
  406870:	b2da      	uxtb	r2, r3
  406872:	f801 2d01 	strb.w	r2, [r1, #-1]!
  406876:	4288      	cmp	r0, r1
  406878:	f240 813a 	bls.w	406af0 <_svfprintf_r+0x1654>
  40687c:	f10d 017e 	add.w	r1, sp, #126	; 0x7e
  406880:	4623      	mov	r3, r4
  406882:	e001      	b.n	406888 <_svfprintf_r+0x13ec>
  406884:	f813 2b01 	ldrb.w	r2, [r3], #1
  406888:	f801 2b01 	strb.w	r2, [r1], #1
  40688c:	4298      	cmp	r0, r3
  40688e:	d1f9      	bne.n	406884 <_svfprintf_r+0x13e8>
  406890:	1c43      	adds	r3, r0, #1
  406892:	1b1b      	subs	r3, r3, r4
  406894:	f10d 027e 	add.w	r2, sp, #126	; 0x7e
  406898:	4413      	add	r3, r2
  40689a:	aa1f      	add	r2, sp, #124	; 0x7c
  40689c:	1a9b      	subs	r3, r3, r2
  40689e:	9a12      	ldr	r2, [sp, #72]	; 0x48
  4068a0:	9319      	str	r3, [sp, #100]	; 0x64
  4068a2:	2a01      	cmp	r2, #1
  4068a4:	4413      	add	r3, r2
  4068a6:	930d      	str	r3, [sp, #52]	; 0x34
  4068a8:	f340 80ea 	ble.w	406a80 <_svfprintf_r+0x15e4>
  4068ac:	9b0d      	ldr	r3, [sp, #52]	; 0x34
  4068ae:	9a16      	ldr	r2, [sp, #88]	; 0x58
  4068b0:	4413      	add	r3, r2
  4068b2:	2200      	movs	r2, #0
  4068b4:	930d      	str	r3, [sp, #52]	; 0x34
  4068b6:	9213      	str	r2, [sp, #76]	; 0x4c
  4068b8:	ea23 73e3 	bic.w	r3, r3, r3, asr #31
  4068bc:	e62b      	b.n	406516 <_svfprintf_r+0x107a>
  4068be:	aa23      	add	r2, sp, #140	; 0x8c
  4068c0:	9909      	ldr	r1, [sp, #36]	; 0x24
  4068c2:	980a      	ldr	r0, [sp, #40]	; 0x28
  4068c4:	f003 ff5a 	bl	40a77c <__ssprint_r>
  4068c8:	2800      	cmp	r0, #0
  4068ca:	f47e aee0 	bne.w	40568e <_svfprintf_r+0x1f2>
  4068ce:	9b1d      	ldr	r3, [sp, #116]	; 0x74
  4068d0:	9c25      	ldr	r4, [sp, #148]	; 0x94
  4068d2:	f10d 09c0 	add.w	r9, sp, #192	; 0xc0
  4068d6:	e4f6      	b.n	4062c6 <_svfprintf_r+0xe2a>
  4068d8:	2d06      	cmp	r5, #6
  4068da:	462b      	mov	r3, r5
  4068dc:	bf28      	it	cs
  4068de:	2306      	movcs	r3, #6
  4068e0:	930d      	str	r3, [sp, #52]	; 0x34
  4068e2:	ea23 73e3 	bic.w	r3, r3, r3, asr #31
  4068e6:	46b3      	mov	fp, r6
  4068e8:	970e      	str	r7, [sp, #56]	; 0x38
  4068ea:	9613      	str	r6, [sp, #76]	; 0x4c
  4068ec:	4637      	mov	r7, r6
  4068ee:	9308      	str	r3, [sp, #32]
  4068f0:	4e04      	ldr	r6, [pc, #16]	; (406904 <_svfprintf_r+0x1468>)
  4068f2:	f7fe bf99 	b.w	405828 <_svfprintf_r+0x38c>
  4068f6:	bf00      	nop
  4068f8:	0040cb38 	.word	0x0040cb38
  4068fc:	0040cae8 	.word	0x0040cae8
  406900:	66666667 	.word	0x66666667
  406904:	0040cb30 	.word	0x0040cb30
  406908:	aa23      	add	r2, sp, #140	; 0x8c
  40690a:	9909      	ldr	r1, [sp, #36]	; 0x24
  40690c:	980a      	ldr	r0, [sp, #40]	; 0x28
  40690e:	f003 ff35 	bl	40a77c <__ssprint_r>
  406912:	2800      	cmp	r0, #0
  406914:	f47e aebb 	bne.w	40568e <_svfprintf_r+0x1f2>
  406918:	9b1d      	ldr	r3, [sp, #116]	; 0x74
  40691a:	9a12      	ldr	r2, [sp, #72]	; 0x48
  40691c:	9c25      	ldr	r4, [sp, #148]	; 0x94
  40691e:	1ad3      	subs	r3, r2, r3
  406920:	f10d 09c0 	add.w	r9, sp, #192	; 0xc0
  406924:	e4e7      	b.n	4062f6 <_svfprintf_r+0xe5a>
  406926:	f04f 0b06 	mov.w	fp, #6
  40692a:	e58f      	b.n	40644c <_svfprintf_r+0xfb0>
  40692c:	a821      	add	r0, sp, #132	; 0x84
  40692e:	a91e      	add	r1, sp, #120	; 0x78
  406930:	9004      	str	r0, [sp, #16]
  406932:	9103      	str	r1, [sp, #12]
  406934:	a81d      	add	r0, sp, #116	; 0x74
  406936:	2103      	movs	r1, #3
  406938:	9002      	str	r0, [sp, #8]
  40693a:	9a08      	ldr	r2, [sp, #32]
  40693c:	f8cd b004 	str.w	fp, [sp, #4]
  406940:	463b      	mov	r3, r7
  406942:	9100      	str	r1, [sp, #0]
  406944:	980a      	ldr	r0, [sp, #40]	; 0x28
  406946:	f001 f96f 	bl	407c28 <_dtoa_r>
  40694a:	465d      	mov	r5, fp
  40694c:	4606      	mov	r6, r0
  40694e:	eb00 040b 	add.w	r4, r0, fp
  406952:	e6f9      	b.n	406748 <_svfprintf_r+0x12ac>
  406954:	9307      	str	r3, [sp, #28]
  406956:	f7ff b959 	b.w	405c0c <_svfprintf_r+0x770>
  40695a:	272d      	movs	r7, #45	; 0x2d
  40695c:	f88d 706f 	strb.w	r7, [sp, #111]	; 0x6f
  406960:	f7ff b8b2 	b.w	405ac8 <_svfprintf_r+0x62c>
  406964:	9a16      	ldr	r2, [sp, #88]	; 0x58
  406966:	9b12      	ldr	r3, [sp, #72]	; 0x48
  406968:	4413      	add	r3, r2
  40696a:	9a13      	ldr	r2, [sp, #76]	; 0x4c
  40696c:	930d      	str	r3, [sp, #52]	; 0x34
  40696e:	2a00      	cmp	r2, #0
  406970:	dd7e      	ble.n	406a70 <_svfprintf_r+0x15d4>
  406972:	2267      	movs	r2, #103	; 0x67
  406974:	ea23 73e3 	bic.w	r3, r3, r3, asr #31
  406978:	9211      	str	r2, [sp, #68]	; 0x44
  40697a:	e5cc      	b.n	406516 <_svfprintf_r+0x107a>
  40697c:	ea25 73e5 	bic.w	r3, r5, r5, asr #31
  406980:	970e      	str	r7, [sp, #56]	; 0x38
  406982:	9308      	str	r3, [sp, #32]
  406984:	950d      	str	r5, [sp, #52]	; 0x34
  406986:	4683      	mov	fp, r0
  406988:	9013      	str	r0, [sp, #76]	; 0x4c
  40698a:	f89d 706f 	ldrb.w	r7, [sp, #111]	; 0x6f
  40698e:	f7fe bf4b 	b.w	405828 <_svfprintf_r+0x38c>
  406992:	9b07      	ldr	r3, [sp, #28]
  406994:	07db      	lsls	r3, r3, #31
  406996:	465f      	mov	r7, fp
  406998:	d505      	bpl.n	4069a6 <_svfprintf_r+0x150a>
  40699a:	ae40      	add	r6, sp, #256	; 0x100
  40699c:	2330      	movs	r3, #48	; 0x30
  40699e:	f806 3d41 	strb.w	r3, [r6, #-65]!
  4069a2:	f7fe bf37 	b.w	405814 <_svfprintf_r+0x378>
  4069a6:	f8cd b034 	str.w	fp, [sp, #52]	; 0x34
  4069aa:	ae30      	add	r6, sp, #192	; 0xc0
  4069ac:	f7fe bf35 	b.w	40581a <_svfprintf_r+0x37e>
  4069b0:	2b00      	cmp	r3, #0
  4069b2:	dd7d      	ble.n	406ab0 <_svfprintf_r+0x1614>
  4069b4:	f1bb 0f00 	cmp.w	fp, #0
  4069b8:	d13d      	bne.n	406a36 <_svfprintf_r+0x159a>
  4069ba:	9a07      	ldr	r2, [sp, #28]
  4069bc:	07d4      	lsls	r4, r2, #31
  4069be:	d43a      	bmi.n	406a36 <_svfprintf_r+0x159a>
  4069c0:	461a      	mov	r2, r3
  4069c2:	920d      	str	r2, [sp, #52]	; 0x34
  4069c4:	ea23 73e3 	bic.w	r3, r3, r3, asr #31
  4069c8:	e5a5      	b.n	406516 <_svfprintf_r+0x107a>
  4069ca:	9b11      	ldr	r3, [sp, #68]	; 0x44
  4069cc:	2b47      	cmp	r3, #71	; 0x47
  4069ce:	f47f ad70 	bne.w	4064b2 <_svfprintf_r+0x1016>
  4069d2:	9b07      	ldr	r3, [sp, #28]
  4069d4:	07db      	lsls	r3, r3, #31
  4069d6:	f53f aeb1 	bmi.w	40673c <_svfprintf_r+0x12a0>
  4069da:	9b21      	ldr	r3, [sp, #132]	; 0x84
  4069dc:	1b9b      	subs	r3, r3, r6
  4069de:	9312      	str	r3, [sp, #72]	; 0x48
  4069e0:	9b0d      	ldr	r3, [sp, #52]	; 0x34
  4069e2:	2b47      	cmp	r3, #71	; 0x47
  4069e4:	f43f aef8 	beq.w	4067d8 <_svfprintf_r+0x133c>
  4069e8:	9b1d      	ldr	r3, [sp, #116]	; 0x74
  4069ea:	e71a      	b.n	406822 <_svfprintf_r+0x1386>
  4069ec:	aa23      	add	r2, sp, #140	; 0x8c
  4069ee:	9909      	ldr	r1, [sp, #36]	; 0x24
  4069f0:	980a      	ldr	r0, [sp, #40]	; 0x28
  4069f2:	f003 fec3 	bl	40a77c <__ssprint_r>
  4069f6:	2800      	cmp	r0, #0
  4069f8:	f47e ae49 	bne.w	40568e <_svfprintf_r+0x1f2>
  4069fc:	9d1d      	ldr	r5, [sp, #116]	; 0x74
  4069fe:	9c25      	ldr	r4, [sp, #148]	; 0x94
  406a00:	9b24      	ldr	r3, [sp, #144]	; 0x90
  406a02:	f10d 09c0 	add.w	r9, sp, #192	; 0xc0
  406a06:	e631      	b.n	40666c <_svfprintf_r+0x11d0>
  406a08:	46a0      	mov	r8, r4
  406a0a:	2500      	movs	r5, #0
  406a0c:	f7fe bda1 	b.w	405552 <_svfprintf_r+0xb6>
  406a10:	9b21      	ldr	r3, [sp, #132]	; 0x84
  406a12:	e562      	b.n	4064da <_svfprintf_r+0x103e>
  406a14:	9a16      	ldr	r2, [sp, #88]	; 0x58
  406a16:	9b13      	ldr	r3, [sp, #76]	; 0x4c
  406a18:	4413      	add	r3, r2
  406a1a:	2267      	movs	r2, #103	; 0x67
  406a1c:	930d      	str	r3, [sp, #52]	; 0x34
  406a1e:	9211      	str	r2, [sp, #68]	; 0x44
  406a20:	ea23 73e3 	bic.w	r3, r3, r3, asr #31
  406a24:	e577      	b.n	406516 <_svfprintf_r+0x107a>
  406a26:	3330      	adds	r3, #48	; 0x30
  406a28:	2230      	movs	r2, #48	; 0x30
  406a2a:	f88d 307f 	strb.w	r3, [sp, #127]	; 0x7f
  406a2e:	f88d 207e 	strb.w	r2, [sp, #126]	; 0x7e
  406a32:	ab20      	add	r3, sp, #128	; 0x80
  406a34:	e731      	b.n	40689a <_svfprintf_r+0x13fe>
  406a36:	9b13      	ldr	r3, [sp, #76]	; 0x4c
  406a38:	9a16      	ldr	r2, [sp, #88]	; 0x58
  406a3a:	189d      	adds	r5, r3, r2
  406a3c:	eb05 030b 	add.w	r3, r5, fp
  406a40:	930d      	str	r3, [sp, #52]	; 0x34
  406a42:	ea23 73e3 	bic.w	r3, r3, r3, asr #31
  406a46:	e566      	b.n	406516 <_svfprintf_r+0x107a>
  406a48:	9808      	ldr	r0, [sp, #32]
  406a4a:	4639      	mov	r1, r7
  406a4c:	2200      	movs	r2, #0
  406a4e:	2300      	movs	r3, #0
  406a50:	f004 fd00 	bl	40b454 <__aeabi_dcmpeq>
  406a54:	2800      	cmp	r0, #0
  406a56:	f47f ae7b 	bne.w	406750 <_svfprintf_r+0x12b4>
  406a5a:	f1c5 0501 	rsb	r5, r5, #1
  406a5e:	951d      	str	r5, [sp, #116]	; 0x74
  406a60:	442c      	add	r4, r5
  406a62:	e527      	b.n	4064b4 <_svfprintf_r+0x1018>
  406a64:	4e32      	ldr	r6, [pc, #200]	; (406b30 <_svfprintf_r+0x1694>)
  406a66:	4b33      	ldr	r3, [pc, #204]	; (406b34 <_svfprintf_r+0x1698>)
  406a68:	f89d 706f 	ldrb.w	r7, [sp, #111]	; 0x6f
  406a6c:	f7ff b82e 	b.w	405acc <_svfprintf_r+0x630>
  406a70:	9b13      	ldr	r3, [sp, #76]	; 0x4c
  406a72:	9a0d      	ldr	r2, [sp, #52]	; 0x34
  406a74:	f1c3 0301 	rsb	r3, r3, #1
  406a78:	441a      	add	r2, r3
  406a7a:	4613      	mov	r3, r2
  406a7c:	920d      	str	r2, [sp, #52]	; 0x34
  406a7e:	e778      	b.n	406972 <_svfprintf_r+0x14d6>
  406a80:	9b07      	ldr	r3, [sp, #28]
  406a82:	f013 0301 	ands.w	r3, r3, #1
  406a86:	f47f af11 	bne.w	4068ac <_svfprintf_r+0x1410>
  406a8a:	9313      	str	r3, [sp, #76]	; 0x4c
  406a8c:	9b0d      	ldr	r3, [sp, #52]	; 0x34
  406a8e:	ea23 73e3 	bic.w	r3, r3, r3, asr #31
  406a92:	e540      	b.n	406516 <_svfprintf_r+0x107a>
  406a94:	980e      	ldr	r0, [sp, #56]	; 0x38
  406a96:	f898 3001 	ldrb.w	r3, [r8, #1]
  406a9a:	6805      	ldr	r5, [r0, #0]
  406a9c:	3004      	adds	r0, #4
  406a9e:	2d00      	cmp	r5, #0
  406aa0:	900e      	str	r0, [sp, #56]	; 0x38
  406aa2:	46a0      	mov	r8, r4
  406aa4:	f6be ad53 	bge.w	40554e <_svfprintf_r+0xb2>
  406aa8:	f04f 35ff 	mov.w	r5, #4294967295
  406aac:	f7fe bd4f 	b.w	40554e <_svfprintf_r+0xb2>
  406ab0:	f1bb 0f00 	cmp.w	fp, #0
  406ab4:	d102      	bne.n	406abc <_svfprintf_r+0x1620>
  406ab6:	9b07      	ldr	r3, [sp, #28]
  406ab8:	07d8      	lsls	r0, r3, #31
  406aba:	d507      	bpl.n	406acc <_svfprintf_r+0x1630>
  406abc:	9b16      	ldr	r3, [sp, #88]	; 0x58
  406abe:	1c5d      	adds	r5, r3, #1
  406ac0:	eb05 030b 	add.w	r3, r5, fp
  406ac4:	930d      	str	r3, [sp, #52]	; 0x34
  406ac6:	ea23 73e3 	bic.w	r3, r3, r3, asr #31
  406aca:	e524      	b.n	406516 <_svfprintf_r+0x107a>
  406acc:	2301      	movs	r3, #1
  406ace:	930d      	str	r3, [sp, #52]	; 0x34
  406ad0:	e521      	b.n	406516 <_svfprintf_r+0x107a>
  406ad2:	f88d 106f 	strb.w	r1, [sp, #111]	; 0x6f
  406ad6:	f7ff b921 	b.w	405d1c <_svfprintf_r+0x880>
  406ada:	9a0a      	ldr	r2, [sp, #40]	; 0x28
  406adc:	230c      	movs	r3, #12
  406ade:	6013      	str	r3, [r2, #0]
  406ae0:	f04f 30ff 	mov.w	r0, #4294967295
  406ae4:	f7fe bddc 	b.w	4056a0 <_svfprintf_r+0x204>
  406ae8:	f88d 106f 	strb.w	r1, [sp, #111]	; 0x6f
  406aec:	f7ff b8f9 	b.w	405ce2 <_svfprintf_r+0x846>
  406af0:	f10d 037e 	add.w	r3, sp, #126	; 0x7e
  406af4:	e6d1      	b.n	40689a <_svfprintf_r+0x13fe>
  406af6:	f88d 106f 	strb.w	r1, [sp, #111]	; 0x6f
  406afa:	f7fe bdd9 	b.w	4056b0 <_svfprintf_r+0x214>
  406afe:	f88d 106f 	strb.w	r1, [sp, #111]	; 0x6f
  406b02:	f7ff b857 	b.w	405bb4 <_svfprintf_r+0x718>
  406b06:	f88d 106f 	strb.w	r1, [sp, #111]	; 0x6f
  406b0a:	f7ff b825 	b.w	405b58 <_svfprintf_r+0x6bc>
  406b0e:	f88d 106f 	strb.w	r1, [sp, #111]	; 0x6f
  406b12:	f7ff b94c 	b.w	405dae <_svfprintf_r+0x912>
  406b16:	f88d 106f 	strb.w	r1, [sp, #111]	; 0x6f
  406b1a:	f7fe bff3 	b.w	405b04 <_svfprintf_r+0x668>
  406b1e:	f88d 106f 	strb.w	r1, [sp, #111]	; 0x6f
  406b22:	f7fe bfa3 	b.w	405a6c <_svfprintf_r+0x5d0>
  406b26:	f88d 106f 	strb.w	r1, [sp, #111]	; 0x6f
  406b2a:	f7fe be33 	b.w	405794 <_svfprintf_r+0x2f8>
  406b2e:	bf00      	nop
  406b30:	0040cb04 	.word	0x0040cb04
  406b34:	0040cb00 	.word	0x0040cb00

00406b38 <__sprint_r.part.0>:
  406b38:	6e4b      	ldr	r3, [r1, #100]	; 0x64
  406b3a:	e92d 47f0 	stmdb	sp!, {r4, r5, r6, r7, r8, r9, sl, lr}
  406b3e:	049c      	lsls	r4, r3, #18
  406b40:	4692      	mov	sl, r2
  406b42:	d52c      	bpl.n	406b9e <__sprint_r.part.0+0x66>
  406b44:	6893      	ldr	r3, [r2, #8]
  406b46:	6812      	ldr	r2, [r2, #0]
  406b48:	b33b      	cbz	r3, 406b9a <__sprint_r.part.0+0x62>
  406b4a:	460f      	mov	r7, r1
  406b4c:	4680      	mov	r8, r0
  406b4e:	f102 0908 	add.w	r9, r2, #8
  406b52:	e919 0060 	ldmdb	r9, {r5, r6}
  406b56:	08b6      	lsrs	r6, r6, #2
  406b58:	d017      	beq.n	406b8a <__sprint_r.part.0+0x52>
  406b5a:	3d04      	subs	r5, #4
  406b5c:	2400      	movs	r4, #0
  406b5e:	e001      	b.n	406b64 <__sprint_r.part.0+0x2c>
  406b60:	42a6      	cmp	r6, r4
  406b62:	d010      	beq.n	406b86 <__sprint_r.part.0+0x4e>
  406b64:	463a      	mov	r2, r7
  406b66:	f855 1f04 	ldr.w	r1, [r5, #4]!
  406b6a:	4640      	mov	r0, r8
  406b6c:	f002 f92a 	bl	408dc4 <_fputwc_r>
  406b70:	1c43      	adds	r3, r0, #1
  406b72:	f104 0401 	add.w	r4, r4, #1
  406b76:	d1f3      	bne.n	406b60 <__sprint_r.part.0+0x28>
  406b78:	2300      	movs	r3, #0
  406b7a:	f8ca 3008 	str.w	r3, [sl, #8]
  406b7e:	f8ca 3004 	str.w	r3, [sl, #4]
  406b82:	e8bd 87f0 	ldmia.w	sp!, {r4, r5, r6, r7, r8, r9, sl, pc}
  406b86:	f8da 3008 	ldr.w	r3, [sl, #8]
  406b8a:	eba3 0386 	sub.w	r3, r3, r6, lsl #2
  406b8e:	f8ca 3008 	str.w	r3, [sl, #8]
  406b92:	f109 0908 	add.w	r9, r9, #8
  406b96:	2b00      	cmp	r3, #0
  406b98:	d1db      	bne.n	406b52 <__sprint_r.part.0+0x1a>
  406b9a:	2000      	movs	r0, #0
  406b9c:	e7ec      	b.n	406b78 <__sprint_r.part.0+0x40>
  406b9e:	f002 fa59 	bl	409054 <__sfvwrite_r>
  406ba2:	2300      	movs	r3, #0
  406ba4:	f8ca 3008 	str.w	r3, [sl, #8]
  406ba8:	f8ca 3004 	str.w	r3, [sl, #4]
  406bac:	e8bd 87f0 	ldmia.w	sp!, {r4, r5, r6, r7, r8, r9, sl, pc}

00406bb0 <_vfiprintf_r>:
  406bb0:	e92d 4ff0 	stmdb	sp!, {r4, r5, r6, r7, r8, r9, sl, fp, lr}
  406bb4:	b0ab      	sub	sp, #172	; 0xac
  406bb6:	461c      	mov	r4, r3
  406bb8:	9100      	str	r1, [sp, #0]
  406bba:	4690      	mov	r8, r2
  406bbc:	9304      	str	r3, [sp, #16]
  406bbe:	9005      	str	r0, [sp, #20]
  406bc0:	b118      	cbz	r0, 406bca <_vfiprintf_r+0x1a>
  406bc2:	6b83      	ldr	r3, [r0, #56]	; 0x38
  406bc4:	2b00      	cmp	r3, #0
  406bc6:	f000 80de 	beq.w	406d86 <_vfiprintf_r+0x1d6>
  406bca:	9800      	ldr	r0, [sp, #0]
  406bcc:	f9b0 100c 	ldrsh.w	r1, [r0, #12]
  406bd0:	b28a      	uxth	r2, r1
  406bd2:	0495      	lsls	r5, r2, #18
  406bd4:	d407      	bmi.n	406be6 <_vfiprintf_r+0x36>
  406bd6:	6e43      	ldr	r3, [r0, #100]	; 0x64
  406bd8:	f441 5200 	orr.w	r2, r1, #8192	; 0x2000
  406bdc:	f423 5300 	bic.w	r3, r3, #8192	; 0x2000
  406be0:	8182      	strh	r2, [r0, #12]
  406be2:	6643      	str	r3, [r0, #100]	; 0x64
  406be4:	b292      	uxth	r2, r2
  406be6:	0711      	lsls	r1, r2, #28
  406be8:	f140 80b1 	bpl.w	406d4e <_vfiprintf_r+0x19e>
  406bec:	9b00      	ldr	r3, [sp, #0]
  406bee:	691b      	ldr	r3, [r3, #16]
  406bf0:	2b00      	cmp	r3, #0
  406bf2:	f000 80ac 	beq.w	406d4e <_vfiprintf_r+0x19e>
  406bf6:	f002 021a 	and.w	r2, r2, #26
  406bfa:	2a0a      	cmp	r2, #10
  406bfc:	f000 80b5 	beq.w	406d6a <_vfiprintf_r+0x1ba>
  406c00:	2300      	movs	r3, #0
  406c02:	f10d 0b68 	add.w	fp, sp, #104	; 0x68
  406c06:	9302      	str	r3, [sp, #8]
  406c08:	930f      	str	r3, [sp, #60]	; 0x3c
  406c0a:	930e      	str	r3, [sp, #56]	; 0x38
  406c0c:	f8cd b034 	str.w	fp, [sp, #52]	; 0x34
  406c10:	46da      	mov	sl, fp
  406c12:	f898 3000 	ldrb.w	r3, [r8]
  406c16:	4644      	mov	r4, r8
  406c18:	b1fb      	cbz	r3, 406c5a <_vfiprintf_r+0xaa>
  406c1a:	2b25      	cmp	r3, #37	; 0x25
  406c1c:	d102      	bne.n	406c24 <_vfiprintf_r+0x74>
  406c1e:	e01c      	b.n	406c5a <_vfiprintf_r+0xaa>
  406c20:	2b25      	cmp	r3, #37	; 0x25
  406c22:	d003      	beq.n	406c2c <_vfiprintf_r+0x7c>
  406c24:	f814 3f01 	ldrb.w	r3, [r4, #1]!
  406c28:	2b00      	cmp	r3, #0
  406c2a:	d1f9      	bne.n	406c20 <_vfiprintf_r+0x70>
  406c2c:	ebc8 0504 	rsb	r5, r8, r4
  406c30:	b19d      	cbz	r5, 406c5a <_vfiprintf_r+0xaa>
  406c32:	9b0e      	ldr	r3, [sp, #56]	; 0x38
  406c34:	9a0f      	ldr	r2, [sp, #60]	; 0x3c
  406c36:	f8ca 8000 	str.w	r8, [sl]
  406c3a:	3301      	adds	r3, #1
  406c3c:	442a      	add	r2, r5
  406c3e:	2b07      	cmp	r3, #7
  406c40:	f8ca 5004 	str.w	r5, [sl, #4]
  406c44:	920f      	str	r2, [sp, #60]	; 0x3c
  406c46:	930e      	str	r3, [sp, #56]	; 0x38
  406c48:	dd7b      	ble.n	406d42 <_vfiprintf_r+0x192>
  406c4a:	2a00      	cmp	r2, #0
  406c4c:	f040 8528 	bne.w	4076a0 <_vfiprintf_r+0xaf0>
  406c50:	9b02      	ldr	r3, [sp, #8]
  406c52:	920e      	str	r2, [sp, #56]	; 0x38
  406c54:	442b      	add	r3, r5
  406c56:	46da      	mov	sl, fp
  406c58:	9302      	str	r3, [sp, #8]
  406c5a:	7823      	ldrb	r3, [r4, #0]
  406c5c:	2b00      	cmp	r3, #0
  406c5e:	f000 843e 	beq.w	4074de <_vfiprintf_r+0x92e>
  406c62:	2100      	movs	r1, #0
  406c64:	f04f 0300 	mov.w	r3, #0
  406c68:	f04f 32ff 	mov.w	r2, #4294967295
  406c6c:	f88d 302f 	strb.w	r3, [sp, #47]	; 0x2f
  406c70:	f104 0801 	add.w	r8, r4, #1
  406c74:	7863      	ldrb	r3, [r4, #1]
  406c76:	9201      	str	r2, [sp, #4]
  406c78:	4608      	mov	r0, r1
  406c7a:	460e      	mov	r6, r1
  406c7c:	460c      	mov	r4, r1
  406c7e:	f108 0801 	add.w	r8, r8, #1
  406c82:	f1a3 0220 	sub.w	r2, r3, #32
  406c86:	2a58      	cmp	r2, #88	; 0x58
  406c88:	f200 8393 	bhi.w	4073b2 <_vfiprintf_r+0x802>
  406c8c:	e8df f012 	tbh	[pc, r2, lsl #1]
  406c90:	03910346 	.word	0x03910346
  406c94:	034e0391 	.word	0x034e0391
  406c98:	03910391 	.word	0x03910391
  406c9c:	03910391 	.word	0x03910391
  406ca0:	03910391 	.word	0x03910391
  406ca4:	02670289 	.word	0x02670289
  406ca8:	00800391 	.word	0x00800391
  406cac:	0391026c 	.word	0x0391026c
  406cb0:	025901c6 	.word	0x025901c6
  406cb4:	02590259 	.word	0x02590259
  406cb8:	02590259 	.word	0x02590259
  406cbc:	02590259 	.word	0x02590259
  406cc0:	02590259 	.word	0x02590259
  406cc4:	03910391 	.word	0x03910391
  406cc8:	03910391 	.word	0x03910391
  406ccc:	03910391 	.word	0x03910391
  406cd0:	03910391 	.word	0x03910391
  406cd4:	03910391 	.word	0x03910391
  406cd8:	039101cb 	.word	0x039101cb
  406cdc:	03910391 	.word	0x03910391
  406ce0:	03910391 	.word	0x03910391
  406ce4:	03910391 	.word	0x03910391
  406ce8:	03910391 	.word	0x03910391
  406cec:	02140391 	.word	0x02140391
  406cf0:	03910391 	.word	0x03910391
  406cf4:	03910391 	.word	0x03910391
  406cf8:	02ee0391 	.word	0x02ee0391
  406cfc:	03910391 	.word	0x03910391
  406d00:	03910311 	.word	0x03910311
  406d04:	03910391 	.word	0x03910391
  406d08:	03910391 	.word	0x03910391
  406d0c:	03910391 	.word	0x03910391
  406d10:	03910391 	.word	0x03910391
  406d14:	03340391 	.word	0x03340391
  406d18:	0391038a 	.word	0x0391038a
  406d1c:	03910391 	.word	0x03910391
  406d20:	038a0367 	.word	0x038a0367
  406d24:	03910391 	.word	0x03910391
  406d28:	0391036c 	.word	0x0391036c
  406d2c:	02950379 	.word	0x02950379
  406d30:	02e90085 	.word	0x02e90085
  406d34:	029b0391 	.word	0x029b0391
  406d38:	02ba0391 	.word	0x02ba0391
  406d3c:	03910391 	.word	0x03910391
  406d40:	0353      	.short	0x0353
  406d42:	f10a 0a08 	add.w	sl, sl, #8
  406d46:	9b02      	ldr	r3, [sp, #8]
  406d48:	442b      	add	r3, r5
  406d4a:	9302      	str	r3, [sp, #8]
  406d4c:	e785      	b.n	406c5a <_vfiprintf_r+0xaa>
  406d4e:	9900      	ldr	r1, [sp, #0]
  406d50:	9805      	ldr	r0, [sp, #20]
  406d52:	f000 fe61 	bl	407a18 <__swsetup_r>
  406d56:	2800      	cmp	r0, #0
  406d58:	f040 8558 	bne.w	40780c <_vfiprintf_r+0xc5c>
  406d5c:	9b00      	ldr	r3, [sp, #0]
  406d5e:	899a      	ldrh	r2, [r3, #12]
  406d60:	f002 021a 	and.w	r2, r2, #26
  406d64:	2a0a      	cmp	r2, #10
  406d66:	f47f af4b 	bne.w	406c00 <_vfiprintf_r+0x50>
  406d6a:	9900      	ldr	r1, [sp, #0]
  406d6c:	f9b1 300e 	ldrsh.w	r3, [r1, #14]
  406d70:	2b00      	cmp	r3, #0
  406d72:	f6ff af45 	blt.w	406c00 <_vfiprintf_r+0x50>
  406d76:	4623      	mov	r3, r4
  406d78:	4642      	mov	r2, r8
  406d7a:	9805      	ldr	r0, [sp, #20]
  406d7c:	f000 fe16 	bl	4079ac <__sbprintf>
  406d80:	b02b      	add	sp, #172	; 0xac
  406d82:	e8bd 8ff0 	ldmia.w	sp!, {r4, r5, r6, r7, r8, r9, sl, fp, pc}
  406d86:	f001 ffb3 	bl	408cf0 <__sinit>
  406d8a:	e71e      	b.n	406bca <_vfiprintf_r+0x1a>
  406d8c:	4264      	negs	r4, r4
  406d8e:	9304      	str	r3, [sp, #16]
  406d90:	f046 0604 	orr.w	r6, r6, #4
  406d94:	f898 3000 	ldrb.w	r3, [r8]
  406d98:	e771      	b.n	406c7e <_vfiprintf_r+0xce>
  406d9a:	2130      	movs	r1, #48	; 0x30
  406d9c:	9804      	ldr	r0, [sp, #16]
  406d9e:	f88d 1030 	strb.w	r1, [sp, #48]	; 0x30
  406da2:	9901      	ldr	r1, [sp, #4]
  406da4:	9406      	str	r4, [sp, #24]
  406da6:	f04f 0300 	mov.w	r3, #0
  406daa:	2278      	movs	r2, #120	; 0x78
  406dac:	f88d 302f 	strb.w	r3, [sp, #47]	; 0x2f
  406db0:	2900      	cmp	r1, #0
  406db2:	4603      	mov	r3, r0
  406db4:	f88d 2031 	strb.w	r2, [sp, #49]	; 0x31
  406db8:	6804      	ldr	r4, [r0, #0]
  406dba:	f103 0304 	add.w	r3, r3, #4
  406dbe:	f04f 0500 	mov.w	r5, #0
  406dc2:	f046 0202 	orr.w	r2, r6, #2
  406dc6:	f2c0 8525 	blt.w	407814 <_vfiprintf_r+0xc64>
  406dca:	f026 0680 	bic.w	r6, r6, #128	; 0x80
  406dce:	ea54 0205 	orrs.w	r2, r4, r5
  406dd2:	f046 0602 	orr.w	r6, r6, #2
  406dd6:	9304      	str	r3, [sp, #16]
  406dd8:	f040 84bf 	bne.w	40775a <_vfiprintf_r+0xbaa>
  406ddc:	48b3      	ldr	r0, [pc, #716]	; (4070ac <_vfiprintf_r+0x4fc>)
  406dde:	9b01      	ldr	r3, [sp, #4]
  406de0:	2b00      	cmp	r3, #0
  406de2:	f040 841c 	bne.w	40761e <_vfiprintf_r+0xa6e>
  406de6:	4699      	mov	r9, r3
  406de8:	2300      	movs	r3, #0
  406dea:	9301      	str	r3, [sp, #4]
  406dec:	9303      	str	r3, [sp, #12]
  406dee:	465f      	mov	r7, fp
  406df0:	9b01      	ldr	r3, [sp, #4]
  406df2:	9a03      	ldr	r2, [sp, #12]
  406df4:	4293      	cmp	r3, r2
  406df6:	bfb8      	it	lt
  406df8:	4613      	movlt	r3, r2
  406dfa:	461d      	mov	r5, r3
  406dfc:	f1b9 0f00 	cmp.w	r9, #0
  406e00:	d000      	beq.n	406e04 <_vfiprintf_r+0x254>
  406e02:	3501      	adds	r5, #1
  406e04:	f016 0302 	ands.w	r3, r6, #2
  406e08:	9307      	str	r3, [sp, #28]
  406e0a:	bf18      	it	ne
  406e0c:	3502      	addne	r5, #2
  406e0e:	f016 0384 	ands.w	r3, r6, #132	; 0x84
  406e12:	9308      	str	r3, [sp, #32]
  406e14:	f040 82f1 	bne.w	4073fa <_vfiprintf_r+0x84a>
  406e18:	9b06      	ldr	r3, [sp, #24]
  406e1a:	1b5c      	subs	r4, r3, r5
  406e1c:	2c00      	cmp	r4, #0
  406e1e:	f340 82ec 	ble.w	4073fa <_vfiprintf_r+0x84a>
  406e22:	2c10      	cmp	r4, #16
  406e24:	f340 8556 	ble.w	4078d4 <_vfiprintf_r+0xd24>
  406e28:	f8df 9284 	ldr.w	r9, [pc, #644]	; 4070b0 <_vfiprintf_r+0x500>
  406e2c:	f8dd e038 	ldr.w	lr, [sp, #56]	; 0x38
  406e30:	9a0f      	ldr	r2, [sp, #60]	; 0x3c
  406e32:	46d4      	mov	ip, sl
  406e34:	2310      	movs	r3, #16
  406e36:	46c2      	mov	sl, r8
  406e38:	4670      	mov	r0, lr
  406e3a:	46a8      	mov	r8, r5
  406e3c:	464d      	mov	r5, r9
  406e3e:	f8dd 9014 	ldr.w	r9, [sp, #20]
  406e42:	e007      	b.n	406e54 <_vfiprintf_r+0x2a4>
  406e44:	f100 0e02 	add.w	lr, r0, #2
  406e48:	f10c 0c08 	add.w	ip, ip, #8
  406e4c:	4608      	mov	r0, r1
  406e4e:	3c10      	subs	r4, #16
  406e50:	2c10      	cmp	r4, #16
  406e52:	dd13      	ble.n	406e7c <_vfiprintf_r+0x2cc>
  406e54:	1c41      	adds	r1, r0, #1
  406e56:	3210      	adds	r2, #16
  406e58:	2907      	cmp	r1, #7
  406e5a:	920f      	str	r2, [sp, #60]	; 0x3c
  406e5c:	f8cc 5000 	str.w	r5, [ip]
  406e60:	f8cc 3004 	str.w	r3, [ip, #4]
  406e64:	910e      	str	r1, [sp, #56]	; 0x38
  406e66:	dded      	ble.n	406e44 <_vfiprintf_r+0x294>
  406e68:	2a00      	cmp	r2, #0
  406e6a:	f040 82b7 	bne.w	4073dc <_vfiprintf_r+0x82c>
  406e6e:	3c10      	subs	r4, #16
  406e70:	2c10      	cmp	r4, #16
  406e72:	4610      	mov	r0, r2
  406e74:	f04f 0e01 	mov.w	lr, #1
  406e78:	46dc      	mov	ip, fp
  406e7a:	dceb      	bgt.n	406e54 <_vfiprintf_r+0x2a4>
  406e7c:	46a9      	mov	r9, r5
  406e7e:	4670      	mov	r0, lr
  406e80:	4645      	mov	r5, r8
  406e82:	46d0      	mov	r8, sl
  406e84:	46e2      	mov	sl, ip
  406e86:	4422      	add	r2, r4
  406e88:	2807      	cmp	r0, #7
  406e8a:	920f      	str	r2, [sp, #60]	; 0x3c
  406e8c:	f8ca 9000 	str.w	r9, [sl]
  406e90:	f8ca 4004 	str.w	r4, [sl, #4]
  406e94:	900e      	str	r0, [sp, #56]	; 0x38
  406e96:	f300 8375 	bgt.w	407584 <_vfiprintf_r+0x9d4>
  406e9a:	f89d 302f 	ldrb.w	r3, [sp, #47]	; 0x2f
  406e9e:	f10a 0a08 	add.w	sl, sl, #8
  406ea2:	f100 0e01 	add.w	lr, r0, #1
  406ea6:	2b00      	cmp	r3, #0
  406ea8:	f040 82b0 	bne.w	40740c <_vfiprintf_r+0x85c>
  406eac:	9b07      	ldr	r3, [sp, #28]
  406eae:	2b00      	cmp	r3, #0
  406eb0:	f000 82c3 	beq.w	40743a <_vfiprintf_r+0x88a>
  406eb4:	3202      	adds	r2, #2
  406eb6:	a90c      	add	r1, sp, #48	; 0x30
  406eb8:	2302      	movs	r3, #2
  406eba:	f1be 0f07 	cmp.w	lr, #7
  406ebe:	920f      	str	r2, [sp, #60]	; 0x3c
  406ec0:	f8cd e038 	str.w	lr, [sp, #56]	; 0x38
  406ec4:	e88a 000a 	stmia.w	sl, {r1, r3}
  406ec8:	f340 8378 	ble.w	4075bc <_vfiprintf_r+0xa0c>
  406ecc:	2a00      	cmp	r2, #0
  406ece:	f040 840a 	bne.w	4076e6 <_vfiprintf_r+0xb36>
  406ed2:	9b08      	ldr	r3, [sp, #32]
  406ed4:	2b80      	cmp	r3, #128	; 0x80
  406ed6:	f04f 0e01 	mov.w	lr, #1
  406eda:	4610      	mov	r0, r2
  406edc:	46da      	mov	sl, fp
  406ede:	f040 82b0 	bne.w	407442 <_vfiprintf_r+0x892>
  406ee2:	9b06      	ldr	r3, [sp, #24]
  406ee4:	1b5c      	subs	r4, r3, r5
  406ee6:	2c00      	cmp	r4, #0
  406ee8:	f340 82ab 	ble.w	407442 <_vfiprintf_r+0x892>
  406eec:	2c10      	cmp	r4, #16
  406eee:	f8df 91c4 	ldr.w	r9, [pc, #452]	; 4070b4 <_vfiprintf_r+0x504>
  406ef2:	f340 850b 	ble.w	40790c <_vfiprintf_r+0xd5c>
  406ef6:	46d6      	mov	lr, sl
  406ef8:	2310      	movs	r3, #16
  406efa:	46c2      	mov	sl, r8
  406efc:	46a8      	mov	r8, r5
  406efe:	464d      	mov	r5, r9
  406f00:	f8dd 9014 	ldr.w	r9, [sp, #20]
  406f04:	e007      	b.n	406f16 <_vfiprintf_r+0x366>
  406f06:	f100 0c02 	add.w	ip, r0, #2
  406f0a:	f10e 0e08 	add.w	lr, lr, #8
  406f0e:	4608      	mov	r0, r1
  406f10:	3c10      	subs	r4, #16
  406f12:	2c10      	cmp	r4, #16
  406f14:	dd13      	ble.n	406f3e <_vfiprintf_r+0x38e>
  406f16:	1c41      	adds	r1, r0, #1
  406f18:	3210      	adds	r2, #16
  406f1a:	2907      	cmp	r1, #7
  406f1c:	920f      	str	r2, [sp, #60]	; 0x3c
  406f1e:	f8ce 5000 	str.w	r5, [lr]
  406f22:	f8ce 3004 	str.w	r3, [lr, #4]
  406f26:	910e      	str	r1, [sp, #56]	; 0x38
  406f28:	dded      	ble.n	406f06 <_vfiprintf_r+0x356>
  406f2a:	2a00      	cmp	r2, #0
  406f2c:	f040 8315 	bne.w	40755a <_vfiprintf_r+0x9aa>
  406f30:	3c10      	subs	r4, #16
  406f32:	2c10      	cmp	r4, #16
  406f34:	f04f 0c01 	mov.w	ip, #1
  406f38:	4610      	mov	r0, r2
  406f3a:	46de      	mov	lr, fp
  406f3c:	dceb      	bgt.n	406f16 <_vfiprintf_r+0x366>
  406f3e:	46a9      	mov	r9, r5
  406f40:	4645      	mov	r5, r8
  406f42:	46d0      	mov	r8, sl
  406f44:	46f2      	mov	sl, lr
  406f46:	4422      	add	r2, r4
  406f48:	f1bc 0f07 	cmp.w	ip, #7
  406f4c:	920f      	str	r2, [sp, #60]	; 0x3c
  406f4e:	f8ca 9000 	str.w	r9, [sl]
  406f52:	f8ca 4004 	str.w	r4, [sl, #4]
  406f56:	f8cd c038 	str.w	ip, [sp, #56]	; 0x38
  406f5a:	f300 83d2 	bgt.w	407702 <_vfiprintf_r+0xb52>
  406f5e:	9b01      	ldr	r3, [sp, #4]
  406f60:	9903      	ldr	r1, [sp, #12]
  406f62:	1a5c      	subs	r4, r3, r1
  406f64:	2c00      	cmp	r4, #0
  406f66:	f10a 0a08 	add.w	sl, sl, #8
  406f6a:	f10c 0e01 	add.w	lr, ip, #1
  406f6e:	4660      	mov	r0, ip
  406f70:	f300 826d 	bgt.w	40744e <_vfiprintf_r+0x89e>
  406f74:	9903      	ldr	r1, [sp, #12]
  406f76:	f8ca 7000 	str.w	r7, [sl]
  406f7a:	440a      	add	r2, r1
  406f7c:	f1be 0f07 	cmp.w	lr, #7
  406f80:	920f      	str	r2, [sp, #60]	; 0x3c
  406f82:	f8ca 1004 	str.w	r1, [sl, #4]
  406f86:	f8cd e038 	str.w	lr, [sp, #56]	; 0x38
  406f8a:	f340 82ce 	ble.w	40752a <_vfiprintf_r+0x97a>
  406f8e:	2a00      	cmp	r2, #0
  406f90:	f040 833a 	bne.w	407608 <_vfiprintf_r+0xa58>
  406f94:	0770      	lsls	r0, r6, #29
  406f96:	920e      	str	r2, [sp, #56]	; 0x38
  406f98:	d538      	bpl.n	40700c <_vfiprintf_r+0x45c>
  406f9a:	9b06      	ldr	r3, [sp, #24]
  406f9c:	1b5c      	subs	r4, r3, r5
  406f9e:	2c00      	cmp	r4, #0
  406fa0:	dd34      	ble.n	40700c <_vfiprintf_r+0x45c>
  406fa2:	46da      	mov	sl, fp
  406fa4:	2c10      	cmp	r4, #16
  406fa6:	f340 84ab 	ble.w	407900 <_vfiprintf_r+0xd50>
  406faa:	f8df 9104 	ldr.w	r9, [pc, #260]	; 4070b0 <_vfiprintf_r+0x500>
  406fae:	990e      	ldr	r1, [sp, #56]	; 0x38
  406fb0:	464f      	mov	r7, r9
  406fb2:	2610      	movs	r6, #16
  406fb4:	f8dd 9014 	ldr.w	r9, [sp, #20]
  406fb8:	e006      	b.n	406fc8 <_vfiprintf_r+0x418>
  406fba:	1c88      	adds	r0, r1, #2
  406fbc:	f10a 0a08 	add.w	sl, sl, #8
  406fc0:	4619      	mov	r1, r3
  406fc2:	3c10      	subs	r4, #16
  406fc4:	2c10      	cmp	r4, #16
  406fc6:	dd13      	ble.n	406ff0 <_vfiprintf_r+0x440>
  406fc8:	1c4b      	adds	r3, r1, #1
  406fca:	3210      	adds	r2, #16
  406fcc:	2b07      	cmp	r3, #7
  406fce:	920f      	str	r2, [sp, #60]	; 0x3c
  406fd0:	f8ca 7000 	str.w	r7, [sl]
  406fd4:	f8ca 6004 	str.w	r6, [sl, #4]
  406fd8:	930e      	str	r3, [sp, #56]	; 0x38
  406fda:	ddee      	ble.n	406fba <_vfiprintf_r+0x40a>
  406fdc:	2a00      	cmp	r2, #0
  406fde:	f040 828e 	bne.w	4074fe <_vfiprintf_r+0x94e>
  406fe2:	3c10      	subs	r4, #16
  406fe4:	2c10      	cmp	r4, #16
  406fe6:	f04f 0001 	mov.w	r0, #1
  406fea:	4611      	mov	r1, r2
  406fec:	46da      	mov	sl, fp
  406fee:	dceb      	bgt.n	406fc8 <_vfiprintf_r+0x418>
  406ff0:	46b9      	mov	r9, r7
  406ff2:	4422      	add	r2, r4
  406ff4:	2807      	cmp	r0, #7
  406ff6:	920f      	str	r2, [sp, #60]	; 0x3c
  406ff8:	f8ca 9000 	str.w	r9, [sl]
  406ffc:	f8ca 4004 	str.w	r4, [sl, #4]
  407000:	900e      	str	r0, [sp, #56]	; 0x38
  407002:	f340 829b 	ble.w	40753c <_vfiprintf_r+0x98c>
  407006:	2a00      	cmp	r2, #0
  407008:	f040 8425 	bne.w	407856 <_vfiprintf_r+0xca6>
  40700c:	9b02      	ldr	r3, [sp, #8]
  40700e:	9a06      	ldr	r2, [sp, #24]
  407010:	42aa      	cmp	r2, r5
  407012:	bfac      	ite	ge
  407014:	189b      	addge	r3, r3, r2
  407016:	195b      	addlt	r3, r3, r5
  407018:	9302      	str	r3, [sp, #8]
  40701a:	e299      	b.n	407550 <_vfiprintf_r+0x9a0>
  40701c:	f046 0680 	orr.w	r6, r6, #128	; 0x80
  407020:	f898 3000 	ldrb.w	r3, [r8]
  407024:	e62b      	b.n	406c7e <_vfiprintf_r+0xce>
  407026:	9406      	str	r4, [sp, #24]
  407028:	2900      	cmp	r1, #0
  40702a:	f040 84af 	bne.w	40798c <_vfiprintf_r+0xddc>
  40702e:	f046 0610 	orr.w	r6, r6, #16
  407032:	06b3      	lsls	r3, r6, #26
  407034:	f140 8312 	bpl.w	40765c <_vfiprintf_r+0xaac>
  407038:	9904      	ldr	r1, [sp, #16]
  40703a:	3107      	adds	r1, #7
  40703c:	f021 0107 	bic.w	r1, r1, #7
  407040:	e9d1 2300 	ldrd	r2, r3, [r1]
  407044:	3108      	adds	r1, #8
  407046:	9104      	str	r1, [sp, #16]
  407048:	4614      	mov	r4, r2
  40704a:	461d      	mov	r5, r3
  40704c:	2a00      	cmp	r2, #0
  40704e:	f173 0300 	sbcs.w	r3, r3, #0
  407052:	f2c0 8386 	blt.w	407762 <_vfiprintf_r+0xbb2>
  407056:	9b01      	ldr	r3, [sp, #4]
  407058:	f89d 902f 	ldrb.w	r9, [sp, #47]	; 0x2f
  40705c:	2b00      	cmp	r3, #0
  40705e:	f2c0 831a 	blt.w	407696 <_vfiprintf_r+0xae6>
  407062:	ea54 0305 	orrs.w	r3, r4, r5
  407066:	f026 0680 	bic.w	r6, r6, #128	; 0x80
  40706a:	f000 80ed 	beq.w	407248 <_vfiprintf_r+0x698>
  40706e:	2d00      	cmp	r5, #0
  407070:	bf08      	it	eq
  407072:	2c0a      	cmpeq	r4, #10
  407074:	f0c0 80ed 	bcc.w	407252 <_vfiprintf_r+0x6a2>
  407078:	465f      	mov	r7, fp
  40707a:	4620      	mov	r0, r4
  40707c:	4629      	mov	r1, r5
  40707e:	220a      	movs	r2, #10
  407080:	2300      	movs	r3, #0
  407082:	f004 fa57 	bl	40b534 <__aeabi_uldivmod>
  407086:	3230      	adds	r2, #48	; 0x30
  407088:	f807 2d01 	strb.w	r2, [r7, #-1]!
  40708c:	4620      	mov	r0, r4
  40708e:	4629      	mov	r1, r5
  407090:	2300      	movs	r3, #0
  407092:	220a      	movs	r2, #10
  407094:	f004 fa4e 	bl	40b534 <__aeabi_uldivmod>
  407098:	4604      	mov	r4, r0
  40709a:	460d      	mov	r5, r1
  40709c:	ea54 0305 	orrs.w	r3, r4, r5
  4070a0:	d1eb      	bne.n	40707a <_vfiprintf_r+0x4ca>
  4070a2:	ebc7 030b 	rsb	r3, r7, fp
  4070a6:	9303      	str	r3, [sp, #12]
  4070a8:	e6a2      	b.n	406df0 <_vfiprintf_r+0x240>
  4070aa:	bf00      	nop
  4070ac:	0040cb1c 	.word	0x0040cb1c
  4070b0:	0040cb5c 	.word	0x0040cb5c
  4070b4:	0040cb4c 	.word	0x0040cb4c
  4070b8:	9406      	str	r4, [sp, #24]
  4070ba:	2900      	cmp	r1, #0
  4070bc:	f040 8462 	bne.w	407984 <_vfiprintf_r+0xdd4>
  4070c0:	f046 0610 	orr.w	r6, r6, #16
  4070c4:	f016 0320 	ands.w	r3, r6, #32
  4070c8:	f000 82ae 	beq.w	407628 <_vfiprintf_r+0xa78>
  4070cc:	9b04      	ldr	r3, [sp, #16]
  4070ce:	3307      	adds	r3, #7
  4070d0:	f023 0307 	bic.w	r3, r3, #7
  4070d4:	f04f 0200 	mov.w	r2, #0
  4070d8:	f88d 202f 	strb.w	r2, [sp, #47]	; 0x2f
  4070dc:	e9d3 4500 	ldrd	r4, r5, [r3]
  4070e0:	f103 0208 	add.w	r2, r3, #8
  4070e4:	9b01      	ldr	r3, [sp, #4]
  4070e6:	9204      	str	r2, [sp, #16]
  4070e8:	2b00      	cmp	r3, #0
  4070ea:	f2c0 8174 	blt.w	4073d6 <_vfiprintf_r+0x826>
  4070ee:	ea54 0305 	orrs.w	r3, r4, r5
  4070f2:	f026 0680 	bic.w	r6, r6, #128	; 0x80
  4070f6:	f040 816e 	bne.w	4073d6 <_vfiprintf_r+0x826>
  4070fa:	9b01      	ldr	r3, [sp, #4]
  4070fc:	2b00      	cmp	r3, #0
  4070fe:	f000 8430 	beq.w	407962 <_vfiprintf_r+0xdb2>
  407102:	f04f 0900 	mov.w	r9, #0
  407106:	2400      	movs	r4, #0
  407108:	2500      	movs	r5, #0
  40710a:	465f      	mov	r7, fp
  40710c:	08e2      	lsrs	r2, r4, #3
  40710e:	ea42 7245 	orr.w	r2, r2, r5, lsl #29
  407112:	08e9      	lsrs	r1, r5, #3
  407114:	f004 0307 	and.w	r3, r4, #7
  407118:	460d      	mov	r5, r1
  40711a:	4614      	mov	r4, r2
  40711c:	3330      	adds	r3, #48	; 0x30
  40711e:	ea54 0205 	orrs.w	r2, r4, r5
  407122:	f807 3d01 	strb.w	r3, [r7, #-1]!
  407126:	d1f1      	bne.n	40710c <_vfiprintf_r+0x55c>
  407128:	07f4      	lsls	r4, r6, #31
  40712a:	d5ba      	bpl.n	4070a2 <_vfiprintf_r+0x4f2>
  40712c:	2b30      	cmp	r3, #48	; 0x30
  40712e:	d0b8      	beq.n	4070a2 <_vfiprintf_r+0x4f2>
  407130:	2230      	movs	r2, #48	; 0x30
  407132:	1e7b      	subs	r3, r7, #1
  407134:	f807 2c01 	strb.w	r2, [r7, #-1]
  407138:	ebc3 020b 	rsb	r2, r3, fp
  40713c:	9203      	str	r2, [sp, #12]
  40713e:	461f      	mov	r7, r3
  407140:	e656      	b.n	406df0 <_vfiprintf_r+0x240>
  407142:	f1a3 0230 	sub.w	r2, r3, #48	; 0x30
  407146:	2400      	movs	r4, #0
  407148:	f818 3b01 	ldrb.w	r3, [r8], #1
  40714c:	eb04 0484 	add.w	r4, r4, r4, lsl #2
  407150:	eb02 0444 	add.w	r4, r2, r4, lsl #1
  407154:	f1a3 0230 	sub.w	r2, r3, #48	; 0x30
  407158:	2a09      	cmp	r2, #9
  40715a:	d9f5      	bls.n	407148 <_vfiprintf_r+0x598>
  40715c:	e591      	b.n	406c82 <_vfiprintf_r+0xd2>
  40715e:	f898 3000 	ldrb.w	r3, [r8]
  407162:	2101      	movs	r1, #1
  407164:	202b      	movs	r0, #43	; 0x2b
  407166:	e58a      	b.n	406c7e <_vfiprintf_r+0xce>
  407168:	f898 3000 	ldrb.w	r3, [r8]
  40716c:	2b2a      	cmp	r3, #42	; 0x2a
  40716e:	f108 0501 	add.w	r5, r8, #1
  407172:	f000 83dd 	beq.w	407930 <_vfiprintf_r+0xd80>
  407176:	f1a3 0230 	sub.w	r2, r3, #48	; 0x30
  40717a:	2a09      	cmp	r2, #9
  40717c:	46a8      	mov	r8, r5
  40717e:	bf98      	it	ls
  407180:	2500      	movls	r5, #0
  407182:	f200 83ce 	bhi.w	407922 <_vfiprintf_r+0xd72>
  407186:	f818 3b01 	ldrb.w	r3, [r8], #1
  40718a:	eb05 0585 	add.w	r5, r5, r5, lsl #2
  40718e:	eb02 0545 	add.w	r5, r2, r5, lsl #1
  407192:	f1a3 0230 	sub.w	r2, r3, #48	; 0x30
  407196:	2a09      	cmp	r2, #9
  407198:	d9f5      	bls.n	407186 <_vfiprintf_r+0x5d6>
  40719a:	ea45 72e5 	orr.w	r2, r5, r5, asr #31
  40719e:	9201      	str	r2, [sp, #4]
  4071a0:	e56f      	b.n	406c82 <_vfiprintf_r+0xd2>
  4071a2:	9a04      	ldr	r2, [sp, #16]
  4071a4:	6814      	ldr	r4, [r2, #0]
  4071a6:	4613      	mov	r3, r2
  4071a8:	2c00      	cmp	r4, #0
  4071aa:	f103 0304 	add.w	r3, r3, #4
  4071ae:	f6ff aded 	blt.w	406d8c <_vfiprintf_r+0x1dc>
  4071b2:	9304      	str	r3, [sp, #16]
  4071b4:	f898 3000 	ldrb.w	r3, [r8]
  4071b8:	e561      	b.n	406c7e <_vfiprintf_r+0xce>
  4071ba:	9406      	str	r4, [sp, #24]
  4071bc:	2900      	cmp	r1, #0
  4071be:	d081      	beq.n	4070c4 <_vfiprintf_r+0x514>
  4071c0:	f88d 002f 	strb.w	r0, [sp, #47]	; 0x2f
  4071c4:	e77e      	b.n	4070c4 <_vfiprintf_r+0x514>
  4071c6:	9a04      	ldr	r2, [sp, #16]
  4071c8:	9406      	str	r4, [sp, #24]
  4071ca:	6817      	ldr	r7, [r2, #0]
  4071cc:	f04f 0300 	mov.w	r3, #0
  4071d0:	f88d 302f 	strb.w	r3, [sp, #47]	; 0x2f
  4071d4:	1d14      	adds	r4, r2, #4
  4071d6:	9b01      	ldr	r3, [sp, #4]
  4071d8:	2f00      	cmp	r7, #0
  4071da:	f000 8386 	beq.w	4078ea <_vfiprintf_r+0xd3a>
  4071de:	2b00      	cmp	r3, #0
  4071e0:	f2c0 835f 	blt.w	4078a2 <_vfiprintf_r+0xcf2>
  4071e4:	461a      	mov	r2, r3
  4071e6:	2100      	movs	r1, #0
  4071e8:	4638      	mov	r0, r7
  4071ea:	f002 fc21 	bl	409a30 <memchr>
  4071ee:	2800      	cmp	r0, #0
  4071f0:	f000 838f 	beq.w	407912 <_vfiprintf_r+0xd62>
  4071f4:	1bc3      	subs	r3, r0, r7
  4071f6:	9303      	str	r3, [sp, #12]
  4071f8:	2300      	movs	r3, #0
  4071fa:	9404      	str	r4, [sp, #16]
  4071fc:	f89d 902f 	ldrb.w	r9, [sp, #47]	; 0x2f
  407200:	9301      	str	r3, [sp, #4]
  407202:	e5f5      	b.n	406df0 <_vfiprintf_r+0x240>
  407204:	9406      	str	r4, [sp, #24]
  407206:	2900      	cmp	r1, #0
  407208:	f040 83b9 	bne.w	40797e <_vfiprintf_r+0xdce>
  40720c:	f016 0920 	ands.w	r9, r6, #32
  407210:	d135      	bne.n	40727e <_vfiprintf_r+0x6ce>
  407212:	f016 0310 	ands.w	r3, r6, #16
  407216:	d103      	bne.n	407220 <_vfiprintf_r+0x670>
  407218:	f016 0940 	ands.w	r9, r6, #64	; 0x40
  40721c:	f040 832a 	bne.w	407874 <_vfiprintf_r+0xcc4>
  407220:	9a04      	ldr	r2, [sp, #16]
  407222:	4613      	mov	r3, r2
  407224:	6814      	ldr	r4, [r2, #0]
  407226:	9a01      	ldr	r2, [sp, #4]
  407228:	f88d 902f 	strb.w	r9, [sp, #47]	; 0x2f
  40722c:	2a00      	cmp	r2, #0
  40722e:	f103 0304 	add.w	r3, r3, #4
  407232:	f04f 0500 	mov.w	r5, #0
  407236:	f2c0 8332 	blt.w	40789e <_vfiprintf_r+0xcee>
  40723a:	ea54 0205 	orrs.w	r2, r4, r5
  40723e:	f026 0680 	bic.w	r6, r6, #128	; 0x80
  407242:	9304      	str	r3, [sp, #16]
  407244:	f47f af13 	bne.w	40706e <_vfiprintf_r+0x4be>
  407248:	9b01      	ldr	r3, [sp, #4]
  40724a:	2b00      	cmp	r3, #0
  40724c:	f43f adcc 	beq.w	406de8 <_vfiprintf_r+0x238>
  407250:	2400      	movs	r4, #0
  407252:	af2a      	add	r7, sp, #168	; 0xa8
  407254:	3430      	adds	r4, #48	; 0x30
  407256:	f807 4d41 	strb.w	r4, [r7, #-65]!
  40725a:	ebc7 030b 	rsb	r3, r7, fp
  40725e:	9303      	str	r3, [sp, #12]
  407260:	e5c6      	b.n	406df0 <_vfiprintf_r+0x240>
  407262:	f046 0620 	orr.w	r6, r6, #32
  407266:	f898 3000 	ldrb.w	r3, [r8]
  40726a:	e508      	b.n	406c7e <_vfiprintf_r+0xce>
  40726c:	9406      	str	r4, [sp, #24]
  40726e:	2900      	cmp	r1, #0
  407270:	f040 836e 	bne.w	407950 <_vfiprintf_r+0xda0>
  407274:	f046 0610 	orr.w	r6, r6, #16
  407278:	f016 0920 	ands.w	r9, r6, #32
  40727c:	d0c9      	beq.n	407212 <_vfiprintf_r+0x662>
  40727e:	9b04      	ldr	r3, [sp, #16]
  407280:	3307      	adds	r3, #7
  407282:	f023 0307 	bic.w	r3, r3, #7
  407286:	f04f 0200 	mov.w	r2, #0
  40728a:	f88d 202f 	strb.w	r2, [sp, #47]	; 0x2f
  40728e:	e9d3 4500 	ldrd	r4, r5, [r3]
  407292:	f103 0208 	add.w	r2, r3, #8
  407296:	9b01      	ldr	r3, [sp, #4]
  407298:	9204      	str	r2, [sp, #16]
  40729a:	2b00      	cmp	r3, #0
  40729c:	f2c0 81f9 	blt.w	407692 <_vfiprintf_r+0xae2>
  4072a0:	ea54 0305 	orrs.w	r3, r4, r5
  4072a4:	f026 0680 	bic.w	r6, r6, #128	; 0x80
  4072a8:	f04f 0900 	mov.w	r9, #0
  4072ac:	f47f aedf 	bne.w	40706e <_vfiprintf_r+0x4be>
  4072b0:	e7ca      	b.n	407248 <_vfiprintf_r+0x698>
  4072b2:	9406      	str	r4, [sp, #24]
  4072b4:	2900      	cmp	r1, #0
  4072b6:	f040 8351 	bne.w	40795c <_vfiprintf_r+0xdac>
  4072ba:	06b2      	lsls	r2, r6, #26
  4072bc:	48ae      	ldr	r0, [pc, #696]	; (407578 <_vfiprintf_r+0x9c8>)
  4072be:	d541      	bpl.n	407344 <_vfiprintf_r+0x794>
  4072c0:	9a04      	ldr	r2, [sp, #16]
  4072c2:	3207      	adds	r2, #7
  4072c4:	f022 0207 	bic.w	r2, r2, #7
  4072c8:	e9d2 4500 	ldrd	r4, r5, [r2]
  4072cc:	f102 0108 	add.w	r1, r2, #8
  4072d0:	9104      	str	r1, [sp, #16]
  4072d2:	f016 0901 	ands.w	r9, r6, #1
  4072d6:	f000 8177 	beq.w	4075c8 <_vfiprintf_r+0xa18>
  4072da:	ea54 0205 	orrs.w	r2, r4, r5
  4072de:	f040 8226 	bne.w	40772e <_vfiprintf_r+0xb7e>
  4072e2:	f04f 0300 	mov.w	r3, #0
  4072e6:	f88d 302f 	strb.w	r3, [sp, #47]	; 0x2f
  4072ea:	9b01      	ldr	r3, [sp, #4]
  4072ec:	2b00      	cmp	r3, #0
  4072ee:	f2c0 8196 	blt.w	40761e <_vfiprintf_r+0xa6e>
  4072f2:	f026 0680 	bic.w	r6, r6, #128	; 0x80
  4072f6:	e572      	b.n	406dde <_vfiprintf_r+0x22e>
  4072f8:	9a04      	ldr	r2, [sp, #16]
  4072fa:	9406      	str	r4, [sp, #24]
  4072fc:	6813      	ldr	r3, [r2, #0]
  4072fe:	f88d 3040 	strb.w	r3, [sp, #64]	; 0x40
  407302:	4613      	mov	r3, r2
  407304:	f04f 0100 	mov.w	r1, #0
  407308:	2501      	movs	r5, #1
  40730a:	3304      	adds	r3, #4
  40730c:	f88d 102f 	strb.w	r1, [sp, #47]	; 0x2f
  407310:	9304      	str	r3, [sp, #16]
  407312:	9503      	str	r5, [sp, #12]
  407314:	af10      	add	r7, sp, #64	; 0x40
  407316:	2300      	movs	r3, #0
  407318:	9301      	str	r3, [sp, #4]
  40731a:	e573      	b.n	406e04 <_vfiprintf_r+0x254>
  40731c:	f898 3000 	ldrb.w	r3, [r8]
  407320:	2800      	cmp	r0, #0
  407322:	f47f acac 	bne.w	406c7e <_vfiprintf_r+0xce>
  407326:	2101      	movs	r1, #1
  407328:	2020      	movs	r0, #32
  40732a:	e4a8      	b.n	406c7e <_vfiprintf_r+0xce>
  40732c:	f046 0601 	orr.w	r6, r6, #1
  407330:	f898 3000 	ldrb.w	r3, [r8]
  407334:	e4a3      	b.n	406c7e <_vfiprintf_r+0xce>
  407336:	9406      	str	r4, [sp, #24]
  407338:	2900      	cmp	r1, #0
  40733a:	f040 830c 	bne.w	407956 <_vfiprintf_r+0xda6>
  40733e:	06b2      	lsls	r2, r6, #26
  407340:	488e      	ldr	r0, [pc, #568]	; (40757c <_vfiprintf_r+0x9cc>)
  407342:	d4bd      	bmi.n	4072c0 <_vfiprintf_r+0x710>
  407344:	9904      	ldr	r1, [sp, #16]
  407346:	06f7      	lsls	r7, r6, #27
  407348:	460a      	mov	r2, r1
  40734a:	f100 819d 	bmi.w	407688 <_vfiprintf_r+0xad8>
  40734e:	0675      	lsls	r5, r6, #25
  407350:	f140 819a 	bpl.w	407688 <_vfiprintf_r+0xad8>
  407354:	3204      	adds	r2, #4
  407356:	880c      	ldrh	r4, [r1, #0]
  407358:	9204      	str	r2, [sp, #16]
  40735a:	2500      	movs	r5, #0
  40735c:	e7b9      	b.n	4072d2 <_vfiprintf_r+0x722>
  40735e:	f046 0640 	orr.w	r6, r6, #64	; 0x40
  407362:	f898 3000 	ldrb.w	r3, [r8]
  407366:	e48a      	b.n	406c7e <_vfiprintf_r+0xce>
  407368:	f898 3000 	ldrb.w	r3, [r8]
  40736c:	2b6c      	cmp	r3, #108	; 0x6c
  40736e:	bf03      	ittte	eq
  407370:	f898 3001 	ldrbeq.w	r3, [r8, #1]
  407374:	f046 0620 	orreq.w	r6, r6, #32
  407378:	f108 0801 	addeq.w	r8, r8, #1
  40737c:	f046 0610 	orrne.w	r6, r6, #16
  407380:	e47d      	b.n	406c7e <_vfiprintf_r+0xce>
  407382:	2900      	cmp	r1, #0
  407384:	f040 8309 	bne.w	40799a <_vfiprintf_r+0xdea>
  407388:	06b4      	lsls	r4, r6, #26
  40738a:	f140 821c 	bpl.w	4077c6 <_vfiprintf_r+0xc16>
  40738e:	9a04      	ldr	r2, [sp, #16]
  407390:	9902      	ldr	r1, [sp, #8]
  407392:	6813      	ldr	r3, [r2, #0]
  407394:	17cd      	asrs	r5, r1, #31
  407396:	4608      	mov	r0, r1
  407398:	3204      	adds	r2, #4
  40739a:	4629      	mov	r1, r5
  40739c:	9204      	str	r2, [sp, #16]
  40739e:	e9c3 0100 	strd	r0, r1, [r3]
  4073a2:	e436      	b.n	406c12 <_vfiprintf_r+0x62>
  4073a4:	9406      	str	r4, [sp, #24]
  4073a6:	2900      	cmp	r1, #0
  4073a8:	f43f ae43 	beq.w	407032 <_vfiprintf_r+0x482>
  4073ac:	f88d 002f 	strb.w	r0, [sp, #47]	; 0x2f
  4073b0:	e63f      	b.n	407032 <_vfiprintf_r+0x482>
  4073b2:	9406      	str	r4, [sp, #24]
  4073b4:	2900      	cmp	r1, #0
  4073b6:	f040 82ed 	bne.w	407994 <_vfiprintf_r+0xde4>
  4073ba:	2b00      	cmp	r3, #0
  4073bc:	f000 808f 	beq.w	4074de <_vfiprintf_r+0x92e>
  4073c0:	2501      	movs	r5, #1
  4073c2:	f88d 3040 	strb.w	r3, [sp, #64]	; 0x40
  4073c6:	f04f 0300 	mov.w	r3, #0
  4073ca:	f88d 302f 	strb.w	r3, [sp, #47]	; 0x2f
  4073ce:	9503      	str	r5, [sp, #12]
  4073d0:	af10      	add	r7, sp, #64	; 0x40
  4073d2:	e7a0      	b.n	407316 <_vfiprintf_r+0x766>
  4073d4:	9304      	str	r3, [sp, #16]
  4073d6:	f04f 0900 	mov.w	r9, #0
  4073da:	e696      	b.n	40710a <_vfiprintf_r+0x55a>
  4073dc:	aa0d      	add	r2, sp, #52	; 0x34
  4073de:	9900      	ldr	r1, [sp, #0]
  4073e0:	9309      	str	r3, [sp, #36]	; 0x24
  4073e2:	4648      	mov	r0, r9
  4073e4:	f7ff fba8 	bl	406b38 <__sprint_r.part.0>
  4073e8:	2800      	cmp	r0, #0
  4073ea:	d17f      	bne.n	4074ec <_vfiprintf_r+0x93c>
  4073ec:	980e      	ldr	r0, [sp, #56]	; 0x38
  4073ee:	9a0f      	ldr	r2, [sp, #60]	; 0x3c
  4073f0:	9b09      	ldr	r3, [sp, #36]	; 0x24
  4073f2:	f100 0e01 	add.w	lr, r0, #1
  4073f6:	46dc      	mov	ip, fp
  4073f8:	e529      	b.n	406e4e <_vfiprintf_r+0x29e>
  4073fa:	980e      	ldr	r0, [sp, #56]	; 0x38
  4073fc:	9a0f      	ldr	r2, [sp, #60]	; 0x3c
  4073fe:	f100 0e01 	add.w	lr, r0, #1
  407402:	f89d 302f 	ldrb.w	r3, [sp, #47]	; 0x2f
  407406:	2b00      	cmp	r3, #0
  407408:	f43f ad50 	beq.w	406eac <_vfiprintf_r+0x2fc>
  40740c:	3201      	adds	r2, #1
  40740e:	f10d 012f 	add.w	r1, sp, #47	; 0x2f
  407412:	2301      	movs	r3, #1
  407414:	f1be 0f07 	cmp.w	lr, #7
  407418:	920f      	str	r2, [sp, #60]	; 0x3c
  40741a:	f8cd e038 	str.w	lr, [sp, #56]	; 0x38
  40741e:	e88a 000a 	stmia.w	sl, {r1, r3}
  407422:	f340 80bf 	ble.w	4075a4 <_vfiprintf_r+0x9f4>
  407426:	2a00      	cmp	r2, #0
  407428:	f040 814e 	bne.w	4076c8 <_vfiprintf_r+0xb18>
  40742c:	9907      	ldr	r1, [sp, #28]
  40742e:	2900      	cmp	r1, #0
  407430:	f040 80be 	bne.w	4075b0 <_vfiprintf_r+0xa00>
  407434:	469e      	mov	lr, r3
  407436:	4610      	mov	r0, r2
  407438:	46da      	mov	sl, fp
  40743a:	9b08      	ldr	r3, [sp, #32]
  40743c:	2b80      	cmp	r3, #128	; 0x80
  40743e:	f43f ad50 	beq.w	406ee2 <_vfiprintf_r+0x332>
  407442:	9b01      	ldr	r3, [sp, #4]
  407444:	9903      	ldr	r1, [sp, #12]
  407446:	1a5c      	subs	r4, r3, r1
  407448:	2c00      	cmp	r4, #0
  40744a:	f77f ad93 	ble.w	406f74 <_vfiprintf_r+0x3c4>
  40744e:	2c10      	cmp	r4, #16
  407450:	f8df 912c 	ldr.w	r9, [pc, #300]	; 407580 <_vfiprintf_r+0x9d0>
  407454:	dd25      	ble.n	4074a2 <_vfiprintf_r+0x8f2>
  407456:	46d4      	mov	ip, sl
  407458:	2310      	movs	r3, #16
  40745a:	46c2      	mov	sl, r8
  40745c:	46a8      	mov	r8, r5
  40745e:	464d      	mov	r5, r9
  407460:	f8dd 9014 	ldr.w	r9, [sp, #20]
  407464:	e007      	b.n	407476 <_vfiprintf_r+0x8c6>
  407466:	f100 0e02 	add.w	lr, r0, #2
  40746a:	f10c 0c08 	add.w	ip, ip, #8
  40746e:	4608      	mov	r0, r1
  407470:	3c10      	subs	r4, #16
  407472:	2c10      	cmp	r4, #16
  407474:	dd11      	ble.n	40749a <_vfiprintf_r+0x8ea>
  407476:	1c41      	adds	r1, r0, #1
  407478:	3210      	adds	r2, #16
  40747a:	2907      	cmp	r1, #7
  40747c:	920f      	str	r2, [sp, #60]	; 0x3c
  40747e:	f8cc 5000 	str.w	r5, [ip]
  407482:	f8cc 3004 	str.w	r3, [ip, #4]
  407486:	910e      	str	r1, [sp, #56]	; 0x38
  407488:	dded      	ble.n	407466 <_vfiprintf_r+0x8b6>
  40748a:	b9d2      	cbnz	r2, 4074c2 <_vfiprintf_r+0x912>
  40748c:	3c10      	subs	r4, #16
  40748e:	2c10      	cmp	r4, #16
  407490:	f04f 0e01 	mov.w	lr, #1
  407494:	4610      	mov	r0, r2
  407496:	46dc      	mov	ip, fp
  407498:	dced      	bgt.n	407476 <_vfiprintf_r+0x8c6>
  40749a:	46a9      	mov	r9, r5
  40749c:	4645      	mov	r5, r8
  40749e:	46d0      	mov	r8, sl
  4074a0:	46e2      	mov	sl, ip
  4074a2:	4422      	add	r2, r4
  4074a4:	f1be 0f07 	cmp.w	lr, #7
  4074a8:	920f      	str	r2, [sp, #60]	; 0x3c
  4074aa:	f8ca 9000 	str.w	r9, [sl]
  4074ae:	f8ca 4004 	str.w	r4, [sl, #4]
  4074b2:	f8cd e038 	str.w	lr, [sp, #56]	; 0x38
  4074b6:	dc2e      	bgt.n	407516 <_vfiprintf_r+0x966>
  4074b8:	f10a 0a08 	add.w	sl, sl, #8
  4074bc:	f10e 0e01 	add.w	lr, lr, #1
  4074c0:	e558      	b.n	406f74 <_vfiprintf_r+0x3c4>
  4074c2:	aa0d      	add	r2, sp, #52	; 0x34
  4074c4:	9900      	ldr	r1, [sp, #0]
  4074c6:	9301      	str	r3, [sp, #4]
  4074c8:	4648      	mov	r0, r9
  4074ca:	f7ff fb35 	bl	406b38 <__sprint_r.part.0>
  4074ce:	b968      	cbnz	r0, 4074ec <_vfiprintf_r+0x93c>
  4074d0:	980e      	ldr	r0, [sp, #56]	; 0x38
  4074d2:	9a0f      	ldr	r2, [sp, #60]	; 0x3c
  4074d4:	9b01      	ldr	r3, [sp, #4]
  4074d6:	f100 0e01 	add.w	lr, r0, #1
  4074da:	46dc      	mov	ip, fp
  4074dc:	e7c8      	b.n	407470 <_vfiprintf_r+0x8c0>
  4074de:	9b0f      	ldr	r3, [sp, #60]	; 0x3c
  4074e0:	b123      	cbz	r3, 4074ec <_vfiprintf_r+0x93c>
  4074e2:	9805      	ldr	r0, [sp, #20]
  4074e4:	9900      	ldr	r1, [sp, #0]
  4074e6:	aa0d      	add	r2, sp, #52	; 0x34
  4074e8:	f7ff fb26 	bl	406b38 <__sprint_r.part.0>
  4074ec:	9b00      	ldr	r3, [sp, #0]
  4074ee:	899b      	ldrh	r3, [r3, #12]
  4074f0:	065a      	lsls	r2, r3, #25
  4074f2:	f100 818b 	bmi.w	40780c <_vfiprintf_r+0xc5c>
  4074f6:	9802      	ldr	r0, [sp, #8]
  4074f8:	b02b      	add	sp, #172	; 0xac
  4074fa:	e8bd 8ff0 	ldmia.w	sp!, {r4, r5, r6, r7, r8, r9, sl, fp, pc}
  4074fe:	aa0d      	add	r2, sp, #52	; 0x34
  407500:	9900      	ldr	r1, [sp, #0]
  407502:	4648      	mov	r0, r9
  407504:	f7ff fb18 	bl	406b38 <__sprint_r.part.0>
  407508:	2800      	cmp	r0, #0
  40750a:	d1ef      	bne.n	4074ec <_vfiprintf_r+0x93c>
  40750c:	990e      	ldr	r1, [sp, #56]	; 0x38
  40750e:	9a0f      	ldr	r2, [sp, #60]	; 0x3c
  407510:	1c48      	adds	r0, r1, #1
  407512:	46da      	mov	sl, fp
  407514:	e555      	b.n	406fc2 <_vfiprintf_r+0x412>
  407516:	2a00      	cmp	r2, #0
  407518:	f040 80fb 	bne.w	407712 <_vfiprintf_r+0xb62>
  40751c:	9a03      	ldr	r2, [sp, #12]
  40751e:	921b      	str	r2, [sp, #108]	; 0x6c
  407520:	2301      	movs	r3, #1
  407522:	920f      	str	r2, [sp, #60]	; 0x3c
  407524:	971a      	str	r7, [sp, #104]	; 0x68
  407526:	930e      	str	r3, [sp, #56]	; 0x38
  407528:	46da      	mov	sl, fp
  40752a:	f10a 0a08 	add.w	sl, sl, #8
  40752e:	0771      	lsls	r1, r6, #29
  407530:	d504      	bpl.n	40753c <_vfiprintf_r+0x98c>
  407532:	9b06      	ldr	r3, [sp, #24]
  407534:	1b5c      	subs	r4, r3, r5
  407536:	2c00      	cmp	r4, #0
  407538:	f73f ad34 	bgt.w	406fa4 <_vfiprintf_r+0x3f4>
  40753c:	9b02      	ldr	r3, [sp, #8]
  40753e:	9906      	ldr	r1, [sp, #24]
  407540:	42a9      	cmp	r1, r5
  407542:	bfac      	ite	ge
  407544:	185b      	addge	r3, r3, r1
  407546:	195b      	addlt	r3, r3, r5
  407548:	9302      	str	r3, [sp, #8]
  40754a:	2a00      	cmp	r2, #0
  40754c:	f040 80b3 	bne.w	4076b6 <_vfiprintf_r+0xb06>
  407550:	2300      	movs	r3, #0
  407552:	930e      	str	r3, [sp, #56]	; 0x38
  407554:	46da      	mov	sl, fp
  407556:	f7ff bb5c 	b.w	406c12 <_vfiprintf_r+0x62>
  40755a:	aa0d      	add	r2, sp, #52	; 0x34
  40755c:	9900      	ldr	r1, [sp, #0]
  40755e:	9307      	str	r3, [sp, #28]
  407560:	4648      	mov	r0, r9
  407562:	f7ff fae9 	bl	406b38 <__sprint_r.part.0>
  407566:	2800      	cmp	r0, #0
  407568:	d1c0      	bne.n	4074ec <_vfiprintf_r+0x93c>
  40756a:	980e      	ldr	r0, [sp, #56]	; 0x38
  40756c:	9a0f      	ldr	r2, [sp, #60]	; 0x3c
  40756e:	9b07      	ldr	r3, [sp, #28]
  407570:	f100 0c01 	add.w	ip, r0, #1
  407574:	46de      	mov	lr, fp
  407576:	e4cb      	b.n	406f10 <_vfiprintf_r+0x360>
  407578:	0040cb08 	.word	0x0040cb08
  40757c:	0040cb1c 	.word	0x0040cb1c
  407580:	0040cb4c 	.word	0x0040cb4c
  407584:	2a00      	cmp	r2, #0
  407586:	f040 8133 	bne.w	4077f0 <_vfiprintf_r+0xc40>
  40758a:	f89d 302f 	ldrb.w	r3, [sp, #47]	; 0x2f
  40758e:	2b00      	cmp	r3, #0
  407590:	f000 80f5 	beq.w	40777e <_vfiprintf_r+0xbce>
  407594:	2301      	movs	r3, #1
  407596:	f10d 012f 	add.w	r1, sp, #47	; 0x2f
  40759a:	461a      	mov	r2, r3
  40759c:	931b      	str	r3, [sp, #108]	; 0x6c
  40759e:	469e      	mov	lr, r3
  4075a0:	911a      	str	r1, [sp, #104]	; 0x68
  4075a2:	46da      	mov	sl, fp
  4075a4:	4670      	mov	r0, lr
  4075a6:	f10a 0a08 	add.w	sl, sl, #8
  4075aa:	f10e 0e01 	add.w	lr, lr, #1
  4075ae:	e47d      	b.n	406eac <_vfiprintf_r+0x2fc>
  4075b0:	a90c      	add	r1, sp, #48	; 0x30
  4075b2:	2202      	movs	r2, #2
  4075b4:	469e      	mov	lr, r3
  4075b6:	911a      	str	r1, [sp, #104]	; 0x68
  4075b8:	921b      	str	r2, [sp, #108]	; 0x6c
  4075ba:	46da      	mov	sl, fp
  4075bc:	4670      	mov	r0, lr
  4075be:	f10a 0a08 	add.w	sl, sl, #8
  4075c2:	f10e 0e01 	add.w	lr, lr, #1
  4075c6:	e738      	b.n	40743a <_vfiprintf_r+0x88a>
  4075c8:	9b01      	ldr	r3, [sp, #4]
  4075ca:	f88d 902f 	strb.w	r9, [sp, #47]	; 0x2f
  4075ce:	2b00      	cmp	r3, #0
  4075d0:	f2c0 812a 	blt.w	407828 <_vfiprintf_r+0xc78>
  4075d4:	ea54 0305 	orrs.w	r3, r4, r5
  4075d8:	f026 0680 	bic.w	r6, r6, #128	; 0x80
  4075dc:	f43f abff 	beq.w	406dde <_vfiprintf_r+0x22e>
  4075e0:	465f      	mov	r7, fp
  4075e2:	0923      	lsrs	r3, r4, #4
  4075e4:	f004 010f 	and.w	r1, r4, #15
  4075e8:	ea43 7305 	orr.w	r3, r3, r5, lsl #28
  4075ec:	092a      	lsrs	r2, r5, #4
  4075ee:	461c      	mov	r4, r3
  4075f0:	4615      	mov	r5, r2
  4075f2:	5c43      	ldrb	r3, [r0, r1]
  4075f4:	f807 3d01 	strb.w	r3, [r7, #-1]!
  4075f8:	ea54 0305 	orrs.w	r3, r4, r5
  4075fc:	d1f1      	bne.n	4075e2 <_vfiprintf_r+0xa32>
  4075fe:	ebc7 030b 	rsb	r3, r7, fp
  407602:	9303      	str	r3, [sp, #12]
  407604:	f7ff bbf4 	b.w	406df0 <_vfiprintf_r+0x240>
  407608:	aa0d      	add	r2, sp, #52	; 0x34
  40760a:	9900      	ldr	r1, [sp, #0]
  40760c:	9805      	ldr	r0, [sp, #20]
  40760e:	f7ff fa93 	bl	406b38 <__sprint_r.part.0>
  407612:	2800      	cmp	r0, #0
  407614:	f47f af6a 	bne.w	4074ec <_vfiprintf_r+0x93c>
  407618:	9a0f      	ldr	r2, [sp, #60]	; 0x3c
  40761a:	46da      	mov	sl, fp
  40761c:	e787      	b.n	40752e <_vfiprintf_r+0x97e>
  40761e:	f04f 0900 	mov.w	r9, #0
  407622:	2400      	movs	r4, #0
  407624:	2500      	movs	r5, #0
  407626:	e7db      	b.n	4075e0 <_vfiprintf_r+0xa30>
  407628:	f016 0210 	ands.w	r2, r6, #16
  40762c:	f000 80b2 	beq.w	407794 <_vfiprintf_r+0xbe4>
  407630:	9904      	ldr	r1, [sp, #16]
  407632:	f88d 302f 	strb.w	r3, [sp, #47]	; 0x2f
  407636:	460a      	mov	r2, r1
  407638:	680c      	ldr	r4, [r1, #0]
  40763a:	9901      	ldr	r1, [sp, #4]
  40763c:	2900      	cmp	r1, #0
  40763e:	f102 0204 	add.w	r2, r2, #4
  407642:	f04f 0500 	mov.w	r5, #0
  407646:	f2c0 8159 	blt.w	4078fc <_vfiprintf_r+0xd4c>
  40764a:	ea54 0105 	orrs.w	r1, r4, r5
  40764e:	f026 0680 	bic.w	r6, r6, #128	; 0x80
  407652:	9204      	str	r2, [sp, #16]
  407654:	f43f ad51 	beq.w	4070fa <_vfiprintf_r+0x54a>
  407658:	4699      	mov	r9, r3
  40765a:	e556      	b.n	40710a <_vfiprintf_r+0x55a>
  40765c:	06f7      	lsls	r7, r6, #27
  40765e:	d40a      	bmi.n	407676 <_vfiprintf_r+0xac6>
  407660:	0675      	lsls	r5, r6, #25
  407662:	d508      	bpl.n	407676 <_vfiprintf_r+0xac6>
  407664:	9904      	ldr	r1, [sp, #16]
  407666:	f9b1 4000 	ldrsh.w	r4, [r1]
  40766a:	3104      	adds	r1, #4
  40766c:	17e5      	asrs	r5, r4, #31
  40766e:	4622      	mov	r2, r4
  407670:	462b      	mov	r3, r5
  407672:	9104      	str	r1, [sp, #16]
  407674:	e4ea      	b.n	40704c <_vfiprintf_r+0x49c>
  407676:	9a04      	ldr	r2, [sp, #16]
  407678:	6814      	ldr	r4, [r2, #0]
  40767a:	4613      	mov	r3, r2
  40767c:	3304      	adds	r3, #4
  40767e:	17e5      	asrs	r5, r4, #31
  407680:	9304      	str	r3, [sp, #16]
  407682:	4622      	mov	r2, r4
  407684:	462b      	mov	r3, r5
  407686:	e4e1      	b.n	40704c <_vfiprintf_r+0x49c>
  407688:	6814      	ldr	r4, [r2, #0]
  40768a:	3204      	adds	r2, #4
  40768c:	9204      	str	r2, [sp, #16]
  40768e:	2500      	movs	r5, #0
  407690:	e61f      	b.n	4072d2 <_vfiprintf_r+0x722>
  407692:	f04f 0900 	mov.w	r9, #0
  407696:	ea54 0305 	orrs.w	r3, r4, r5
  40769a:	f47f ace8 	bne.w	40706e <_vfiprintf_r+0x4be>
  40769e:	e5d8      	b.n	407252 <_vfiprintf_r+0x6a2>
  4076a0:	aa0d      	add	r2, sp, #52	; 0x34
  4076a2:	9900      	ldr	r1, [sp, #0]
  4076a4:	9805      	ldr	r0, [sp, #20]
  4076a6:	f7ff fa47 	bl	406b38 <__sprint_r.part.0>
  4076aa:	2800      	cmp	r0, #0
  4076ac:	f47f af1e 	bne.w	4074ec <_vfiprintf_r+0x93c>
  4076b0:	46da      	mov	sl, fp
  4076b2:	f7ff bb48 	b.w	406d46 <_vfiprintf_r+0x196>
  4076b6:	aa0d      	add	r2, sp, #52	; 0x34
  4076b8:	9900      	ldr	r1, [sp, #0]
  4076ba:	9805      	ldr	r0, [sp, #20]
  4076bc:	f7ff fa3c 	bl	406b38 <__sprint_r.part.0>
  4076c0:	2800      	cmp	r0, #0
  4076c2:	f43f af45 	beq.w	407550 <_vfiprintf_r+0x9a0>
  4076c6:	e711      	b.n	4074ec <_vfiprintf_r+0x93c>
  4076c8:	aa0d      	add	r2, sp, #52	; 0x34
  4076ca:	9900      	ldr	r1, [sp, #0]
  4076cc:	9805      	ldr	r0, [sp, #20]
  4076ce:	f7ff fa33 	bl	406b38 <__sprint_r.part.0>
  4076d2:	2800      	cmp	r0, #0
  4076d4:	f47f af0a 	bne.w	4074ec <_vfiprintf_r+0x93c>
  4076d8:	980e      	ldr	r0, [sp, #56]	; 0x38
  4076da:	9a0f      	ldr	r2, [sp, #60]	; 0x3c
  4076dc:	f100 0e01 	add.w	lr, r0, #1
  4076e0:	46da      	mov	sl, fp
  4076e2:	f7ff bbe3 	b.w	406eac <_vfiprintf_r+0x2fc>
  4076e6:	aa0d      	add	r2, sp, #52	; 0x34
  4076e8:	9900      	ldr	r1, [sp, #0]
  4076ea:	9805      	ldr	r0, [sp, #20]
  4076ec:	f7ff fa24 	bl	406b38 <__sprint_r.part.0>
  4076f0:	2800      	cmp	r0, #0
  4076f2:	f47f aefb 	bne.w	4074ec <_vfiprintf_r+0x93c>
  4076f6:	980e      	ldr	r0, [sp, #56]	; 0x38
  4076f8:	9a0f      	ldr	r2, [sp, #60]	; 0x3c
  4076fa:	f100 0e01 	add.w	lr, r0, #1
  4076fe:	46da      	mov	sl, fp
  407700:	e69b      	b.n	40743a <_vfiprintf_r+0x88a>
  407702:	2a00      	cmp	r2, #0
  407704:	f040 80d8 	bne.w	4078b8 <_vfiprintf_r+0xd08>
  407708:	f04f 0e01 	mov.w	lr, #1
  40770c:	4610      	mov	r0, r2
  40770e:	46da      	mov	sl, fp
  407710:	e697      	b.n	407442 <_vfiprintf_r+0x892>
  407712:	aa0d      	add	r2, sp, #52	; 0x34
  407714:	9900      	ldr	r1, [sp, #0]
  407716:	9805      	ldr	r0, [sp, #20]
  407718:	f7ff fa0e 	bl	406b38 <__sprint_r.part.0>
  40771c:	2800      	cmp	r0, #0
  40771e:	f47f aee5 	bne.w	4074ec <_vfiprintf_r+0x93c>
  407722:	9b0e      	ldr	r3, [sp, #56]	; 0x38
  407724:	9a0f      	ldr	r2, [sp, #60]	; 0x3c
  407726:	f103 0e01 	add.w	lr, r3, #1
  40772a:	46da      	mov	sl, fp
  40772c:	e422      	b.n	406f74 <_vfiprintf_r+0x3c4>
  40772e:	2230      	movs	r2, #48	; 0x30
  407730:	f88d 2030 	strb.w	r2, [sp, #48]	; 0x30
  407734:	9a01      	ldr	r2, [sp, #4]
  407736:	f88d 3031 	strb.w	r3, [sp, #49]	; 0x31
  40773a:	2a00      	cmp	r2, #0
  40773c:	f04f 0300 	mov.w	r3, #0
  407740:	f88d 302f 	strb.w	r3, [sp, #47]	; 0x2f
  407744:	f046 0302 	orr.w	r3, r6, #2
  407748:	f2c0 80cb 	blt.w	4078e2 <_vfiprintf_r+0xd32>
  40774c:	f026 0680 	bic.w	r6, r6, #128	; 0x80
  407750:	f046 0602 	orr.w	r6, r6, #2
  407754:	f04f 0900 	mov.w	r9, #0
  407758:	e742      	b.n	4075e0 <_vfiprintf_r+0xa30>
  40775a:	f04f 0900 	mov.w	r9, #0
  40775e:	4890      	ldr	r0, [pc, #576]	; (4079a0 <_vfiprintf_r+0xdf0>)
  407760:	e73e      	b.n	4075e0 <_vfiprintf_r+0xa30>
  407762:	9b01      	ldr	r3, [sp, #4]
  407764:	4264      	negs	r4, r4
  407766:	f04f 092d 	mov.w	r9, #45	; 0x2d
  40776a:	eb65 0545 	sbc.w	r5, r5, r5, lsl #1
  40776e:	2b00      	cmp	r3, #0
  407770:	f88d 902f 	strb.w	r9, [sp, #47]	; 0x2f
  407774:	f6ff ac7b 	blt.w	40706e <_vfiprintf_r+0x4be>
  407778:	f026 0680 	bic.w	r6, r6, #128	; 0x80
  40777c:	e477      	b.n	40706e <_vfiprintf_r+0x4be>
  40777e:	9b07      	ldr	r3, [sp, #28]
  407780:	2b00      	cmp	r3, #0
  407782:	d072      	beq.n	40786a <_vfiprintf_r+0xcba>
  407784:	ab0c      	add	r3, sp, #48	; 0x30
  407786:	2202      	movs	r2, #2
  407788:	931a      	str	r3, [sp, #104]	; 0x68
  40778a:	921b      	str	r2, [sp, #108]	; 0x6c
  40778c:	f04f 0e01 	mov.w	lr, #1
  407790:	46da      	mov	sl, fp
  407792:	e713      	b.n	4075bc <_vfiprintf_r+0xa0c>
  407794:	f016 0940 	ands.w	r9, r6, #64	; 0x40
  407798:	d048      	beq.n	40782c <_vfiprintf_r+0xc7c>
  40779a:	9904      	ldr	r1, [sp, #16]
  40779c:	f88d 202f 	strb.w	r2, [sp, #47]	; 0x2f
  4077a0:	460b      	mov	r3, r1
  4077a2:	880c      	ldrh	r4, [r1, #0]
  4077a4:	9901      	ldr	r1, [sp, #4]
  4077a6:	2900      	cmp	r1, #0
  4077a8:	f103 0304 	add.w	r3, r3, #4
  4077ac:	f04f 0500 	mov.w	r5, #0
  4077b0:	f6ff ae10 	blt.w	4073d4 <_vfiprintf_r+0x824>
  4077b4:	ea54 0105 	orrs.w	r1, r4, r5
  4077b8:	f026 0680 	bic.w	r6, r6, #128	; 0x80
  4077bc:	9304      	str	r3, [sp, #16]
  4077be:	f43f ac9c 	beq.w	4070fa <_vfiprintf_r+0x54a>
  4077c2:	4691      	mov	r9, r2
  4077c4:	e4a1      	b.n	40710a <_vfiprintf_r+0x55a>
  4077c6:	06f0      	lsls	r0, r6, #27
  4077c8:	d40a      	bmi.n	4077e0 <_vfiprintf_r+0xc30>
  4077ca:	0671      	lsls	r1, r6, #25
  4077cc:	d508      	bpl.n	4077e0 <_vfiprintf_r+0xc30>
  4077ce:	9a04      	ldr	r2, [sp, #16]
  4077d0:	6813      	ldr	r3, [r2, #0]
  4077d2:	3204      	adds	r2, #4
  4077d4:	9204      	str	r2, [sp, #16]
  4077d6:	f8bd 2008 	ldrh.w	r2, [sp, #8]
  4077da:	801a      	strh	r2, [r3, #0]
  4077dc:	f7ff ba19 	b.w	406c12 <_vfiprintf_r+0x62>
  4077e0:	9a04      	ldr	r2, [sp, #16]
  4077e2:	6813      	ldr	r3, [r2, #0]
  4077e4:	3204      	adds	r2, #4
  4077e6:	9204      	str	r2, [sp, #16]
  4077e8:	9a02      	ldr	r2, [sp, #8]
  4077ea:	601a      	str	r2, [r3, #0]
  4077ec:	f7ff ba11 	b.w	406c12 <_vfiprintf_r+0x62>
  4077f0:	aa0d      	add	r2, sp, #52	; 0x34
  4077f2:	9900      	ldr	r1, [sp, #0]
  4077f4:	9805      	ldr	r0, [sp, #20]
  4077f6:	f7ff f99f 	bl	406b38 <__sprint_r.part.0>
  4077fa:	2800      	cmp	r0, #0
  4077fc:	f47f ae76 	bne.w	4074ec <_vfiprintf_r+0x93c>
  407800:	980e      	ldr	r0, [sp, #56]	; 0x38
  407802:	9a0f      	ldr	r2, [sp, #60]	; 0x3c
  407804:	f100 0e01 	add.w	lr, r0, #1
  407808:	46da      	mov	sl, fp
  40780a:	e5fa      	b.n	407402 <_vfiprintf_r+0x852>
  40780c:	f04f 30ff 	mov.w	r0, #4294967295
  407810:	f7ff bab6 	b.w	406d80 <_vfiprintf_r+0x1d0>
  407814:	4862      	ldr	r0, [pc, #392]	; (4079a0 <_vfiprintf_r+0xdf0>)
  407816:	4616      	mov	r6, r2
  407818:	ea54 0205 	orrs.w	r2, r4, r5
  40781c:	9304      	str	r3, [sp, #16]
  40781e:	f04f 0900 	mov.w	r9, #0
  407822:	f47f aedd 	bne.w	4075e0 <_vfiprintf_r+0xa30>
  407826:	e6fc      	b.n	407622 <_vfiprintf_r+0xa72>
  407828:	9b04      	ldr	r3, [sp, #16]
  40782a:	e7f5      	b.n	407818 <_vfiprintf_r+0xc68>
  40782c:	9a04      	ldr	r2, [sp, #16]
  40782e:	f88d 902f 	strb.w	r9, [sp, #47]	; 0x2f
  407832:	4613      	mov	r3, r2
  407834:	6814      	ldr	r4, [r2, #0]
  407836:	9a01      	ldr	r2, [sp, #4]
  407838:	2a00      	cmp	r2, #0
  40783a:	f103 0304 	add.w	r3, r3, #4
  40783e:	f04f 0500 	mov.w	r5, #0
  407842:	f6ff adc7 	blt.w	4073d4 <_vfiprintf_r+0x824>
  407846:	ea54 0205 	orrs.w	r2, r4, r5
  40784a:	f026 0680 	bic.w	r6, r6, #128	; 0x80
  40784e:	9304      	str	r3, [sp, #16]
  407850:	f47f ac5b 	bne.w	40710a <_vfiprintf_r+0x55a>
  407854:	e451      	b.n	4070fa <_vfiprintf_r+0x54a>
  407856:	aa0d      	add	r2, sp, #52	; 0x34
  407858:	9900      	ldr	r1, [sp, #0]
  40785a:	9805      	ldr	r0, [sp, #20]
  40785c:	f7ff f96c 	bl	406b38 <__sprint_r.part.0>
  407860:	2800      	cmp	r0, #0
  407862:	f47f ae43 	bne.w	4074ec <_vfiprintf_r+0x93c>
  407866:	9a0f      	ldr	r2, [sp, #60]	; 0x3c
  407868:	e668      	b.n	40753c <_vfiprintf_r+0x98c>
  40786a:	4610      	mov	r0, r2
  40786c:	f04f 0e01 	mov.w	lr, #1
  407870:	46da      	mov	sl, fp
  407872:	e5e6      	b.n	407442 <_vfiprintf_r+0x892>
  407874:	9904      	ldr	r1, [sp, #16]
  407876:	f88d 302f 	strb.w	r3, [sp, #47]	; 0x2f
  40787a:	460a      	mov	r2, r1
  40787c:	880c      	ldrh	r4, [r1, #0]
  40787e:	9901      	ldr	r1, [sp, #4]
  407880:	2900      	cmp	r1, #0
  407882:	f102 0204 	add.w	r2, r2, #4
  407886:	f04f 0500 	mov.w	r5, #0
  40788a:	db4e      	blt.n	40792a <_vfiprintf_r+0xd7a>
  40788c:	ea54 0105 	orrs.w	r1, r4, r5
  407890:	f026 0680 	bic.w	r6, r6, #128	; 0x80
  407894:	9204      	str	r2, [sp, #16]
  407896:	4699      	mov	r9, r3
  407898:	f47f abe9 	bne.w	40706e <_vfiprintf_r+0x4be>
  40789c:	e4d4      	b.n	407248 <_vfiprintf_r+0x698>
  40789e:	9304      	str	r3, [sp, #16]
  4078a0:	e6f9      	b.n	407696 <_vfiprintf_r+0xae6>
  4078a2:	4638      	mov	r0, r7
  4078a4:	9404      	str	r4, [sp, #16]
  4078a6:	f7fd fd8b 	bl	4053c0 <strlen>
  4078aa:	2300      	movs	r3, #0
  4078ac:	9003      	str	r0, [sp, #12]
  4078ae:	f89d 902f 	ldrb.w	r9, [sp, #47]	; 0x2f
  4078b2:	9301      	str	r3, [sp, #4]
  4078b4:	f7ff ba9c 	b.w	406df0 <_vfiprintf_r+0x240>
  4078b8:	aa0d      	add	r2, sp, #52	; 0x34
  4078ba:	9900      	ldr	r1, [sp, #0]
  4078bc:	9805      	ldr	r0, [sp, #20]
  4078be:	f7ff f93b 	bl	406b38 <__sprint_r.part.0>
  4078c2:	2800      	cmp	r0, #0
  4078c4:	f47f ae12 	bne.w	4074ec <_vfiprintf_r+0x93c>
  4078c8:	980e      	ldr	r0, [sp, #56]	; 0x38
  4078ca:	9a0f      	ldr	r2, [sp, #60]	; 0x3c
  4078cc:	f100 0e01 	add.w	lr, r0, #1
  4078d0:	46da      	mov	sl, fp
  4078d2:	e5b6      	b.n	407442 <_vfiprintf_r+0x892>
  4078d4:	980e      	ldr	r0, [sp, #56]	; 0x38
  4078d6:	9a0f      	ldr	r2, [sp, #60]	; 0x3c
  4078d8:	f8df 90cc 	ldr.w	r9, [pc, #204]	; 4079a8 <_vfiprintf_r+0xdf8>
  4078dc:	3001      	adds	r0, #1
  4078de:	f7ff bad2 	b.w	406e86 <_vfiprintf_r+0x2d6>
  4078e2:	461e      	mov	r6, r3
  4078e4:	f04f 0900 	mov.w	r9, #0
  4078e8:	e67a      	b.n	4075e0 <_vfiprintf_r+0xa30>
  4078ea:	2b06      	cmp	r3, #6
  4078ec:	bf28      	it	cs
  4078ee:	2306      	movcs	r3, #6
  4078f0:	9303      	str	r3, [sp, #12]
  4078f2:	9404      	str	r4, [sp, #16]
  4078f4:	ea23 75e3 	bic.w	r5, r3, r3, asr #31
  4078f8:	4f2a      	ldr	r7, [pc, #168]	; (4079a4 <_vfiprintf_r+0xdf4>)
  4078fa:	e50c      	b.n	407316 <_vfiprintf_r+0x766>
  4078fc:	9204      	str	r2, [sp, #16]
  4078fe:	e56a      	b.n	4073d6 <_vfiprintf_r+0x826>
  407900:	980e      	ldr	r0, [sp, #56]	; 0x38
  407902:	f8df 90a4 	ldr.w	r9, [pc, #164]	; 4079a8 <_vfiprintf_r+0xdf8>
  407906:	3001      	adds	r0, #1
  407908:	f7ff bb73 	b.w	406ff2 <_vfiprintf_r+0x442>
  40790c:	46f4      	mov	ip, lr
  40790e:	f7ff bb1a 	b.w	406f46 <_vfiprintf_r+0x396>
  407912:	9b01      	ldr	r3, [sp, #4]
  407914:	f89d 902f 	ldrb.w	r9, [sp, #47]	; 0x2f
  407918:	9303      	str	r3, [sp, #12]
  40791a:	9404      	str	r4, [sp, #16]
  40791c:	9001      	str	r0, [sp, #4]
  40791e:	f7ff ba67 	b.w	406df0 <_vfiprintf_r+0x240>
  407922:	2200      	movs	r2, #0
  407924:	9201      	str	r2, [sp, #4]
  407926:	f7ff b9ac 	b.w	406c82 <_vfiprintf_r+0xd2>
  40792a:	9204      	str	r2, [sp, #16]
  40792c:	4699      	mov	r9, r3
  40792e:	e6b2      	b.n	407696 <_vfiprintf_r+0xae6>
  407930:	9a04      	ldr	r2, [sp, #16]
  407932:	6813      	ldr	r3, [r2, #0]
  407934:	9301      	str	r3, [sp, #4]
  407936:	3204      	adds	r2, #4
  407938:	2b00      	cmp	r3, #0
  40793a:	9204      	str	r2, [sp, #16]
  40793c:	f898 3001 	ldrb.w	r3, [r8, #1]
  407940:	46a8      	mov	r8, r5
  407942:	f6bf a99c 	bge.w	406c7e <_vfiprintf_r+0xce>
  407946:	f04f 32ff 	mov.w	r2, #4294967295
  40794a:	9201      	str	r2, [sp, #4]
  40794c:	f7ff b997 	b.w	406c7e <_vfiprintf_r+0xce>
  407950:	f88d 002f 	strb.w	r0, [sp, #47]	; 0x2f
  407954:	e48e      	b.n	407274 <_vfiprintf_r+0x6c4>
  407956:	f88d 002f 	strb.w	r0, [sp, #47]	; 0x2f
  40795a:	e4f0      	b.n	40733e <_vfiprintf_r+0x78e>
  40795c:	f88d 002f 	strb.w	r0, [sp, #47]	; 0x2f
  407960:	e4ab      	b.n	4072ba <_vfiprintf_r+0x70a>
  407962:	4699      	mov	r9, r3
  407964:	07f3      	lsls	r3, r6, #31
  407966:	d505      	bpl.n	407974 <_vfiprintf_r+0xdc4>
  407968:	af2a      	add	r7, sp, #168	; 0xa8
  40796a:	2330      	movs	r3, #48	; 0x30
  40796c:	f807 3d41 	strb.w	r3, [r7, #-65]!
  407970:	f7ff bb97 	b.w	4070a2 <_vfiprintf_r+0x4f2>
  407974:	9b01      	ldr	r3, [sp, #4]
  407976:	9303      	str	r3, [sp, #12]
  407978:	465f      	mov	r7, fp
  40797a:	f7ff ba39 	b.w	406df0 <_vfiprintf_r+0x240>
  40797e:	f88d 002f 	strb.w	r0, [sp, #47]	; 0x2f
  407982:	e443      	b.n	40720c <_vfiprintf_r+0x65c>
  407984:	f88d 002f 	strb.w	r0, [sp, #47]	; 0x2f
  407988:	f7ff bb9a 	b.w	4070c0 <_vfiprintf_r+0x510>
  40798c:	f88d 002f 	strb.w	r0, [sp, #47]	; 0x2f
  407990:	f7ff bb4d 	b.w	40702e <_vfiprintf_r+0x47e>
  407994:	f88d 002f 	strb.w	r0, [sp, #47]	; 0x2f
  407998:	e50f      	b.n	4073ba <_vfiprintf_r+0x80a>
  40799a:	f88d 002f 	strb.w	r0, [sp, #47]	; 0x2f
  40799e:	e4f3      	b.n	407388 <_vfiprintf_r+0x7d8>
  4079a0:	0040cb1c 	.word	0x0040cb1c
  4079a4:	0040cb30 	.word	0x0040cb30
  4079a8:	0040cb5c 	.word	0x0040cb5c

004079ac <__sbprintf>:
  4079ac:	b5f0      	push	{r4, r5, r6, r7, lr}
  4079ae:	460c      	mov	r4, r1
  4079b0:	f2ad 4d6c 	subw	sp, sp, #1132	; 0x46c
  4079b4:	8989      	ldrh	r1, [r1, #12]
  4079b6:	6e66      	ldr	r6, [r4, #100]	; 0x64
  4079b8:	89e5      	ldrh	r5, [r4, #14]
  4079ba:	9619      	str	r6, [sp, #100]	; 0x64
  4079bc:	f021 0102 	bic.w	r1, r1, #2
  4079c0:	6a66      	ldr	r6, [r4, #36]	; 0x24
  4079c2:	f8ad 500e 	strh.w	r5, [sp, #14]
  4079c6:	2500      	movs	r5, #0
  4079c8:	69e7      	ldr	r7, [r4, #28]
  4079ca:	f8ad 100c 	strh.w	r1, [sp, #12]
  4079ce:	9609      	str	r6, [sp, #36]	; 0x24
  4079d0:	9506      	str	r5, [sp, #24]
  4079d2:	ae1a      	add	r6, sp, #104	; 0x68
  4079d4:	f44f 6580 	mov.w	r5, #1024	; 0x400
  4079d8:	4669      	mov	r1, sp
  4079da:	9600      	str	r6, [sp, #0]
  4079dc:	9604      	str	r6, [sp, #16]
  4079de:	9502      	str	r5, [sp, #8]
  4079e0:	9505      	str	r5, [sp, #20]
  4079e2:	9707      	str	r7, [sp, #28]
  4079e4:	4606      	mov	r6, r0
  4079e6:	f7ff f8e3 	bl	406bb0 <_vfiprintf_r>
  4079ea:	1e05      	subs	r5, r0, #0
  4079ec:	db07      	blt.n	4079fe <__sbprintf+0x52>
  4079ee:	4630      	mov	r0, r6
  4079f0:	4669      	mov	r1, sp
  4079f2:	f001 f8e9 	bl	408bc8 <_fflush_r>
  4079f6:	2800      	cmp	r0, #0
  4079f8:	bf18      	it	ne
  4079fa:	f04f 35ff 	movne.w	r5, #4294967295
  4079fe:	f8bd 300c 	ldrh.w	r3, [sp, #12]
  407a02:	065b      	lsls	r3, r3, #25
  407a04:	d503      	bpl.n	407a0e <__sbprintf+0x62>
  407a06:	89a3      	ldrh	r3, [r4, #12]
  407a08:	f043 0340 	orr.w	r3, r3, #64	; 0x40
  407a0c:	81a3      	strh	r3, [r4, #12]
  407a0e:	4628      	mov	r0, r5
  407a10:	f20d 4d6c 	addw	sp, sp, #1132	; 0x46c
  407a14:	bdf0      	pop	{r4, r5, r6, r7, pc}
  407a16:	bf00      	nop

00407a18 <__swsetup_r>:
  407a18:	b538      	push	{r3, r4, r5, lr}
  407a1a:	4b30      	ldr	r3, [pc, #192]	; (407adc <__swsetup_r+0xc4>)
  407a1c:	681b      	ldr	r3, [r3, #0]
  407a1e:	4605      	mov	r5, r0
  407a20:	460c      	mov	r4, r1
  407a22:	b113      	cbz	r3, 407a2a <__swsetup_r+0x12>
  407a24:	6b9a      	ldr	r2, [r3, #56]	; 0x38
  407a26:	2a00      	cmp	r2, #0
  407a28:	d038      	beq.n	407a9c <__swsetup_r+0x84>
  407a2a:	f9b4 200c 	ldrsh.w	r2, [r4, #12]
  407a2e:	b293      	uxth	r3, r2
  407a30:	0718      	lsls	r0, r3, #28
  407a32:	d50c      	bpl.n	407a4e <__swsetup_r+0x36>
  407a34:	6920      	ldr	r0, [r4, #16]
  407a36:	b1a8      	cbz	r0, 407a64 <__swsetup_r+0x4c>
  407a38:	f013 0201 	ands.w	r2, r3, #1
  407a3c:	d01e      	beq.n	407a7c <__swsetup_r+0x64>
  407a3e:	6963      	ldr	r3, [r4, #20]
  407a40:	2200      	movs	r2, #0
  407a42:	425b      	negs	r3, r3
  407a44:	61a3      	str	r3, [r4, #24]
  407a46:	60a2      	str	r2, [r4, #8]
  407a48:	b1f0      	cbz	r0, 407a88 <__swsetup_r+0x70>
  407a4a:	2000      	movs	r0, #0
  407a4c:	bd38      	pop	{r3, r4, r5, pc}
  407a4e:	06d9      	lsls	r1, r3, #27
  407a50:	d53c      	bpl.n	407acc <__swsetup_r+0xb4>
  407a52:	0758      	lsls	r0, r3, #29
  407a54:	d426      	bmi.n	407aa4 <__swsetup_r+0x8c>
  407a56:	6920      	ldr	r0, [r4, #16]
  407a58:	f042 0308 	orr.w	r3, r2, #8
  407a5c:	81a3      	strh	r3, [r4, #12]
  407a5e:	b29b      	uxth	r3, r3
  407a60:	2800      	cmp	r0, #0
  407a62:	d1e9      	bne.n	407a38 <__swsetup_r+0x20>
  407a64:	f403 7220 	and.w	r2, r3, #640	; 0x280
  407a68:	f5b2 7f00 	cmp.w	r2, #512	; 0x200
  407a6c:	d0e4      	beq.n	407a38 <__swsetup_r+0x20>
  407a6e:	4628      	mov	r0, r5
  407a70:	4621      	mov	r1, r4
  407a72:	f001 fcd9 	bl	409428 <__smakebuf_r>
  407a76:	89a3      	ldrh	r3, [r4, #12]
  407a78:	6920      	ldr	r0, [r4, #16]
  407a7a:	e7dd      	b.n	407a38 <__swsetup_r+0x20>
  407a7c:	0799      	lsls	r1, r3, #30
  407a7e:	bf58      	it	pl
  407a80:	6962      	ldrpl	r2, [r4, #20]
  407a82:	60a2      	str	r2, [r4, #8]
  407a84:	2800      	cmp	r0, #0
  407a86:	d1e0      	bne.n	407a4a <__swsetup_r+0x32>
  407a88:	f9b4 300c 	ldrsh.w	r3, [r4, #12]
  407a8c:	061a      	lsls	r2, r3, #24
  407a8e:	d5dd      	bpl.n	407a4c <__swsetup_r+0x34>
  407a90:	f043 0340 	orr.w	r3, r3, #64	; 0x40
  407a94:	81a3      	strh	r3, [r4, #12]
  407a96:	f04f 30ff 	mov.w	r0, #4294967295
  407a9a:	bd38      	pop	{r3, r4, r5, pc}
  407a9c:	4618      	mov	r0, r3
  407a9e:	f001 f927 	bl	408cf0 <__sinit>
  407aa2:	e7c2      	b.n	407a2a <__swsetup_r+0x12>
  407aa4:	6b21      	ldr	r1, [r4, #48]	; 0x30
  407aa6:	b151      	cbz	r1, 407abe <__swsetup_r+0xa6>
  407aa8:	f104 0340 	add.w	r3, r4, #64	; 0x40
  407aac:	4299      	cmp	r1, r3
  407aae:	d004      	beq.n	407aba <__swsetup_r+0xa2>
  407ab0:	4628      	mov	r0, r5
  407ab2:	f001 f9e7 	bl	408e84 <_free_r>
  407ab6:	f9b4 200c 	ldrsh.w	r2, [r4, #12]
  407aba:	2300      	movs	r3, #0
  407abc:	6323      	str	r3, [r4, #48]	; 0x30
  407abe:	2300      	movs	r3, #0
  407ac0:	6920      	ldr	r0, [r4, #16]
  407ac2:	6063      	str	r3, [r4, #4]
  407ac4:	f022 0224 	bic.w	r2, r2, #36	; 0x24
  407ac8:	6020      	str	r0, [r4, #0]
  407aca:	e7c5      	b.n	407a58 <__swsetup_r+0x40>
  407acc:	f042 0240 	orr.w	r2, r2, #64	; 0x40
  407ad0:	2309      	movs	r3, #9
  407ad2:	602b      	str	r3, [r5, #0]
  407ad4:	f04f 30ff 	mov.w	r0, #4294967295
  407ad8:	81a2      	strh	r2, [r4, #12]
  407ada:	bd38      	pop	{r3, r4, r5, pc}
  407adc:	20400470 	.word	0x20400470

00407ae0 <register_fini>:
  407ae0:	4b02      	ldr	r3, [pc, #8]	; (407aec <register_fini+0xc>)
  407ae2:	b113      	cbz	r3, 407aea <register_fini+0xa>
  407ae4:	4802      	ldr	r0, [pc, #8]	; (407af0 <register_fini+0x10>)
  407ae6:	f000 b805 	b.w	407af4 <atexit>
  407aea:	4770      	bx	lr
  407aec:	00000000 	.word	0x00000000
  407af0:	00408d05 	.word	0x00408d05

00407af4 <atexit>:
  407af4:	2300      	movs	r3, #0
  407af6:	4601      	mov	r1, r0
  407af8:	461a      	mov	r2, r3
  407afa:	4618      	mov	r0, r3
  407afc:	f002 bf62 	b.w	40a9c4 <__register_exitproc>

00407b00 <quorem>:
  407b00:	6902      	ldr	r2, [r0, #16]
  407b02:	690b      	ldr	r3, [r1, #16]
  407b04:	4293      	cmp	r3, r2
  407b06:	f300 808d 	bgt.w	407c24 <quorem+0x124>
  407b0a:	e92d 4ff0 	stmdb	sp!, {r4, r5, r6, r7, r8, r9, sl, fp, lr}
  407b0e:	f103 38ff 	add.w	r8, r3, #4294967295
  407b12:	f101 0714 	add.w	r7, r1, #20
  407b16:	f100 0b14 	add.w	fp, r0, #20
  407b1a:	f857 2028 	ldr.w	r2, [r7, r8, lsl #2]
  407b1e:	f85b 3028 	ldr.w	r3, [fp, r8, lsl #2]
  407b22:	ea4f 0488 	mov.w	r4, r8, lsl #2
  407b26:	b083      	sub	sp, #12
  407b28:	3201      	adds	r2, #1
  407b2a:	fbb3 f9f2 	udiv	r9, r3, r2
  407b2e:	eb0b 0304 	add.w	r3, fp, r4
  407b32:	9400      	str	r4, [sp, #0]
  407b34:	eb07 0a04 	add.w	sl, r7, r4
  407b38:	9301      	str	r3, [sp, #4]
  407b3a:	f1b9 0f00 	cmp.w	r9, #0
  407b3e:	d039      	beq.n	407bb4 <quorem+0xb4>
  407b40:	2500      	movs	r5, #0
  407b42:	46bc      	mov	ip, r7
  407b44:	46de      	mov	lr, fp
  407b46:	462b      	mov	r3, r5
  407b48:	f85c 6b04 	ldr.w	r6, [ip], #4
  407b4c:	f8de 2000 	ldr.w	r2, [lr]
  407b50:	b2b4      	uxth	r4, r6
  407b52:	fb09 5504 	mla	r5, r9, r4, r5
  407b56:	0c36      	lsrs	r6, r6, #16
  407b58:	0c2c      	lsrs	r4, r5, #16
  407b5a:	fb09 4406 	mla	r4, r9, r6, r4
  407b5e:	b2ad      	uxth	r5, r5
  407b60:	1b5b      	subs	r3, r3, r5
  407b62:	b2a6      	uxth	r6, r4
  407b64:	fa13 f382 	uxtah	r3, r3, r2
  407b68:	ebc6 4612 	rsb	r6, r6, r2, lsr #16
  407b6c:	eb06 4623 	add.w	r6, r6, r3, asr #16
  407b70:	b29b      	uxth	r3, r3
  407b72:	ea43 4306 	orr.w	r3, r3, r6, lsl #16
  407b76:	45e2      	cmp	sl, ip
  407b78:	f84e 3b04 	str.w	r3, [lr], #4
  407b7c:	ea4f 4514 	mov.w	r5, r4, lsr #16
  407b80:	ea4f 4326 	mov.w	r3, r6, asr #16
  407b84:	d2e0      	bcs.n	407b48 <quorem+0x48>
  407b86:	9b00      	ldr	r3, [sp, #0]
  407b88:	f85b 3003 	ldr.w	r3, [fp, r3]
  407b8c:	b993      	cbnz	r3, 407bb4 <quorem+0xb4>
  407b8e:	9c01      	ldr	r4, [sp, #4]
  407b90:	1f23      	subs	r3, r4, #4
  407b92:	459b      	cmp	fp, r3
  407b94:	d20c      	bcs.n	407bb0 <quorem+0xb0>
  407b96:	f854 3c04 	ldr.w	r3, [r4, #-4]
  407b9a:	b94b      	cbnz	r3, 407bb0 <quorem+0xb0>
  407b9c:	f1a4 0308 	sub.w	r3, r4, #8
  407ba0:	e002      	b.n	407ba8 <quorem+0xa8>
  407ba2:	681a      	ldr	r2, [r3, #0]
  407ba4:	3b04      	subs	r3, #4
  407ba6:	b91a      	cbnz	r2, 407bb0 <quorem+0xb0>
  407ba8:	459b      	cmp	fp, r3
  407baa:	f108 38ff 	add.w	r8, r8, #4294967295
  407bae:	d3f8      	bcc.n	407ba2 <quorem+0xa2>
  407bb0:	f8c0 8010 	str.w	r8, [r0, #16]
  407bb4:	4604      	mov	r4, r0
  407bb6:	f002 fa95 	bl	40a0e4 <__mcmp>
  407bba:	2800      	cmp	r0, #0
  407bbc:	db2e      	blt.n	407c1c <quorem+0x11c>
  407bbe:	f109 0901 	add.w	r9, r9, #1
  407bc2:	465d      	mov	r5, fp
  407bc4:	2300      	movs	r3, #0
  407bc6:	f857 1b04 	ldr.w	r1, [r7], #4
  407bca:	6828      	ldr	r0, [r5, #0]
  407bcc:	b28a      	uxth	r2, r1
  407bce:	1a9a      	subs	r2, r3, r2
  407bd0:	0c09      	lsrs	r1, r1, #16
  407bd2:	fa12 f280 	uxtah	r2, r2, r0
  407bd6:	ebc1 4310 	rsb	r3, r1, r0, lsr #16
  407bda:	eb03 4322 	add.w	r3, r3, r2, asr #16
  407bde:	b291      	uxth	r1, r2
  407be0:	ea41 4103 	orr.w	r1, r1, r3, lsl #16
  407be4:	45ba      	cmp	sl, r7
  407be6:	f845 1b04 	str.w	r1, [r5], #4
  407bea:	ea4f 4323 	mov.w	r3, r3, asr #16
  407bee:	d2ea      	bcs.n	407bc6 <quorem+0xc6>
  407bf0:	f85b 2028 	ldr.w	r2, [fp, r8, lsl #2]
  407bf4:	eb0b 0388 	add.w	r3, fp, r8, lsl #2
  407bf8:	b982      	cbnz	r2, 407c1c <quorem+0x11c>
  407bfa:	1f1a      	subs	r2, r3, #4
  407bfc:	4593      	cmp	fp, r2
  407bfe:	d20b      	bcs.n	407c18 <quorem+0x118>
  407c00:	f853 2c04 	ldr.w	r2, [r3, #-4]
  407c04:	b942      	cbnz	r2, 407c18 <quorem+0x118>
  407c06:	3b08      	subs	r3, #8
  407c08:	e002      	b.n	407c10 <quorem+0x110>
  407c0a:	681a      	ldr	r2, [r3, #0]
  407c0c:	3b04      	subs	r3, #4
  407c0e:	b91a      	cbnz	r2, 407c18 <quorem+0x118>
  407c10:	459b      	cmp	fp, r3
  407c12:	f108 38ff 	add.w	r8, r8, #4294967295
  407c16:	d3f8      	bcc.n	407c0a <quorem+0x10a>
  407c18:	f8c4 8010 	str.w	r8, [r4, #16]
  407c1c:	4648      	mov	r0, r9
  407c1e:	b003      	add	sp, #12
  407c20:	e8bd 8ff0 	ldmia.w	sp!, {r4, r5, r6, r7, r8, r9, sl, fp, pc}
  407c24:	2000      	movs	r0, #0
  407c26:	4770      	bx	lr

00407c28 <_dtoa_r>:
  407c28:	e92d 4ff0 	stmdb	sp!, {r4, r5, r6, r7, r8, r9, sl, fp, lr}
  407c2c:	6c01      	ldr	r1, [r0, #64]	; 0x40
  407c2e:	b097      	sub	sp, #92	; 0x5c
  407c30:	4681      	mov	r9, r0
  407c32:	9c23      	ldr	r4, [sp, #140]	; 0x8c
  407c34:	4692      	mov	sl, r2
  407c36:	469b      	mov	fp, r3
  407c38:	b149      	cbz	r1, 407c4e <_dtoa_r+0x26>
  407c3a:	6c42      	ldr	r2, [r0, #68]	; 0x44
  407c3c:	604a      	str	r2, [r1, #4]
  407c3e:	2301      	movs	r3, #1
  407c40:	4093      	lsls	r3, r2
  407c42:	608b      	str	r3, [r1, #8]
  407c44:	f002 f86c 	bl	409d20 <_Bfree>
  407c48:	2300      	movs	r3, #0
  407c4a:	f8c9 3040 	str.w	r3, [r9, #64]	; 0x40
  407c4e:	f1bb 0f00 	cmp.w	fp, #0
  407c52:	46d8      	mov	r8, fp
  407c54:	db33      	blt.n	407cbe <_dtoa_r+0x96>
  407c56:	2300      	movs	r3, #0
  407c58:	6023      	str	r3, [r4, #0]
  407c5a:	4ba5      	ldr	r3, [pc, #660]	; (407ef0 <_dtoa_r+0x2c8>)
  407c5c:	461a      	mov	r2, r3
  407c5e:	ea08 0303 	and.w	r3, r8, r3
  407c62:	4293      	cmp	r3, r2
  407c64:	d014      	beq.n	407c90 <_dtoa_r+0x68>
  407c66:	4650      	mov	r0, sl
  407c68:	4659      	mov	r1, fp
  407c6a:	2200      	movs	r2, #0
  407c6c:	2300      	movs	r3, #0
  407c6e:	f003 fbf1 	bl	40b454 <__aeabi_dcmpeq>
  407c72:	4605      	mov	r5, r0
  407c74:	b348      	cbz	r0, 407cca <_dtoa_r+0xa2>
  407c76:	9a22      	ldr	r2, [sp, #136]	; 0x88
  407c78:	2301      	movs	r3, #1
  407c7a:	6013      	str	r3, [r2, #0]
  407c7c:	9b24      	ldr	r3, [sp, #144]	; 0x90
  407c7e:	2b00      	cmp	r3, #0
  407c80:	f000 80c5 	beq.w	407e0e <_dtoa_r+0x1e6>
  407c84:	489b      	ldr	r0, [pc, #620]	; (407ef4 <_dtoa_r+0x2cc>)
  407c86:	6018      	str	r0, [r3, #0]
  407c88:	3801      	subs	r0, #1
  407c8a:	b017      	add	sp, #92	; 0x5c
  407c8c:	e8bd 8ff0 	ldmia.w	sp!, {r4, r5, r6, r7, r8, r9, sl, fp, pc}
  407c90:	9a22      	ldr	r2, [sp, #136]	; 0x88
  407c92:	f242 730f 	movw	r3, #9999	; 0x270f
  407c96:	6013      	str	r3, [r2, #0]
  407c98:	f1ba 0f00 	cmp.w	sl, #0
  407c9c:	f000 80a2 	beq.w	407de4 <_dtoa_r+0x1bc>
  407ca0:	4895      	ldr	r0, [pc, #596]	; (407ef8 <_dtoa_r+0x2d0>)
  407ca2:	9b24      	ldr	r3, [sp, #144]	; 0x90
  407ca4:	2b00      	cmp	r3, #0
  407ca6:	d0f0      	beq.n	407c8a <_dtoa_r+0x62>
  407ca8:	78c3      	ldrb	r3, [r0, #3]
  407caa:	2b00      	cmp	r3, #0
  407cac:	f000 80b1 	beq.w	407e12 <_dtoa_r+0x1ea>
  407cb0:	f100 0308 	add.w	r3, r0, #8
  407cb4:	9a24      	ldr	r2, [sp, #144]	; 0x90
  407cb6:	6013      	str	r3, [r2, #0]
  407cb8:	b017      	add	sp, #92	; 0x5c
  407cba:	e8bd 8ff0 	ldmia.w	sp!, {r4, r5, r6, r7, r8, r9, sl, fp, pc}
  407cbe:	2301      	movs	r3, #1
  407cc0:	f02b 4800 	bic.w	r8, fp, #2147483648	; 0x80000000
  407cc4:	6023      	str	r3, [r4, #0]
  407cc6:	46c3      	mov	fp, r8
  407cc8:	e7c7      	b.n	407c5a <_dtoa_r+0x32>
  407cca:	aa14      	add	r2, sp, #80	; 0x50
  407ccc:	ab15      	add	r3, sp, #84	; 0x54
  407cce:	9201      	str	r2, [sp, #4]
  407cd0:	9300      	str	r3, [sp, #0]
  407cd2:	4652      	mov	r2, sl
  407cd4:	465b      	mov	r3, fp
  407cd6:	4648      	mov	r0, r9
  407cd8:	f002 faae 	bl	40a238 <__d2b>
  407cdc:	ea5f 5418 	movs.w	r4, r8, lsr #20
  407ce0:	9008      	str	r0, [sp, #32]
  407ce2:	f040 8088 	bne.w	407df6 <_dtoa_r+0x1ce>
  407ce6:	9d14      	ldr	r5, [sp, #80]	; 0x50
  407ce8:	9c15      	ldr	r4, [sp, #84]	; 0x54
  407cea:	442c      	add	r4, r5
  407cec:	f204 4332 	addw	r3, r4, #1074	; 0x432
  407cf0:	2b20      	cmp	r3, #32
  407cf2:	f340 8291 	ble.w	408218 <_dtoa_r+0x5f0>
  407cf6:	f1c3 0340 	rsb	r3, r3, #64	; 0x40
  407cfa:	f204 4012 	addw	r0, r4, #1042	; 0x412
  407cfe:	fa08 f803 	lsl.w	r8, r8, r3
  407d02:	fa2a f000 	lsr.w	r0, sl, r0
  407d06:	ea40 0008 	orr.w	r0, r0, r8
  407d0a:	f003 f8c5 	bl	40ae98 <__aeabi_ui2d>
  407d0e:	2301      	movs	r3, #1
  407d10:	3c01      	subs	r4, #1
  407d12:	f1a1 71f8 	sub.w	r1, r1, #32505856	; 0x1f00000
  407d16:	9310      	str	r3, [sp, #64]	; 0x40
  407d18:	2200      	movs	r2, #0
  407d1a:	4b78      	ldr	r3, [pc, #480]	; (407efc <_dtoa_r+0x2d4>)
  407d1c:	f002 ff7e 	bl	40ac1c <__aeabi_dsub>
  407d20:	a36d      	add	r3, pc, #436	; (adr r3, 407ed8 <_dtoa_r+0x2b0>)
  407d22:	e9d3 2300 	ldrd	r2, r3, [r3]
  407d26:	f003 f92d 	bl	40af84 <__aeabi_dmul>
  407d2a:	a36d      	add	r3, pc, #436	; (adr r3, 407ee0 <_dtoa_r+0x2b8>)
  407d2c:	e9d3 2300 	ldrd	r2, r3, [r3]
  407d30:	f002 ff76 	bl	40ac20 <__adddf3>
  407d34:	4606      	mov	r6, r0
  407d36:	4620      	mov	r0, r4
  407d38:	460f      	mov	r7, r1
  407d3a:	f003 f8bd 	bl	40aeb8 <__aeabi_i2d>
  407d3e:	a36a      	add	r3, pc, #424	; (adr r3, 407ee8 <_dtoa_r+0x2c0>)
  407d40:	e9d3 2300 	ldrd	r2, r3, [r3]
  407d44:	f003 f91e 	bl	40af84 <__aeabi_dmul>
  407d48:	4602      	mov	r2, r0
  407d4a:	460b      	mov	r3, r1
  407d4c:	4630      	mov	r0, r6
  407d4e:	4639      	mov	r1, r7
  407d50:	f002 ff66 	bl	40ac20 <__adddf3>
  407d54:	4606      	mov	r6, r0
  407d56:	460f      	mov	r7, r1
  407d58:	f003 fbc4 	bl	40b4e4 <__aeabi_d2iz>
  407d5c:	2200      	movs	r2, #0
  407d5e:	9004      	str	r0, [sp, #16]
  407d60:	2300      	movs	r3, #0
  407d62:	4630      	mov	r0, r6
  407d64:	4639      	mov	r1, r7
  407d66:	f003 fb7f 	bl	40b468 <__aeabi_dcmplt>
  407d6a:	2800      	cmp	r0, #0
  407d6c:	f040 8230 	bne.w	4081d0 <_dtoa_r+0x5a8>
  407d70:	9e04      	ldr	r6, [sp, #16]
  407d72:	2e16      	cmp	r6, #22
  407d74:	f200 8229 	bhi.w	4081ca <_dtoa_r+0x5a2>
  407d78:	4b61      	ldr	r3, [pc, #388]	; (407f00 <_dtoa_r+0x2d8>)
  407d7a:	eb03 03c6 	add.w	r3, r3, r6, lsl #3
  407d7e:	e9d3 0100 	ldrd	r0, r1, [r3]
  407d82:	4652      	mov	r2, sl
  407d84:	465b      	mov	r3, fp
  407d86:	f003 fb8d 	bl	40b4a4 <__aeabi_dcmpgt>
  407d8a:	2800      	cmp	r0, #0
  407d8c:	f000 8249 	beq.w	408222 <_dtoa_r+0x5fa>
  407d90:	1e73      	subs	r3, r6, #1
  407d92:	9304      	str	r3, [sp, #16]
  407d94:	2300      	movs	r3, #0
  407d96:	930c      	str	r3, [sp, #48]	; 0x30
  407d98:	1b2c      	subs	r4, r5, r4
  407d9a:	1e63      	subs	r3, r4, #1
  407d9c:	9302      	str	r3, [sp, #8]
  407d9e:	f100 8232 	bmi.w	408206 <_dtoa_r+0x5de>
  407da2:	2300      	movs	r3, #0
  407da4:	9305      	str	r3, [sp, #20]
  407da6:	9b04      	ldr	r3, [sp, #16]
  407da8:	2b00      	cmp	r3, #0
  407daa:	f2c0 8223 	blt.w	4081f4 <_dtoa_r+0x5cc>
  407dae:	9a02      	ldr	r2, [sp, #8]
  407db0:	930b      	str	r3, [sp, #44]	; 0x2c
  407db2:	4611      	mov	r1, r2
  407db4:	4419      	add	r1, r3
  407db6:	2300      	movs	r3, #0
  407db8:	9102      	str	r1, [sp, #8]
  407dba:	930a      	str	r3, [sp, #40]	; 0x28
  407dbc:	9b20      	ldr	r3, [sp, #128]	; 0x80
  407dbe:	2b09      	cmp	r3, #9
  407dc0:	d829      	bhi.n	407e16 <_dtoa_r+0x1ee>
  407dc2:	2b05      	cmp	r3, #5
  407dc4:	f340 8658 	ble.w	408a78 <_dtoa_r+0xe50>
  407dc8:	3b04      	subs	r3, #4
  407dca:	9320      	str	r3, [sp, #128]	; 0x80
  407dcc:	2500      	movs	r5, #0
  407dce:	9b20      	ldr	r3, [sp, #128]	; 0x80
  407dd0:	3b02      	subs	r3, #2
  407dd2:	2b03      	cmp	r3, #3
  407dd4:	f200 8635 	bhi.w	408a42 <_dtoa_r+0xe1a>
  407dd8:	e8df f013 	tbh	[pc, r3, lsl #1]
  407ddc:	0228032c 	.word	0x0228032c
  407de0:	04590337 	.word	0x04590337
  407de4:	4b44      	ldr	r3, [pc, #272]	; (407ef8 <_dtoa_r+0x2d0>)
  407de6:	4a47      	ldr	r2, [pc, #284]	; (407f04 <_dtoa_r+0x2dc>)
  407de8:	f3c8 0013 	ubfx	r0, r8, #0, #20
  407dec:	2800      	cmp	r0, #0
  407dee:	bf14      	ite	ne
  407df0:	4618      	movne	r0, r3
  407df2:	4610      	moveq	r0, r2
  407df4:	e755      	b.n	407ca2 <_dtoa_r+0x7a>
  407df6:	f3cb 0313 	ubfx	r3, fp, #0, #20
  407dfa:	f043 517f 	orr.w	r1, r3, #1069547520	; 0x3fc00000
  407dfe:	9510      	str	r5, [sp, #64]	; 0x40
  407e00:	4650      	mov	r0, sl
  407e02:	f2a4 34ff 	subw	r4, r4, #1023	; 0x3ff
  407e06:	f441 1140 	orr.w	r1, r1, #3145728	; 0x300000
  407e0a:	9d14      	ldr	r5, [sp, #80]	; 0x50
  407e0c:	e784      	b.n	407d18 <_dtoa_r+0xf0>
  407e0e:	483e      	ldr	r0, [pc, #248]	; (407f08 <_dtoa_r+0x2e0>)
  407e10:	e73b      	b.n	407c8a <_dtoa_r+0x62>
  407e12:	1cc3      	adds	r3, r0, #3
  407e14:	e74e      	b.n	407cb4 <_dtoa_r+0x8c>
  407e16:	2100      	movs	r1, #0
  407e18:	f8c9 1044 	str.w	r1, [r9, #68]	; 0x44
  407e1c:	4648      	mov	r0, r9
  407e1e:	9120      	str	r1, [sp, #128]	; 0x80
  407e20:	f001 ff58 	bl	409cd4 <_Balloc>
  407e24:	f04f 33ff 	mov.w	r3, #4294967295
  407e28:	9306      	str	r3, [sp, #24]
  407e2a:	9a20      	ldr	r2, [sp, #128]	; 0x80
  407e2c:	930d      	str	r3, [sp, #52]	; 0x34
  407e2e:	2301      	movs	r3, #1
  407e30:	9007      	str	r0, [sp, #28]
  407e32:	9221      	str	r2, [sp, #132]	; 0x84
  407e34:	f8c9 0040 	str.w	r0, [r9, #64]	; 0x40
  407e38:	9309      	str	r3, [sp, #36]	; 0x24
  407e3a:	9b15      	ldr	r3, [sp, #84]	; 0x54
  407e3c:	2b00      	cmp	r3, #0
  407e3e:	f2c0 80d1 	blt.w	407fe4 <_dtoa_r+0x3bc>
  407e42:	9a04      	ldr	r2, [sp, #16]
  407e44:	2a0e      	cmp	r2, #14
  407e46:	f300 80cd 	bgt.w	407fe4 <_dtoa_r+0x3bc>
  407e4a:	4b2d      	ldr	r3, [pc, #180]	; (407f00 <_dtoa_r+0x2d8>)
  407e4c:	eb03 03c2 	add.w	r3, r3, r2, lsl #3
  407e50:	e9d3 3400 	ldrd	r3, r4, [r3]
  407e54:	e9cd 3402 	strd	r3, r4, [sp, #8]
  407e58:	9b21      	ldr	r3, [sp, #132]	; 0x84
  407e5a:	2b00      	cmp	r3, #0
  407e5c:	f2c0 8300 	blt.w	408460 <_dtoa_r+0x838>
  407e60:	4656      	mov	r6, sl
  407e62:	465f      	mov	r7, fp
  407e64:	4650      	mov	r0, sl
  407e66:	4659      	mov	r1, fp
  407e68:	e9dd ab02 	ldrd	sl, fp, [sp, #8]
  407e6c:	4652      	mov	r2, sl
  407e6e:	465b      	mov	r3, fp
  407e70:	f003 f9b2 	bl	40b1d8 <__aeabi_ddiv>
  407e74:	f003 fb36 	bl	40b4e4 <__aeabi_d2iz>
  407e78:	4604      	mov	r4, r0
  407e7a:	f003 f81d 	bl	40aeb8 <__aeabi_i2d>
  407e7e:	4652      	mov	r2, sl
  407e80:	465b      	mov	r3, fp
  407e82:	f003 f87f 	bl	40af84 <__aeabi_dmul>
  407e86:	460b      	mov	r3, r1
  407e88:	4602      	mov	r2, r0
  407e8a:	4639      	mov	r1, r7
  407e8c:	4630      	mov	r0, r6
  407e8e:	f002 fec5 	bl	40ac1c <__aeabi_dsub>
  407e92:	9d07      	ldr	r5, [sp, #28]
  407e94:	f104 0330 	add.w	r3, r4, #48	; 0x30
  407e98:	702b      	strb	r3, [r5, #0]
  407e9a:	9b06      	ldr	r3, [sp, #24]
  407e9c:	2b01      	cmp	r3, #1
  407e9e:	4606      	mov	r6, r0
  407ea0:	460f      	mov	r7, r1
  407ea2:	f105 0501 	add.w	r5, r5, #1
  407ea6:	d062      	beq.n	407f6e <_dtoa_r+0x346>
  407ea8:	2200      	movs	r2, #0
  407eaa:	4b18      	ldr	r3, [pc, #96]	; (407f0c <_dtoa_r+0x2e4>)
  407eac:	f003 f86a 	bl	40af84 <__aeabi_dmul>
  407eb0:	2200      	movs	r2, #0
  407eb2:	2300      	movs	r3, #0
  407eb4:	4606      	mov	r6, r0
  407eb6:	460f      	mov	r7, r1
  407eb8:	f003 facc 	bl	40b454 <__aeabi_dcmpeq>
  407ebc:	2800      	cmp	r0, #0
  407ebe:	d17e      	bne.n	407fbe <_dtoa_r+0x396>
  407ec0:	f8cd 9014 	str.w	r9, [sp, #20]
  407ec4:	f8dd a018 	ldr.w	sl, [sp, #24]
  407ec8:	f8dd b01c 	ldr.w	fp, [sp, #28]
  407ecc:	e9dd 8902 	ldrd	r8, r9, [sp, #8]
  407ed0:	e029      	b.n	407f26 <_dtoa_r+0x2fe>
  407ed2:	bf00      	nop
  407ed4:	f3af 8000 	nop.w
  407ed8:	636f4361 	.word	0x636f4361
  407edc:	3fd287a7 	.word	0x3fd287a7
  407ee0:	8b60c8b3 	.word	0x8b60c8b3
  407ee4:	3fc68a28 	.word	0x3fc68a28
  407ee8:	509f79fb 	.word	0x509f79fb
  407eec:	3fd34413 	.word	0x3fd34413
  407ef0:	7ff00000 	.word	0x7ff00000
  407ef4:	0040cb39 	.word	0x0040cb39
  407ef8:	0040cb78 	.word	0x0040cb78
  407efc:	3ff80000 	.word	0x3ff80000
  407f00:	0040cb88 	.word	0x0040cb88
  407f04:	0040cb6c 	.word	0x0040cb6c
  407f08:	0040cb38 	.word	0x0040cb38
  407f0c:	40240000 	.word	0x40240000
  407f10:	f003 f838 	bl	40af84 <__aeabi_dmul>
  407f14:	2200      	movs	r2, #0
  407f16:	2300      	movs	r3, #0
  407f18:	4606      	mov	r6, r0
  407f1a:	460f      	mov	r7, r1
  407f1c:	f003 fa9a 	bl	40b454 <__aeabi_dcmpeq>
  407f20:	2800      	cmp	r0, #0
  407f22:	f040 83b7 	bne.w	408694 <_dtoa_r+0xa6c>
  407f26:	4642      	mov	r2, r8
  407f28:	464b      	mov	r3, r9
  407f2a:	4630      	mov	r0, r6
  407f2c:	4639      	mov	r1, r7
  407f2e:	f003 f953 	bl	40b1d8 <__aeabi_ddiv>
  407f32:	f003 fad7 	bl	40b4e4 <__aeabi_d2iz>
  407f36:	4604      	mov	r4, r0
  407f38:	f002 ffbe 	bl	40aeb8 <__aeabi_i2d>
  407f3c:	4642      	mov	r2, r8
  407f3e:	464b      	mov	r3, r9
  407f40:	f003 f820 	bl	40af84 <__aeabi_dmul>
  407f44:	4602      	mov	r2, r0
  407f46:	460b      	mov	r3, r1
  407f48:	4630      	mov	r0, r6
  407f4a:	4639      	mov	r1, r7
  407f4c:	f002 fe66 	bl	40ac1c <__aeabi_dsub>
  407f50:	f104 0e30 	add.w	lr, r4, #48	; 0x30
  407f54:	f805 eb01 	strb.w	lr, [r5], #1
  407f58:	ebcb 0e05 	rsb	lr, fp, r5
  407f5c:	45d6      	cmp	lr, sl
  407f5e:	4606      	mov	r6, r0
  407f60:	460f      	mov	r7, r1
  407f62:	f04f 0200 	mov.w	r2, #0
  407f66:	4bb0      	ldr	r3, [pc, #704]	; (408228 <_dtoa_r+0x600>)
  407f68:	d1d2      	bne.n	407f10 <_dtoa_r+0x2e8>
  407f6a:	f8dd 9014 	ldr.w	r9, [sp, #20]
  407f6e:	4632      	mov	r2, r6
  407f70:	463b      	mov	r3, r7
  407f72:	4630      	mov	r0, r6
  407f74:	4639      	mov	r1, r7
  407f76:	f002 fe53 	bl	40ac20 <__adddf3>
  407f7a:	4606      	mov	r6, r0
  407f7c:	460f      	mov	r7, r1
  407f7e:	4602      	mov	r2, r0
  407f80:	460b      	mov	r3, r1
  407f82:	e9dd 0102 	ldrd	r0, r1, [sp, #8]
  407f86:	f003 fa6f 	bl	40b468 <__aeabi_dcmplt>
  407f8a:	b940      	cbnz	r0, 407f9e <_dtoa_r+0x376>
  407f8c:	4632      	mov	r2, r6
  407f8e:	463b      	mov	r3, r7
  407f90:	e9dd 0102 	ldrd	r0, r1, [sp, #8]
  407f94:	f003 fa5e 	bl	40b454 <__aeabi_dcmpeq>
  407f98:	b188      	cbz	r0, 407fbe <_dtoa_r+0x396>
  407f9a:	07e3      	lsls	r3, r4, #31
  407f9c:	d50f      	bpl.n	407fbe <_dtoa_r+0x396>
  407f9e:	f815 4c01 	ldrb.w	r4, [r5, #-1]
  407fa2:	9a07      	ldr	r2, [sp, #28]
  407fa4:	1e6b      	subs	r3, r5, #1
  407fa6:	e004      	b.n	407fb2 <_dtoa_r+0x38a>
  407fa8:	429a      	cmp	r2, r3
  407faa:	f000 842c 	beq.w	408806 <_dtoa_r+0xbde>
  407fae:	f813 4d01 	ldrb.w	r4, [r3, #-1]!
  407fb2:	2c39      	cmp	r4, #57	; 0x39
  407fb4:	f103 0501 	add.w	r5, r3, #1
  407fb8:	d0f6      	beq.n	407fa8 <_dtoa_r+0x380>
  407fba:	3401      	adds	r4, #1
  407fbc:	701c      	strb	r4, [r3, #0]
  407fbe:	9908      	ldr	r1, [sp, #32]
  407fc0:	4648      	mov	r0, r9
  407fc2:	f001 fead 	bl	409d20 <_Bfree>
  407fc6:	2200      	movs	r2, #0
  407fc8:	9b04      	ldr	r3, [sp, #16]
  407fca:	702a      	strb	r2, [r5, #0]
  407fcc:	9a22      	ldr	r2, [sp, #136]	; 0x88
  407fce:	3301      	adds	r3, #1
  407fd0:	6013      	str	r3, [r2, #0]
  407fd2:	9b24      	ldr	r3, [sp, #144]	; 0x90
  407fd4:	2b00      	cmp	r3, #0
  407fd6:	f000 83a7 	beq.w	408728 <_dtoa_r+0xb00>
  407fda:	9807      	ldr	r0, [sp, #28]
  407fdc:	601d      	str	r5, [r3, #0]
  407fde:	b017      	add	sp, #92	; 0x5c
  407fe0:	e8bd 8ff0 	ldmia.w	sp!, {r4, r5, r6, r7, r8, r9, sl, fp, pc}
  407fe4:	9a09      	ldr	r2, [sp, #36]	; 0x24
  407fe6:	2a00      	cmp	r2, #0
  407fe8:	f000 8112 	beq.w	408210 <_dtoa_r+0x5e8>
  407fec:	9a20      	ldr	r2, [sp, #128]	; 0x80
  407fee:	2a01      	cmp	r2, #1
  407ff0:	f340 8258 	ble.w	4084a4 <_dtoa_r+0x87c>
  407ff4:	9b06      	ldr	r3, [sp, #24]
  407ff6:	9a0a      	ldr	r2, [sp, #40]	; 0x28
  407ff8:	1e5f      	subs	r7, r3, #1
  407ffa:	42ba      	cmp	r2, r7
  407ffc:	f2c0 8397 	blt.w	40872e <_dtoa_r+0xb06>
  408000:	1bd7      	subs	r7, r2, r7
  408002:	9b06      	ldr	r3, [sp, #24]
  408004:	2b00      	cmp	r3, #0
  408006:	f2c0 848a 	blt.w	40891e <_dtoa_r+0xcf6>
  40800a:	9d05      	ldr	r5, [sp, #20]
  40800c:	9b06      	ldr	r3, [sp, #24]
  40800e:	9a05      	ldr	r2, [sp, #20]
  408010:	441a      	add	r2, r3
  408012:	9205      	str	r2, [sp, #20]
  408014:	9a02      	ldr	r2, [sp, #8]
  408016:	2101      	movs	r1, #1
  408018:	441a      	add	r2, r3
  40801a:	4648      	mov	r0, r9
  40801c:	9202      	str	r2, [sp, #8]
  40801e:	f001 ff17 	bl	409e50 <__i2b>
  408022:	4606      	mov	r6, r0
  408024:	b165      	cbz	r5, 408040 <_dtoa_r+0x418>
  408026:	9902      	ldr	r1, [sp, #8]
  408028:	2900      	cmp	r1, #0
  40802a:	460b      	mov	r3, r1
  40802c:	dd08      	ble.n	408040 <_dtoa_r+0x418>
  40802e:	42a9      	cmp	r1, r5
  408030:	9a05      	ldr	r2, [sp, #20]
  408032:	bfa8      	it	ge
  408034:	462b      	movge	r3, r5
  408036:	1ad2      	subs	r2, r2, r3
  408038:	1aed      	subs	r5, r5, r3
  40803a:	1acb      	subs	r3, r1, r3
  40803c:	9205      	str	r2, [sp, #20]
  40803e:	9302      	str	r3, [sp, #8]
  408040:	9b0a      	ldr	r3, [sp, #40]	; 0x28
  408042:	2b00      	cmp	r3, #0
  408044:	f340 82fc 	ble.w	408640 <_dtoa_r+0xa18>
  408048:	9a09      	ldr	r2, [sp, #36]	; 0x24
  40804a:	2a00      	cmp	r2, #0
  40804c:	f000 8201 	beq.w	408452 <_dtoa_r+0x82a>
  408050:	2f00      	cmp	r7, #0
  408052:	f000 81fe 	beq.w	408452 <_dtoa_r+0x82a>
  408056:	4631      	mov	r1, r6
  408058:	463a      	mov	r2, r7
  40805a:	4648      	mov	r0, r9
  40805c:	f001 ff9a 	bl	409f94 <__pow5mult>
  408060:	f8dd 8020 	ldr.w	r8, [sp, #32]
  408064:	4601      	mov	r1, r0
  408066:	4642      	mov	r2, r8
  408068:	4606      	mov	r6, r0
  40806a:	4648      	mov	r0, r9
  40806c:	f001 fefa 	bl	409e64 <__multiply>
  408070:	4641      	mov	r1, r8
  408072:	4604      	mov	r4, r0
  408074:	4648      	mov	r0, r9
  408076:	f001 fe53 	bl	409d20 <_Bfree>
  40807a:	9b0a      	ldr	r3, [sp, #40]	; 0x28
  40807c:	1bdb      	subs	r3, r3, r7
  40807e:	930a      	str	r3, [sp, #40]	; 0x28
  408080:	f040 81e6 	bne.w	408450 <_dtoa_r+0x828>
  408084:	2101      	movs	r1, #1
  408086:	4648      	mov	r0, r9
  408088:	f001 fee2 	bl	409e50 <__i2b>
  40808c:	9b0b      	ldr	r3, [sp, #44]	; 0x2c
  40808e:	4680      	mov	r8, r0
  408090:	2b00      	cmp	r3, #0
  408092:	f000 8219 	beq.w	4084c8 <_dtoa_r+0x8a0>
  408096:	4601      	mov	r1, r0
  408098:	461a      	mov	r2, r3
  40809a:	4648      	mov	r0, r9
  40809c:	f001 ff7a 	bl	409f94 <__pow5mult>
  4080a0:	9b20      	ldr	r3, [sp, #128]	; 0x80
  4080a2:	2b01      	cmp	r3, #1
  4080a4:	4680      	mov	r8, r0
  4080a6:	f340 82f8 	ble.w	40869a <_dtoa_r+0xa72>
  4080aa:	2700      	movs	r7, #0
  4080ac:	f8d8 3010 	ldr.w	r3, [r8, #16]
  4080b0:	eb08 0383 	add.w	r3, r8, r3, lsl #2
  4080b4:	6918      	ldr	r0, [r3, #16]
  4080b6:	f001 fe7d 	bl	409db4 <__hi0bits>
  4080ba:	f1c0 0020 	rsb	r0, r0, #32
  4080be:	9a02      	ldr	r2, [sp, #8]
  4080c0:	4410      	add	r0, r2
  4080c2:	f010 001f 	ands.w	r0, r0, #31
  4080c6:	f000 81f6 	beq.w	4084b6 <_dtoa_r+0x88e>
  4080ca:	f1c0 0320 	rsb	r3, r0, #32
  4080ce:	2b04      	cmp	r3, #4
  4080d0:	f340 84ca 	ble.w	408a68 <_dtoa_r+0xe40>
  4080d4:	9b05      	ldr	r3, [sp, #20]
  4080d6:	f1c0 001c 	rsb	r0, r0, #28
  4080da:	4403      	add	r3, r0
  4080dc:	9305      	str	r3, [sp, #20]
  4080de:	4613      	mov	r3, r2
  4080e0:	4403      	add	r3, r0
  4080e2:	4405      	add	r5, r0
  4080e4:	9302      	str	r3, [sp, #8]
  4080e6:	9b05      	ldr	r3, [sp, #20]
  4080e8:	2b00      	cmp	r3, #0
  4080ea:	dd05      	ble.n	4080f8 <_dtoa_r+0x4d0>
  4080ec:	4621      	mov	r1, r4
  4080ee:	461a      	mov	r2, r3
  4080f0:	4648      	mov	r0, r9
  4080f2:	f001 ff9f 	bl	40a034 <__lshift>
  4080f6:	4604      	mov	r4, r0
  4080f8:	9b02      	ldr	r3, [sp, #8]
  4080fa:	2b00      	cmp	r3, #0
  4080fc:	dd05      	ble.n	40810a <_dtoa_r+0x4e2>
  4080fe:	4641      	mov	r1, r8
  408100:	461a      	mov	r2, r3
  408102:	4648      	mov	r0, r9
  408104:	f001 ff96 	bl	40a034 <__lshift>
  408108:	4680      	mov	r8, r0
  40810a:	9b0c      	ldr	r3, [sp, #48]	; 0x30
  40810c:	2b00      	cmp	r3, #0
  40810e:	f040 827c 	bne.w	40860a <_dtoa_r+0x9e2>
  408112:	9b06      	ldr	r3, [sp, #24]
  408114:	2b00      	cmp	r3, #0
  408116:	f340 8295 	ble.w	408644 <_dtoa_r+0xa1c>
  40811a:	9b09      	ldr	r3, [sp, #36]	; 0x24
  40811c:	2b00      	cmp	r3, #0
  40811e:	f040 81f5 	bne.w	40850c <_dtoa_r+0x8e4>
  408122:	f8dd b01c 	ldr.w	fp, [sp, #28]
  408126:	9f06      	ldr	r7, [sp, #24]
  408128:	465d      	mov	r5, fp
  40812a:	e002      	b.n	408132 <_dtoa_r+0x50a>
  40812c:	f001 fe02 	bl	409d34 <__multadd>
  408130:	4604      	mov	r4, r0
  408132:	4641      	mov	r1, r8
  408134:	4620      	mov	r0, r4
  408136:	f7ff fce3 	bl	407b00 <quorem>
  40813a:	f100 0a30 	add.w	sl, r0, #48	; 0x30
  40813e:	f805 ab01 	strb.w	sl, [r5], #1
  408142:	ebcb 0305 	rsb	r3, fp, r5
  408146:	42bb      	cmp	r3, r7
  408148:	f04f 020a 	mov.w	r2, #10
  40814c:	f04f 0300 	mov.w	r3, #0
  408150:	4621      	mov	r1, r4
  408152:	4648      	mov	r0, r9
  408154:	dbea      	blt.n	40812c <_dtoa_r+0x504>
  408156:	9b07      	ldr	r3, [sp, #28]
  408158:	9a06      	ldr	r2, [sp, #24]
  40815a:	2a01      	cmp	r2, #1
  40815c:	bfac      	ite	ge
  40815e:	189b      	addge	r3, r3, r2
  408160:	3301      	addlt	r3, #1
  408162:	461d      	mov	r5, r3
  408164:	f04f 0b00 	mov.w	fp, #0
  408168:	4621      	mov	r1, r4
  40816a:	2201      	movs	r2, #1
  40816c:	4648      	mov	r0, r9
  40816e:	f001 ff61 	bl	40a034 <__lshift>
  408172:	4641      	mov	r1, r8
  408174:	9008      	str	r0, [sp, #32]
  408176:	f001 ffb5 	bl	40a0e4 <__mcmp>
  40817a:	2800      	cmp	r0, #0
  40817c:	f340 830d 	ble.w	40879a <_dtoa_r+0xb72>
  408180:	f815 2c01 	ldrb.w	r2, [r5, #-1]
  408184:	9907      	ldr	r1, [sp, #28]
  408186:	1e6b      	subs	r3, r5, #1
  408188:	e004      	b.n	408194 <_dtoa_r+0x56c>
  40818a:	428b      	cmp	r3, r1
  40818c:	f000 8278 	beq.w	408680 <_dtoa_r+0xa58>
  408190:	f813 2d01 	ldrb.w	r2, [r3, #-1]!
  408194:	2a39      	cmp	r2, #57	; 0x39
  408196:	f103 0501 	add.w	r5, r3, #1
  40819a:	d0f6      	beq.n	40818a <_dtoa_r+0x562>
  40819c:	3201      	adds	r2, #1
  40819e:	701a      	strb	r2, [r3, #0]
  4081a0:	4641      	mov	r1, r8
  4081a2:	4648      	mov	r0, r9
  4081a4:	f001 fdbc 	bl	409d20 <_Bfree>
  4081a8:	2e00      	cmp	r6, #0
  4081aa:	f43f af08 	beq.w	407fbe <_dtoa_r+0x396>
  4081ae:	f1bb 0f00 	cmp.w	fp, #0
  4081b2:	d005      	beq.n	4081c0 <_dtoa_r+0x598>
  4081b4:	45b3      	cmp	fp, r6
  4081b6:	d003      	beq.n	4081c0 <_dtoa_r+0x598>
  4081b8:	4659      	mov	r1, fp
  4081ba:	4648      	mov	r0, r9
  4081bc:	f001 fdb0 	bl	409d20 <_Bfree>
  4081c0:	4631      	mov	r1, r6
  4081c2:	4648      	mov	r0, r9
  4081c4:	f001 fdac 	bl	409d20 <_Bfree>
  4081c8:	e6f9      	b.n	407fbe <_dtoa_r+0x396>
  4081ca:	2301      	movs	r3, #1
  4081cc:	930c      	str	r3, [sp, #48]	; 0x30
  4081ce:	e5e3      	b.n	407d98 <_dtoa_r+0x170>
  4081d0:	f8dd 8010 	ldr.w	r8, [sp, #16]
  4081d4:	4640      	mov	r0, r8
  4081d6:	f002 fe6f 	bl	40aeb8 <__aeabi_i2d>
  4081da:	4602      	mov	r2, r0
  4081dc:	460b      	mov	r3, r1
  4081de:	4630      	mov	r0, r6
  4081e0:	4639      	mov	r1, r7
  4081e2:	f003 f937 	bl	40b454 <__aeabi_dcmpeq>
  4081e6:	2800      	cmp	r0, #0
  4081e8:	f47f adc2 	bne.w	407d70 <_dtoa_r+0x148>
  4081ec:	f108 33ff 	add.w	r3, r8, #4294967295
  4081f0:	9304      	str	r3, [sp, #16]
  4081f2:	e5bd      	b.n	407d70 <_dtoa_r+0x148>
  4081f4:	9a05      	ldr	r2, [sp, #20]
  4081f6:	9b04      	ldr	r3, [sp, #16]
  4081f8:	1ad2      	subs	r2, r2, r3
  4081fa:	425b      	negs	r3, r3
  4081fc:	930a      	str	r3, [sp, #40]	; 0x28
  4081fe:	2300      	movs	r3, #0
  408200:	9205      	str	r2, [sp, #20]
  408202:	930b      	str	r3, [sp, #44]	; 0x2c
  408204:	e5da      	b.n	407dbc <_dtoa_r+0x194>
  408206:	425b      	negs	r3, r3
  408208:	9305      	str	r3, [sp, #20]
  40820a:	2300      	movs	r3, #0
  40820c:	9302      	str	r3, [sp, #8]
  40820e:	e5ca      	b.n	407da6 <_dtoa_r+0x17e>
  408210:	9f0a      	ldr	r7, [sp, #40]	; 0x28
  408212:	9d05      	ldr	r5, [sp, #20]
  408214:	9e09      	ldr	r6, [sp, #36]	; 0x24
  408216:	e705      	b.n	408024 <_dtoa_r+0x3fc>
  408218:	f1c3 0820 	rsb	r8, r3, #32
  40821c:	fa0a f008 	lsl.w	r0, sl, r8
  408220:	e573      	b.n	407d0a <_dtoa_r+0xe2>
  408222:	900c      	str	r0, [sp, #48]	; 0x30
  408224:	e5b8      	b.n	407d98 <_dtoa_r+0x170>
  408226:	bf00      	nop
  408228:	40240000 	.word	0x40240000
  40822c:	2300      	movs	r3, #0
  40822e:	9309      	str	r3, [sp, #36]	; 0x24
  408230:	9b04      	ldr	r3, [sp, #16]
  408232:	9a21      	ldr	r2, [sp, #132]	; 0x84
  408234:	4413      	add	r3, r2
  408236:	930d      	str	r3, [sp, #52]	; 0x34
  408238:	3301      	adds	r3, #1
  40823a:	2b00      	cmp	r3, #0
  40823c:	9306      	str	r3, [sp, #24]
  40823e:	f340 8283 	ble.w	408748 <_dtoa_r+0xb20>
  408242:	9c06      	ldr	r4, [sp, #24]
  408244:	4626      	mov	r6, r4
  408246:	2100      	movs	r1, #0
  408248:	2e17      	cmp	r6, #23
  40824a:	f8c9 1044 	str.w	r1, [r9, #68]	; 0x44
  40824e:	d90b      	bls.n	408268 <_dtoa_r+0x640>
  408250:	2201      	movs	r2, #1
  408252:	2304      	movs	r3, #4
  408254:	005b      	lsls	r3, r3, #1
  408256:	f103 0014 	add.w	r0, r3, #20
  40825a:	42b0      	cmp	r0, r6
  40825c:	4611      	mov	r1, r2
  40825e:	f102 0201 	add.w	r2, r2, #1
  408262:	d9f7      	bls.n	408254 <_dtoa_r+0x62c>
  408264:	f8c9 1044 	str.w	r1, [r9, #68]	; 0x44
  408268:	4648      	mov	r0, r9
  40826a:	f001 fd33 	bl	409cd4 <_Balloc>
  40826e:	2c0e      	cmp	r4, #14
  408270:	9007      	str	r0, [sp, #28]
  408272:	f8c9 0040 	str.w	r0, [r9, #64]	; 0x40
  408276:	f63f ade0 	bhi.w	407e3a <_dtoa_r+0x212>
  40827a:	2d00      	cmp	r5, #0
  40827c:	f43f addd 	beq.w	407e3a <_dtoa_r+0x212>
  408280:	9904      	ldr	r1, [sp, #16]
  408282:	4657      	mov	r7, sl
  408284:	46d8      	mov	r8, fp
  408286:	2900      	cmp	r1, #0
  408288:	e9cd 780e 	strd	r7, r8, [sp, #56]	; 0x38
  40828c:	f340 8292 	ble.w	4087b4 <_dtoa_r+0xb8c>
  408290:	4b91      	ldr	r3, [pc, #580]	; (4084d8 <_dtoa_r+0x8b0>)
  408292:	f001 020f 	and.w	r2, r1, #15
  408296:	110e      	asrs	r6, r1, #4
  408298:	eb03 03c2 	add.w	r3, r3, r2, lsl #3
  40829c:	06f0      	lsls	r0, r6, #27
  40829e:	e9d3 4500 	ldrd	r4, r5, [r3]
  4082a2:	f140 824c 	bpl.w	40873e <_dtoa_r+0xb16>
  4082a6:	4b8d      	ldr	r3, [pc, #564]	; (4084dc <_dtoa_r+0x8b4>)
  4082a8:	4650      	mov	r0, sl
  4082aa:	4659      	mov	r1, fp
  4082ac:	e9d3 2308 	ldrd	r2, r3, [r3, #32]
  4082b0:	f002 ff92 	bl	40b1d8 <__aeabi_ddiv>
  4082b4:	f006 060f 	and.w	r6, r6, #15
  4082b8:	4682      	mov	sl, r0
  4082ba:	468b      	mov	fp, r1
  4082bc:	f04f 0803 	mov.w	r8, #3
  4082c0:	b186      	cbz	r6, 4082e4 <_dtoa_r+0x6bc>
  4082c2:	4f86      	ldr	r7, [pc, #536]	; (4084dc <_dtoa_r+0x8b4>)
  4082c4:	07f1      	lsls	r1, r6, #31
  4082c6:	d509      	bpl.n	4082dc <_dtoa_r+0x6b4>
  4082c8:	4620      	mov	r0, r4
  4082ca:	4629      	mov	r1, r5
  4082cc:	e9d7 2300 	ldrd	r2, r3, [r7]
  4082d0:	f002 fe58 	bl	40af84 <__aeabi_dmul>
  4082d4:	f108 0801 	add.w	r8, r8, #1
  4082d8:	4604      	mov	r4, r0
  4082da:	460d      	mov	r5, r1
  4082dc:	1076      	asrs	r6, r6, #1
  4082de:	f107 0708 	add.w	r7, r7, #8
  4082e2:	d1ef      	bne.n	4082c4 <_dtoa_r+0x69c>
  4082e4:	4622      	mov	r2, r4
  4082e6:	462b      	mov	r3, r5
  4082e8:	4650      	mov	r0, sl
  4082ea:	4659      	mov	r1, fp
  4082ec:	f002 ff74 	bl	40b1d8 <__aeabi_ddiv>
  4082f0:	4606      	mov	r6, r0
  4082f2:	460f      	mov	r7, r1
  4082f4:	9b0c      	ldr	r3, [sp, #48]	; 0x30
  4082f6:	b143      	cbz	r3, 40830a <_dtoa_r+0x6e2>
  4082f8:	2200      	movs	r2, #0
  4082fa:	4b79      	ldr	r3, [pc, #484]	; (4084e0 <_dtoa_r+0x8b8>)
  4082fc:	4630      	mov	r0, r6
  4082fe:	4639      	mov	r1, r7
  408300:	f003 f8b2 	bl	40b468 <__aeabi_dcmplt>
  408304:	2800      	cmp	r0, #0
  408306:	f040 8320 	bne.w	40894a <_dtoa_r+0xd22>
  40830a:	4640      	mov	r0, r8
  40830c:	f002 fdd4 	bl	40aeb8 <__aeabi_i2d>
  408310:	4632      	mov	r2, r6
  408312:	463b      	mov	r3, r7
  408314:	f002 fe36 	bl	40af84 <__aeabi_dmul>
  408318:	4b72      	ldr	r3, [pc, #456]	; (4084e4 <_dtoa_r+0x8bc>)
  40831a:	2200      	movs	r2, #0
  40831c:	f002 fc80 	bl	40ac20 <__adddf3>
  408320:	9b06      	ldr	r3, [sp, #24]
  408322:	4604      	mov	r4, r0
  408324:	f1a1 7550 	sub.w	r5, r1, #54525952	; 0x3400000
  408328:	2b00      	cmp	r3, #0
  40832a:	f000 81df 	beq.w	4086ec <_dtoa_r+0xac4>
  40832e:	9b04      	ldr	r3, [sp, #16]
  408330:	f8dd 8018 	ldr.w	r8, [sp, #24]
  408334:	9311      	str	r3, [sp, #68]	; 0x44
  408336:	9b09      	ldr	r3, [sp, #36]	; 0x24
  408338:	2b00      	cmp	r3, #0
  40833a:	f000 8297 	beq.w	40886c <_dtoa_r+0xc44>
  40833e:	4b66      	ldr	r3, [pc, #408]	; (4084d8 <_dtoa_r+0x8b0>)
  408340:	4969      	ldr	r1, [pc, #420]	; (4084e8 <_dtoa_r+0x8c0>)
  408342:	eb03 03c8 	add.w	r3, r3, r8, lsl #3
  408346:	e953 2302 	ldrd	r2, r3, [r3, #-8]
  40834a:	2000      	movs	r0, #0
  40834c:	f002 ff44 	bl	40b1d8 <__aeabi_ddiv>
  408350:	4622      	mov	r2, r4
  408352:	462b      	mov	r3, r5
  408354:	f002 fc62 	bl	40ac1c <__aeabi_dsub>
  408358:	4682      	mov	sl, r0
  40835a:	468b      	mov	fp, r1
  40835c:	4630      	mov	r0, r6
  40835e:	4639      	mov	r1, r7
  408360:	f003 f8c0 	bl	40b4e4 <__aeabi_d2iz>
  408364:	4604      	mov	r4, r0
  408366:	f002 fda7 	bl	40aeb8 <__aeabi_i2d>
  40836a:	4602      	mov	r2, r0
  40836c:	460b      	mov	r3, r1
  40836e:	4630      	mov	r0, r6
  408370:	4639      	mov	r1, r7
  408372:	f002 fc53 	bl	40ac1c <__aeabi_dsub>
  408376:	3430      	adds	r4, #48	; 0x30
  408378:	9d07      	ldr	r5, [sp, #28]
  40837a:	b2e4      	uxtb	r4, r4
  40837c:	4606      	mov	r6, r0
  40837e:	460f      	mov	r7, r1
  408380:	702c      	strb	r4, [r5, #0]
  408382:	4602      	mov	r2, r0
  408384:	460b      	mov	r3, r1
  408386:	4650      	mov	r0, sl
  408388:	4659      	mov	r1, fp
  40838a:	3501      	adds	r5, #1
  40838c:	f003 f88a 	bl	40b4a4 <__aeabi_dcmpgt>
  408390:	2800      	cmp	r0, #0
  408392:	d14c      	bne.n	40842e <_dtoa_r+0x806>
  408394:	4632      	mov	r2, r6
  408396:	463b      	mov	r3, r7
  408398:	2000      	movs	r0, #0
  40839a:	4951      	ldr	r1, [pc, #324]	; (4084e0 <_dtoa_r+0x8b8>)
  40839c:	f002 fc3e 	bl	40ac1c <__aeabi_dsub>
  4083a0:	4602      	mov	r2, r0
  4083a2:	460b      	mov	r3, r1
  4083a4:	4650      	mov	r0, sl
  4083a6:	4659      	mov	r1, fp
  4083a8:	f003 f87c 	bl	40b4a4 <__aeabi_dcmpgt>
  4083ac:	2800      	cmp	r0, #0
  4083ae:	f040 830d 	bne.w	4089cc <_dtoa_r+0xda4>
  4083b2:	f1b8 0f01 	cmp.w	r8, #1
  4083b6:	f340 81b3 	ble.w	408720 <_dtoa_r+0xaf8>
  4083ba:	9b07      	ldr	r3, [sp, #28]
  4083bc:	4498      	add	r8, r3
  4083be:	e00d      	b.n	4083dc <_dtoa_r+0x7b4>
  4083c0:	2000      	movs	r0, #0
  4083c2:	4947      	ldr	r1, [pc, #284]	; (4084e0 <_dtoa_r+0x8b8>)
  4083c4:	f002 fc2a 	bl	40ac1c <__aeabi_dsub>
  4083c8:	4652      	mov	r2, sl
  4083ca:	465b      	mov	r3, fp
  4083cc:	f003 f84c 	bl	40b468 <__aeabi_dcmplt>
  4083d0:	2800      	cmp	r0, #0
  4083d2:	f040 82fb 	bne.w	4089cc <_dtoa_r+0xda4>
  4083d6:	4545      	cmp	r5, r8
  4083d8:	f000 81a2 	beq.w	408720 <_dtoa_r+0xaf8>
  4083dc:	4650      	mov	r0, sl
  4083de:	4659      	mov	r1, fp
  4083e0:	2200      	movs	r2, #0
  4083e2:	4b42      	ldr	r3, [pc, #264]	; (4084ec <_dtoa_r+0x8c4>)
  4083e4:	f002 fdce 	bl	40af84 <__aeabi_dmul>
  4083e8:	2200      	movs	r2, #0
  4083ea:	4b40      	ldr	r3, [pc, #256]	; (4084ec <_dtoa_r+0x8c4>)
  4083ec:	4682      	mov	sl, r0
  4083ee:	468b      	mov	fp, r1
  4083f0:	4630      	mov	r0, r6
  4083f2:	4639      	mov	r1, r7
  4083f4:	f002 fdc6 	bl	40af84 <__aeabi_dmul>
  4083f8:	460f      	mov	r7, r1
  4083fa:	4606      	mov	r6, r0
  4083fc:	f003 f872 	bl	40b4e4 <__aeabi_d2iz>
  408400:	4604      	mov	r4, r0
  408402:	f002 fd59 	bl	40aeb8 <__aeabi_i2d>
  408406:	4602      	mov	r2, r0
  408408:	460b      	mov	r3, r1
  40840a:	4630      	mov	r0, r6
  40840c:	4639      	mov	r1, r7
  40840e:	f002 fc05 	bl	40ac1c <__aeabi_dsub>
  408412:	3430      	adds	r4, #48	; 0x30
  408414:	b2e4      	uxtb	r4, r4
  408416:	4652      	mov	r2, sl
  408418:	465b      	mov	r3, fp
  40841a:	f805 4b01 	strb.w	r4, [r5], #1
  40841e:	4606      	mov	r6, r0
  408420:	460f      	mov	r7, r1
  408422:	f003 f821 	bl	40b468 <__aeabi_dcmplt>
  408426:	4632      	mov	r2, r6
  408428:	463b      	mov	r3, r7
  40842a:	2800      	cmp	r0, #0
  40842c:	d0c8      	beq.n	4083c0 <_dtoa_r+0x798>
  40842e:	9b11      	ldr	r3, [sp, #68]	; 0x44
  408430:	9304      	str	r3, [sp, #16]
  408432:	e5c4      	b.n	407fbe <_dtoa_r+0x396>
  408434:	2300      	movs	r3, #0
  408436:	9309      	str	r3, [sp, #36]	; 0x24
  408438:	9b21      	ldr	r3, [sp, #132]	; 0x84
  40843a:	2b00      	cmp	r3, #0
  40843c:	f340 8189 	ble.w	408752 <_dtoa_r+0xb2a>
  408440:	461e      	mov	r6, r3
  408442:	461c      	mov	r4, r3
  408444:	930d      	str	r3, [sp, #52]	; 0x34
  408446:	9306      	str	r3, [sp, #24]
  408448:	e6fd      	b.n	408246 <_dtoa_r+0x61e>
  40844a:	2301      	movs	r3, #1
  40844c:	9309      	str	r3, [sp, #36]	; 0x24
  40844e:	e7f3      	b.n	408438 <_dtoa_r+0x810>
  408450:	9408      	str	r4, [sp, #32]
  408452:	9a0a      	ldr	r2, [sp, #40]	; 0x28
  408454:	9908      	ldr	r1, [sp, #32]
  408456:	4648      	mov	r0, r9
  408458:	f001 fd9c 	bl	409f94 <__pow5mult>
  40845c:	4604      	mov	r4, r0
  40845e:	e611      	b.n	408084 <_dtoa_r+0x45c>
  408460:	9b06      	ldr	r3, [sp, #24]
  408462:	2b00      	cmp	r3, #0
  408464:	f73f acfc 	bgt.w	407e60 <_dtoa_r+0x238>
  408468:	f040 82da 	bne.w	408a20 <_dtoa_r+0xdf8>
  40846c:	2200      	movs	r2, #0
  40846e:	4b20      	ldr	r3, [pc, #128]	; (4084f0 <_dtoa_r+0x8c8>)
  408470:	e9dd 0102 	ldrd	r0, r1, [sp, #8]
  408474:	f002 fd86 	bl	40af84 <__aeabi_dmul>
  408478:	4652      	mov	r2, sl
  40847a:	465b      	mov	r3, fp
  40847c:	f003 f808 	bl	40b490 <__aeabi_dcmpge>
  408480:	f8dd 8018 	ldr.w	r8, [sp, #24]
  408484:	4646      	mov	r6, r8
  408486:	2800      	cmp	r0, #0
  408488:	f000 80f2 	beq.w	408670 <_dtoa_r+0xa48>
  40848c:	9b21      	ldr	r3, [sp, #132]	; 0x84
  40848e:	9d07      	ldr	r5, [sp, #28]
  408490:	43db      	mvns	r3, r3
  408492:	9304      	str	r3, [sp, #16]
  408494:	4641      	mov	r1, r8
  408496:	4648      	mov	r0, r9
  408498:	f001 fc42 	bl	409d20 <_Bfree>
  40849c:	2e00      	cmp	r6, #0
  40849e:	f43f ad8e 	beq.w	407fbe <_dtoa_r+0x396>
  4084a2:	e68d      	b.n	4081c0 <_dtoa_r+0x598>
  4084a4:	9a10      	ldr	r2, [sp, #64]	; 0x40
  4084a6:	2a00      	cmp	r2, #0
  4084a8:	f000 8241 	beq.w	40892e <_dtoa_r+0xd06>
  4084ac:	f203 4333 	addw	r3, r3, #1075	; 0x433
  4084b0:	9f0a      	ldr	r7, [sp, #40]	; 0x28
  4084b2:	9d05      	ldr	r5, [sp, #20]
  4084b4:	e5ab      	b.n	40800e <_dtoa_r+0x3e6>
  4084b6:	201c      	movs	r0, #28
  4084b8:	9b05      	ldr	r3, [sp, #20]
  4084ba:	4403      	add	r3, r0
  4084bc:	9305      	str	r3, [sp, #20]
  4084be:	9b02      	ldr	r3, [sp, #8]
  4084c0:	4403      	add	r3, r0
  4084c2:	4405      	add	r5, r0
  4084c4:	9302      	str	r3, [sp, #8]
  4084c6:	e60e      	b.n	4080e6 <_dtoa_r+0x4be>
  4084c8:	9b20      	ldr	r3, [sp, #128]	; 0x80
  4084ca:	2b01      	cmp	r3, #1
  4084cc:	f340 8282 	ble.w	4089d4 <_dtoa_r+0xdac>
  4084d0:	9f0b      	ldr	r7, [sp, #44]	; 0x2c
  4084d2:	2001      	movs	r0, #1
  4084d4:	e5f3      	b.n	4080be <_dtoa_r+0x496>
  4084d6:	bf00      	nop
  4084d8:	0040cb88 	.word	0x0040cb88
  4084dc:	0040cc50 	.word	0x0040cc50
  4084e0:	3ff00000 	.word	0x3ff00000
  4084e4:	401c0000 	.word	0x401c0000
  4084e8:	3fe00000 	.word	0x3fe00000
  4084ec:	40240000 	.word	0x40240000
  4084f0:	40140000 	.word	0x40140000
  4084f4:	4631      	mov	r1, r6
  4084f6:	2300      	movs	r3, #0
  4084f8:	220a      	movs	r2, #10
  4084fa:	4648      	mov	r0, r9
  4084fc:	f001 fc1a 	bl	409d34 <__multadd>
  408500:	9b0d      	ldr	r3, [sp, #52]	; 0x34
  408502:	2b00      	cmp	r3, #0
  408504:	4606      	mov	r6, r0
  408506:	f340 8297 	ble.w	408a38 <_dtoa_r+0xe10>
  40850a:	9306      	str	r3, [sp, #24]
  40850c:	2d00      	cmp	r5, #0
  40850e:	dd05      	ble.n	40851c <_dtoa_r+0x8f4>
  408510:	4631      	mov	r1, r6
  408512:	462a      	mov	r2, r5
  408514:	4648      	mov	r0, r9
  408516:	f001 fd8d 	bl	40a034 <__lshift>
  40851a:	4606      	mov	r6, r0
  40851c:	2f00      	cmp	r7, #0
  40851e:	f040 817c 	bne.w	40881a <_dtoa_r+0xbf2>
  408522:	9605      	str	r6, [sp, #20]
  408524:	9b06      	ldr	r3, [sp, #24]
  408526:	9a07      	ldr	r2, [sp, #28]
  408528:	f8dd b014 	ldr.w	fp, [sp, #20]
  40852c:	3b01      	subs	r3, #1
  40852e:	18d3      	adds	r3, r2, r3
  408530:	9308      	str	r3, [sp, #32]
  408532:	f00a 0301 	and.w	r3, sl, #1
  408536:	9309      	str	r3, [sp, #36]	; 0x24
  408538:	4617      	mov	r7, r2
  40853a:	46c2      	mov	sl, r8
  40853c:	4651      	mov	r1, sl
  40853e:	4620      	mov	r0, r4
  408540:	f7ff fade 	bl	407b00 <quorem>
  408544:	4631      	mov	r1, r6
  408546:	4605      	mov	r5, r0
  408548:	4620      	mov	r0, r4
  40854a:	f001 fdcb 	bl	40a0e4 <__mcmp>
  40854e:	465a      	mov	r2, fp
  408550:	9002      	str	r0, [sp, #8]
  408552:	4651      	mov	r1, sl
  408554:	4648      	mov	r0, r9
  408556:	f001 fde5 	bl	40a124 <__mdiff>
  40855a:	68c2      	ldr	r2, [r0, #12]
  40855c:	4680      	mov	r8, r0
  40855e:	f105 0330 	add.w	r3, r5, #48	; 0x30
  408562:	2a00      	cmp	r2, #0
  408564:	d149      	bne.n	4085fa <_dtoa_r+0x9d2>
  408566:	4601      	mov	r1, r0
  408568:	4620      	mov	r0, r4
  40856a:	9306      	str	r3, [sp, #24]
  40856c:	f001 fdba 	bl	40a0e4 <__mcmp>
  408570:	4641      	mov	r1, r8
  408572:	9005      	str	r0, [sp, #20]
  408574:	4648      	mov	r0, r9
  408576:	f001 fbd3 	bl	409d20 <_Bfree>
  40857a:	9a05      	ldr	r2, [sp, #20]
  40857c:	9b06      	ldr	r3, [sp, #24]
  40857e:	b92a      	cbnz	r2, 40858c <_dtoa_r+0x964>
  408580:	9920      	ldr	r1, [sp, #128]	; 0x80
  408582:	b919      	cbnz	r1, 40858c <_dtoa_r+0x964>
  408584:	9909      	ldr	r1, [sp, #36]	; 0x24
  408586:	2900      	cmp	r1, #0
  408588:	f000 8236 	beq.w	4089f8 <_dtoa_r+0xdd0>
  40858c:	9902      	ldr	r1, [sp, #8]
  40858e:	2900      	cmp	r1, #0
  408590:	f2c0 80e4 	blt.w	40875c <_dtoa_r+0xb34>
  408594:	d105      	bne.n	4085a2 <_dtoa_r+0x97a>
  408596:	9920      	ldr	r1, [sp, #128]	; 0x80
  408598:	b919      	cbnz	r1, 4085a2 <_dtoa_r+0x97a>
  40859a:	9909      	ldr	r1, [sp, #36]	; 0x24
  40859c:	2900      	cmp	r1, #0
  40859e:	f000 80dd 	beq.w	40875c <_dtoa_r+0xb34>
  4085a2:	2a00      	cmp	r2, #0
  4085a4:	f300 814d 	bgt.w	408842 <_dtoa_r+0xc1a>
  4085a8:	9a08      	ldr	r2, [sp, #32]
  4085aa:	703b      	strb	r3, [r7, #0]
  4085ac:	f107 0801 	add.w	r8, r7, #1
  4085b0:	4297      	cmp	r7, r2
  4085b2:	4645      	mov	r5, r8
  4085b4:	f000 8154 	beq.w	408860 <_dtoa_r+0xc38>
  4085b8:	4621      	mov	r1, r4
  4085ba:	2300      	movs	r3, #0
  4085bc:	220a      	movs	r2, #10
  4085be:	4648      	mov	r0, r9
  4085c0:	f001 fbb8 	bl	409d34 <__multadd>
  4085c4:	455e      	cmp	r6, fp
  4085c6:	4604      	mov	r4, r0
  4085c8:	4631      	mov	r1, r6
  4085ca:	f04f 0300 	mov.w	r3, #0
  4085ce:	f04f 020a 	mov.w	r2, #10
  4085d2:	4648      	mov	r0, r9
  4085d4:	d00b      	beq.n	4085ee <_dtoa_r+0x9c6>
  4085d6:	f001 fbad 	bl	409d34 <__multadd>
  4085da:	4659      	mov	r1, fp
  4085dc:	4606      	mov	r6, r0
  4085de:	2300      	movs	r3, #0
  4085e0:	220a      	movs	r2, #10
  4085e2:	4648      	mov	r0, r9
  4085e4:	f001 fba6 	bl	409d34 <__multadd>
  4085e8:	4647      	mov	r7, r8
  4085ea:	4683      	mov	fp, r0
  4085ec:	e7a6      	b.n	40853c <_dtoa_r+0x914>
  4085ee:	f001 fba1 	bl	409d34 <__multadd>
  4085f2:	4647      	mov	r7, r8
  4085f4:	4606      	mov	r6, r0
  4085f6:	4683      	mov	fp, r0
  4085f8:	e7a0      	b.n	40853c <_dtoa_r+0x914>
  4085fa:	4601      	mov	r1, r0
  4085fc:	4648      	mov	r0, r9
  4085fe:	9305      	str	r3, [sp, #20]
  408600:	f001 fb8e 	bl	409d20 <_Bfree>
  408604:	2201      	movs	r2, #1
  408606:	9b05      	ldr	r3, [sp, #20]
  408608:	e7c0      	b.n	40858c <_dtoa_r+0x964>
  40860a:	4641      	mov	r1, r8
  40860c:	4620      	mov	r0, r4
  40860e:	f001 fd69 	bl	40a0e4 <__mcmp>
  408612:	2800      	cmp	r0, #0
  408614:	f6bf ad7d 	bge.w	408112 <_dtoa_r+0x4ea>
  408618:	4621      	mov	r1, r4
  40861a:	9c04      	ldr	r4, [sp, #16]
  40861c:	2300      	movs	r3, #0
  40861e:	3c01      	subs	r4, #1
  408620:	220a      	movs	r2, #10
  408622:	4648      	mov	r0, r9
  408624:	9404      	str	r4, [sp, #16]
  408626:	f001 fb85 	bl	409d34 <__multadd>
  40862a:	9b09      	ldr	r3, [sp, #36]	; 0x24
  40862c:	4604      	mov	r4, r0
  40862e:	2b00      	cmp	r3, #0
  408630:	f47f af60 	bne.w	4084f4 <_dtoa_r+0x8cc>
  408634:	9b0d      	ldr	r3, [sp, #52]	; 0x34
  408636:	2b00      	cmp	r3, #0
  408638:	f340 81f6 	ble.w	408a28 <_dtoa_r+0xe00>
  40863c:	9306      	str	r3, [sp, #24]
  40863e:	e570      	b.n	408122 <_dtoa_r+0x4fa>
  408640:	9c08      	ldr	r4, [sp, #32]
  408642:	e51f      	b.n	408084 <_dtoa_r+0x45c>
  408644:	9b20      	ldr	r3, [sp, #128]	; 0x80
  408646:	2b02      	cmp	r3, #2
  408648:	f77f ad67 	ble.w	40811a <_dtoa_r+0x4f2>
  40864c:	9b06      	ldr	r3, [sp, #24]
  40864e:	2b00      	cmp	r3, #0
  408650:	f040 8179 	bne.w	408946 <_dtoa_r+0xd1e>
  408654:	4641      	mov	r1, r8
  408656:	2205      	movs	r2, #5
  408658:	4648      	mov	r0, r9
  40865a:	f001 fb6b 	bl	409d34 <__multadd>
  40865e:	4601      	mov	r1, r0
  408660:	4680      	mov	r8, r0
  408662:	4620      	mov	r0, r4
  408664:	f001 fd3e 	bl	40a0e4 <__mcmp>
  408668:	2800      	cmp	r0, #0
  40866a:	9408      	str	r4, [sp, #32]
  40866c:	f77f af0e 	ble.w	40848c <_dtoa_r+0x864>
  408670:	9a04      	ldr	r2, [sp, #16]
  408672:	9907      	ldr	r1, [sp, #28]
  408674:	2331      	movs	r3, #49	; 0x31
  408676:	3201      	adds	r2, #1
  408678:	9204      	str	r2, [sp, #16]
  40867a:	700b      	strb	r3, [r1, #0]
  40867c:	1c4d      	adds	r5, r1, #1
  40867e:	e709      	b.n	408494 <_dtoa_r+0x86c>
  408680:	9a04      	ldr	r2, [sp, #16]
  408682:	3201      	adds	r2, #1
  408684:	9204      	str	r2, [sp, #16]
  408686:	9a07      	ldr	r2, [sp, #28]
  408688:	2331      	movs	r3, #49	; 0x31
  40868a:	7013      	strb	r3, [r2, #0]
  40868c:	e588      	b.n	4081a0 <_dtoa_r+0x578>
  40868e:	2301      	movs	r3, #1
  408690:	9309      	str	r3, [sp, #36]	; 0x24
  408692:	e5cd      	b.n	408230 <_dtoa_r+0x608>
  408694:	f8dd 9014 	ldr.w	r9, [sp, #20]
  408698:	e491      	b.n	407fbe <_dtoa_r+0x396>
  40869a:	f1ba 0f00 	cmp.w	sl, #0
  40869e:	f47f ad04 	bne.w	4080aa <_dtoa_r+0x482>
  4086a2:	f3cb 0313 	ubfx	r3, fp, #0, #20
  4086a6:	2b00      	cmp	r3, #0
  4086a8:	f040 813f 	bne.w	40892a <_dtoa_r+0xd02>
  4086ac:	f02b 4700 	bic.w	r7, fp, #2147483648	; 0x80000000
  4086b0:	0d3f      	lsrs	r7, r7, #20
  4086b2:	053f      	lsls	r7, r7, #20
  4086b4:	b137      	cbz	r7, 4086c4 <_dtoa_r+0xa9c>
  4086b6:	9b05      	ldr	r3, [sp, #20]
  4086b8:	3301      	adds	r3, #1
  4086ba:	9305      	str	r3, [sp, #20]
  4086bc:	9b02      	ldr	r3, [sp, #8]
  4086be:	3301      	adds	r3, #1
  4086c0:	9302      	str	r3, [sp, #8]
  4086c2:	2701      	movs	r7, #1
  4086c4:	9b0b      	ldr	r3, [sp, #44]	; 0x2c
  4086c6:	2001      	movs	r0, #1
  4086c8:	2b00      	cmp	r3, #0
  4086ca:	f43f acf8 	beq.w	4080be <_dtoa_r+0x496>
  4086ce:	e4ed      	b.n	4080ac <_dtoa_r+0x484>
  4086d0:	4640      	mov	r0, r8
  4086d2:	f002 fbf1 	bl	40aeb8 <__aeabi_i2d>
  4086d6:	4632      	mov	r2, r6
  4086d8:	463b      	mov	r3, r7
  4086da:	f002 fc53 	bl	40af84 <__aeabi_dmul>
  4086de:	2200      	movs	r2, #0
  4086e0:	4bbf      	ldr	r3, [pc, #764]	; (4089e0 <_dtoa_r+0xdb8>)
  4086e2:	f002 fa9d 	bl	40ac20 <__adddf3>
  4086e6:	4604      	mov	r4, r0
  4086e8:	f1a1 7550 	sub.w	r5, r1, #54525952	; 0x3400000
  4086ec:	4630      	mov	r0, r6
  4086ee:	4639      	mov	r1, r7
  4086f0:	2200      	movs	r2, #0
  4086f2:	4bbc      	ldr	r3, [pc, #752]	; (4089e4 <_dtoa_r+0xdbc>)
  4086f4:	f002 fa92 	bl	40ac1c <__aeabi_dsub>
  4086f8:	4622      	mov	r2, r4
  4086fa:	462b      	mov	r3, r5
  4086fc:	4606      	mov	r6, r0
  4086fe:	460f      	mov	r7, r1
  408700:	f002 fed0 	bl	40b4a4 <__aeabi_dcmpgt>
  408704:	4680      	mov	r8, r0
  408706:	2800      	cmp	r0, #0
  408708:	f040 8105 	bne.w	408916 <_dtoa_r+0xcee>
  40870c:	4622      	mov	r2, r4
  40870e:	f105 4300 	add.w	r3, r5, #2147483648	; 0x80000000
  408712:	4630      	mov	r0, r6
  408714:	4639      	mov	r1, r7
  408716:	f002 fea7 	bl	40b468 <__aeabi_dcmplt>
  40871a:	b108      	cbz	r0, 408720 <_dtoa_r+0xaf8>
  40871c:	4646      	mov	r6, r8
  40871e:	e6b5      	b.n	40848c <_dtoa_r+0x864>
  408720:	e9dd ab0e 	ldrd	sl, fp, [sp, #56]	; 0x38
  408724:	f7ff bb89 	b.w	407e3a <_dtoa_r+0x212>
  408728:	9807      	ldr	r0, [sp, #28]
  40872a:	f7ff baae 	b.w	407c8a <_dtoa_r+0x62>
  40872e:	9b0a      	ldr	r3, [sp, #40]	; 0x28
  408730:	9a0b      	ldr	r2, [sp, #44]	; 0x2c
  408732:	970a      	str	r7, [sp, #40]	; 0x28
  408734:	1afb      	subs	r3, r7, r3
  408736:	441a      	add	r2, r3
  408738:	920b      	str	r2, [sp, #44]	; 0x2c
  40873a:	2700      	movs	r7, #0
  40873c:	e461      	b.n	408002 <_dtoa_r+0x3da>
  40873e:	e9dd ab0e 	ldrd	sl, fp, [sp, #56]	; 0x38
  408742:	f04f 0802 	mov.w	r8, #2
  408746:	e5bb      	b.n	4082c0 <_dtoa_r+0x698>
  408748:	461c      	mov	r4, r3
  40874a:	2100      	movs	r1, #0
  40874c:	f8c9 1044 	str.w	r1, [r9, #68]	; 0x44
  408750:	e58a      	b.n	408268 <_dtoa_r+0x640>
  408752:	2401      	movs	r4, #1
  408754:	9421      	str	r4, [sp, #132]	; 0x84
  408756:	940d      	str	r4, [sp, #52]	; 0x34
  408758:	9406      	str	r4, [sp, #24]
  40875a:	e7f6      	b.n	40874a <_dtoa_r+0xb22>
  40875c:	2a00      	cmp	r2, #0
  40875e:	46d0      	mov	r8, sl
  408760:	f8cd b014 	str.w	fp, [sp, #20]
  408764:	469a      	mov	sl, r3
  408766:	dd11      	ble.n	40878c <_dtoa_r+0xb64>
  408768:	4621      	mov	r1, r4
  40876a:	2201      	movs	r2, #1
  40876c:	4648      	mov	r0, r9
  40876e:	f001 fc61 	bl	40a034 <__lshift>
  408772:	4641      	mov	r1, r8
  408774:	4604      	mov	r4, r0
  408776:	f001 fcb5 	bl	40a0e4 <__mcmp>
  40877a:	2800      	cmp	r0, #0
  40877c:	f340 8149 	ble.w	408a12 <_dtoa_r+0xdea>
  408780:	f1ba 0f39 	cmp.w	sl, #57	; 0x39
  408784:	f000 8106 	beq.w	408994 <_dtoa_r+0xd6c>
  408788:	f105 0a31 	add.w	sl, r5, #49	; 0x31
  40878c:	46b3      	mov	fp, r6
  40878e:	f887 a000 	strb.w	sl, [r7]
  408792:	1c7d      	adds	r5, r7, #1
  408794:	9e05      	ldr	r6, [sp, #20]
  408796:	9408      	str	r4, [sp, #32]
  408798:	e502      	b.n	4081a0 <_dtoa_r+0x578>
  40879a:	d104      	bne.n	4087a6 <_dtoa_r+0xb7e>
  40879c:	f01a 0f01 	tst.w	sl, #1
  4087a0:	d001      	beq.n	4087a6 <_dtoa_r+0xb7e>
  4087a2:	e4ed      	b.n	408180 <_dtoa_r+0x558>
  4087a4:	4615      	mov	r5, r2
  4087a6:	f815 3c01 	ldrb.w	r3, [r5, #-1]
  4087aa:	2b30      	cmp	r3, #48	; 0x30
  4087ac:	f105 32ff 	add.w	r2, r5, #4294967295
  4087b0:	d0f8      	beq.n	4087a4 <_dtoa_r+0xb7c>
  4087b2:	e4f5      	b.n	4081a0 <_dtoa_r+0x578>
  4087b4:	9b04      	ldr	r3, [sp, #16]
  4087b6:	425c      	negs	r4, r3
  4087b8:	2c00      	cmp	r4, #0
  4087ba:	f000 80bf 	beq.w	40893c <_dtoa_r+0xd14>
  4087be:	4b8a      	ldr	r3, [pc, #552]	; (4089e8 <_dtoa_r+0xdc0>)
  4087c0:	f004 020f 	and.w	r2, r4, #15
  4087c4:	eb03 03c2 	add.w	r3, r3, r2, lsl #3
  4087c8:	e9d3 2300 	ldrd	r2, r3, [r3]
  4087cc:	e9dd 010e 	ldrd	r0, r1, [sp, #56]	; 0x38
  4087d0:	f002 fbd8 	bl	40af84 <__aeabi_dmul>
  4087d4:	1124      	asrs	r4, r4, #4
  4087d6:	4606      	mov	r6, r0
  4087d8:	460f      	mov	r7, r1
  4087da:	f000 812a 	beq.w	408a32 <_dtoa_r+0xe0a>
  4087de:	4d83      	ldr	r5, [pc, #524]	; (4089ec <_dtoa_r+0xdc4>)
  4087e0:	f04f 0802 	mov.w	r8, #2
  4087e4:	07e2      	lsls	r2, r4, #31
  4087e6:	d509      	bpl.n	4087fc <_dtoa_r+0xbd4>
  4087e8:	4630      	mov	r0, r6
  4087ea:	4639      	mov	r1, r7
  4087ec:	e9d5 2300 	ldrd	r2, r3, [r5]
  4087f0:	f002 fbc8 	bl	40af84 <__aeabi_dmul>
  4087f4:	f108 0801 	add.w	r8, r8, #1
  4087f8:	4606      	mov	r6, r0
  4087fa:	460f      	mov	r7, r1
  4087fc:	1064      	asrs	r4, r4, #1
  4087fe:	f105 0508 	add.w	r5, r5, #8
  408802:	d1ef      	bne.n	4087e4 <_dtoa_r+0xbbc>
  408804:	e576      	b.n	4082f4 <_dtoa_r+0x6cc>
  408806:	9907      	ldr	r1, [sp, #28]
  408808:	2230      	movs	r2, #48	; 0x30
  40880a:	700a      	strb	r2, [r1, #0]
  40880c:	9a04      	ldr	r2, [sp, #16]
  40880e:	f815 4c01 	ldrb.w	r4, [r5, #-1]
  408812:	3201      	adds	r2, #1
  408814:	9204      	str	r2, [sp, #16]
  408816:	f7ff bbd0 	b.w	407fba <_dtoa_r+0x392>
  40881a:	6871      	ldr	r1, [r6, #4]
  40881c:	4648      	mov	r0, r9
  40881e:	f001 fa59 	bl	409cd4 <_Balloc>
  408822:	6933      	ldr	r3, [r6, #16]
  408824:	1c9a      	adds	r2, r3, #2
  408826:	4605      	mov	r5, r0
  408828:	0092      	lsls	r2, r2, #2
  40882a:	f106 010c 	add.w	r1, r6, #12
  40882e:	300c      	adds	r0, #12
  408830:	f001 f94e 	bl	409ad0 <memcpy>
  408834:	4629      	mov	r1, r5
  408836:	2201      	movs	r2, #1
  408838:	4648      	mov	r0, r9
  40883a:	f001 fbfb 	bl	40a034 <__lshift>
  40883e:	9005      	str	r0, [sp, #20]
  408840:	e670      	b.n	408524 <_dtoa_r+0x8fc>
  408842:	2b39      	cmp	r3, #57	; 0x39
  408844:	f8cd b014 	str.w	fp, [sp, #20]
  408848:	46d0      	mov	r8, sl
  40884a:	f000 80a3 	beq.w	408994 <_dtoa_r+0xd6c>
  40884e:	f103 0a01 	add.w	sl, r3, #1
  408852:	46b3      	mov	fp, r6
  408854:	f887 a000 	strb.w	sl, [r7]
  408858:	1c7d      	adds	r5, r7, #1
  40885a:	9e05      	ldr	r6, [sp, #20]
  40885c:	9408      	str	r4, [sp, #32]
  40885e:	e49f      	b.n	4081a0 <_dtoa_r+0x578>
  408860:	465a      	mov	r2, fp
  408862:	46d0      	mov	r8, sl
  408864:	46b3      	mov	fp, r6
  408866:	469a      	mov	sl, r3
  408868:	4616      	mov	r6, r2
  40886a:	e47d      	b.n	408168 <_dtoa_r+0x540>
  40886c:	495e      	ldr	r1, [pc, #376]	; (4089e8 <_dtoa_r+0xdc0>)
  40886e:	f108 3aff 	add.w	sl, r8, #4294967295
  408872:	eb01 01ca 	add.w	r1, r1, sl, lsl #3
  408876:	4622      	mov	r2, r4
  408878:	462b      	mov	r3, r5
  40887a:	e9d1 0100 	ldrd	r0, r1, [r1]
  40887e:	f002 fb81 	bl	40af84 <__aeabi_dmul>
  408882:	e9cd 0112 	strd	r0, r1, [sp, #72]	; 0x48
  408886:	4639      	mov	r1, r7
  408888:	4630      	mov	r0, r6
  40888a:	f002 fe2b 	bl	40b4e4 <__aeabi_d2iz>
  40888e:	4604      	mov	r4, r0
  408890:	f002 fb12 	bl	40aeb8 <__aeabi_i2d>
  408894:	4602      	mov	r2, r0
  408896:	460b      	mov	r3, r1
  408898:	4630      	mov	r0, r6
  40889a:	4639      	mov	r1, r7
  40889c:	f002 f9be 	bl	40ac1c <__aeabi_dsub>
  4088a0:	9a07      	ldr	r2, [sp, #28]
  4088a2:	3430      	adds	r4, #48	; 0x30
  4088a4:	f1b8 0f01 	cmp.w	r8, #1
  4088a8:	4606      	mov	r6, r0
  4088aa:	460f      	mov	r7, r1
  4088ac:	7014      	strb	r4, [r2, #0]
  4088ae:	f102 0501 	add.w	r5, r2, #1
  4088b2:	d01e      	beq.n	4088f2 <_dtoa_r+0xcca>
  4088b4:	9b07      	ldr	r3, [sp, #28]
  4088b6:	eb03 0b08 	add.w	fp, r3, r8
  4088ba:	46a8      	mov	r8, r5
  4088bc:	2200      	movs	r2, #0
  4088be:	4b4c      	ldr	r3, [pc, #304]	; (4089f0 <_dtoa_r+0xdc8>)
  4088c0:	4630      	mov	r0, r6
  4088c2:	4639      	mov	r1, r7
  4088c4:	f002 fb5e 	bl	40af84 <__aeabi_dmul>
  4088c8:	460f      	mov	r7, r1
  4088ca:	4606      	mov	r6, r0
  4088cc:	f002 fe0a 	bl	40b4e4 <__aeabi_d2iz>
  4088d0:	4604      	mov	r4, r0
  4088d2:	f002 faf1 	bl	40aeb8 <__aeabi_i2d>
  4088d6:	3430      	adds	r4, #48	; 0x30
  4088d8:	4602      	mov	r2, r0
  4088da:	460b      	mov	r3, r1
  4088dc:	4630      	mov	r0, r6
  4088de:	4639      	mov	r1, r7
  4088e0:	f002 f99c 	bl	40ac1c <__aeabi_dsub>
  4088e4:	f808 4b01 	strb.w	r4, [r8], #1
  4088e8:	45c3      	cmp	fp, r8
  4088ea:	4606      	mov	r6, r0
  4088ec:	460f      	mov	r7, r1
  4088ee:	d1e5      	bne.n	4088bc <_dtoa_r+0xc94>
  4088f0:	4455      	add	r5, sl
  4088f2:	2200      	movs	r2, #0
  4088f4:	4b3f      	ldr	r3, [pc, #252]	; (4089f4 <_dtoa_r+0xdcc>)
  4088f6:	e9dd 0112 	ldrd	r0, r1, [sp, #72]	; 0x48
  4088fa:	f002 f991 	bl	40ac20 <__adddf3>
  4088fe:	4632      	mov	r2, r6
  408900:	463b      	mov	r3, r7
  408902:	f002 fdb1 	bl	40b468 <__aeabi_dcmplt>
  408906:	2800      	cmp	r0, #0
  408908:	d04c      	beq.n	4089a4 <_dtoa_r+0xd7c>
  40890a:	9b11      	ldr	r3, [sp, #68]	; 0x44
  40890c:	9304      	str	r3, [sp, #16]
  40890e:	f815 4c01 	ldrb.w	r4, [r5, #-1]
  408912:	f7ff bb46 	b.w	407fa2 <_dtoa_r+0x37a>
  408916:	f04f 0800 	mov.w	r8, #0
  40891a:	4646      	mov	r6, r8
  40891c:	e6a8      	b.n	408670 <_dtoa_r+0xa48>
  40891e:	9b05      	ldr	r3, [sp, #20]
  408920:	9a06      	ldr	r2, [sp, #24]
  408922:	1a9d      	subs	r5, r3, r2
  408924:	2300      	movs	r3, #0
  408926:	f7ff bb72 	b.w	40800e <_dtoa_r+0x3e6>
  40892a:	2700      	movs	r7, #0
  40892c:	e6ca      	b.n	4086c4 <_dtoa_r+0xa9c>
  40892e:	9b14      	ldr	r3, [sp, #80]	; 0x50
  408930:	9f0a      	ldr	r7, [sp, #40]	; 0x28
  408932:	9d05      	ldr	r5, [sp, #20]
  408934:	f1c3 0336 	rsb	r3, r3, #54	; 0x36
  408938:	f7ff bb69 	b.w	40800e <_dtoa_r+0x3e6>
  40893c:	e9dd 670e 	ldrd	r6, r7, [sp, #56]	; 0x38
  408940:	f04f 0802 	mov.w	r8, #2
  408944:	e4d6      	b.n	4082f4 <_dtoa_r+0x6cc>
  408946:	9408      	str	r4, [sp, #32]
  408948:	e5a0      	b.n	40848c <_dtoa_r+0x864>
  40894a:	9b06      	ldr	r3, [sp, #24]
  40894c:	2b00      	cmp	r3, #0
  40894e:	f43f aebf 	beq.w	4086d0 <_dtoa_r+0xaa8>
  408952:	9b0d      	ldr	r3, [sp, #52]	; 0x34
  408954:	2b00      	cmp	r3, #0
  408956:	f77f aee3 	ble.w	408720 <_dtoa_r+0xaf8>
  40895a:	2200      	movs	r2, #0
  40895c:	4b24      	ldr	r3, [pc, #144]	; (4089f0 <_dtoa_r+0xdc8>)
  40895e:	4630      	mov	r0, r6
  408960:	4639      	mov	r1, r7
  408962:	f002 fb0f 	bl	40af84 <__aeabi_dmul>
  408966:	4606      	mov	r6, r0
  408968:	460f      	mov	r7, r1
  40896a:	f108 0001 	add.w	r0, r8, #1
  40896e:	f002 faa3 	bl	40aeb8 <__aeabi_i2d>
  408972:	4632      	mov	r2, r6
  408974:	463b      	mov	r3, r7
  408976:	f002 fb05 	bl	40af84 <__aeabi_dmul>
  40897a:	2200      	movs	r2, #0
  40897c:	4b18      	ldr	r3, [pc, #96]	; (4089e0 <_dtoa_r+0xdb8>)
  40897e:	f002 f94f 	bl	40ac20 <__adddf3>
  408982:	9a04      	ldr	r2, [sp, #16]
  408984:	f8dd 8034 	ldr.w	r8, [sp, #52]	; 0x34
  408988:	3a01      	subs	r2, #1
  40898a:	4604      	mov	r4, r0
  40898c:	f1a1 7550 	sub.w	r5, r1, #54525952	; 0x3400000
  408990:	9211      	str	r2, [sp, #68]	; 0x44
  408992:	e4d0      	b.n	408336 <_dtoa_r+0x70e>
  408994:	2239      	movs	r2, #57	; 0x39
  408996:	46b3      	mov	fp, r6
  408998:	9408      	str	r4, [sp, #32]
  40899a:	9e05      	ldr	r6, [sp, #20]
  40899c:	703a      	strb	r2, [r7, #0]
  40899e:	1c7d      	adds	r5, r7, #1
  4089a0:	f7ff bbf0 	b.w	408184 <_dtoa_r+0x55c>
  4089a4:	e9dd 2312 	ldrd	r2, r3, [sp, #72]	; 0x48
  4089a8:	2000      	movs	r0, #0
  4089aa:	4912      	ldr	r1, [pc, #72]	; (4089f4 <_dtoa_r+0xdcc>)
  4089ac:	f002 f936 	bl	40ac1c <__aeabi_dsub>
  4089b0:	4632      	mov	r2, r6
  4089b2:	463b      	mov	r3, r7
  4089b4:	f002 fd76 	bl	40b4a4 <__aeabi_dcmpgt>
  4089b8:	b908      	cbnz	r0, 4089be <_dtoa_r+0xd96>
  4089ba:	e6b1      	b.n	408720 <_dtoa_r+0xaf8>
  4089bc:	4615      	mov	r5, r2
  4089be:	f815 3c01 	ldrb.w	r3, [r5, #-1]
  4089c2:	2b30      	cmp	r3, #48	; 0x30
  4089c4:	f105 32ff 	add.w	r2, r5, #4294967295
  4089c8:	d0f8      	beq.n	4089bc <_dtoa_r+0xd94>
  4089ca:	e530      	b.n	40842e <_dtoa_r+0x806>
  4089cc:	9b11      	ldr	r3, [sp, #68]	; 0x44
  4089ce:	9304      	str	r3, [sp, #16]
  4089d0:	f7ff bae7 	b.w	407fa2 <_dtoa_r+0x37a>
  4089d4:	f1ba 0f00 	cmp.w	sl, #0
  4089d8:	f47f ad7a 	bne.w	4084d0 <_dtoa_r+0x8a8>
  4089dc:	e661      	b.n	4086a2 <_dtoa_r+0xa7a>
  4089de:	bf00      	nop
  4089e0:	401c0000 	.word	0x401c0000
  4089e4:	40140000 	.word	0x40140000
  4089e8:	0040cb88 	.word	0x0040cb88
  4089ec:	0040cc50 	.word	0x0040cc50
  4089f0:	40240000 	.word	0x40240000
  4089f4:	3fe00000 	.word	0x3fe00000
  4089f8:	2b39      	cmp	r3, #57	; 0x39
  4089fa:	f8cd b014 	str.w	fp, [sp, #20]
  4089fe:	46d0      	mov	r8, sl
  408a00:	f8dd b008 	ldr.w	fp, [sp, #8]
  408a04:	469a      	mov	sl, r3
  408a06:	d0c5      	beq.n	408994 <_dtoa_r+0xd6c>
  408a08:	f1bb 0f00 	cmp.w	fp, #0
  408a0c:	f73f aebc 	bgt.w	408788 <_dtoa_r+0xb60>
  408a10:	e6bc      	b.n	40878c <_dtoa_r+0xb64>
  408a12:	f47f aebb 	bne.w	40878c <_dtoa_r+0xb64>
  408a16:	f01a 0f01 	tst.w	sl, #1
  408a1a:	f43f aeb7 	beq.w	40878c <_dtoa_r+0xb64>
  408a1e:	e6af      	b.n	408780 <_dtoa_r+0xb58>
  408a20:	f04f 0800 	mov.w	r8, #0
  408a24:	4646      	mov	r6, r8
  408a26:	e531      	b.n	40848c <_dtoa_r+0x864>
  408a28:	9b20      	ldr	r3, [sp, #128]	; 0x80
  408a2a:	2b02      	cmp	r3, #2
  408a2c:	dc21      	bgt.n	408a72 <_dtoa_r+0xe4a>
  408a2e:	9b0d      	ldr	r3, [sp, #52]	; 0x34
  408a30:	e604      	b.n	40863c <_dtoa_r+0xa14>
  408a32:	f04f 0802 	mov.w	r8, #2
  408a36:	e45d      	b.n	4082f4 <_dtoa_r+0x6cc>
  408a38:	9b20      	ldr	r3, [sp, #128]	; 0x80
  408a3a:	2b02      	cmp	r3, #2
  408a3c:	dc19      	bgt.n	408a72 <_dtoa_r+0xe4a>
  408a3e:	9b0d      	ldr	r3, [sp, #52]	; 0x34
  408a40:	e563      	b.n	40850a <_dtoa_r+0x8e2>
  408a42:	2400      	movs	r4, #0
  408a44:	f8c9 4044 	str.w	r4, [r9, #68]	; 0x44
  408a48:	4621      	mov	r1, r4
  408a4a:	4648      	mov	r0, r9
  408a4c:	f001 f942 	bl	409cd4 <_Balloc>
  408a50:	f04f 33ff 	mov.w	r3, #4294967295
  408a54:	9306      	str	r3, [sp, #24]
  408a56:	930d      	str	r3, [sp, #52]	; 0x34
  408a58:	2301      	movs	r3, #1
  408a5a:	9007      	str	r0, [sp, #28]
  408a5c:	9421      	str	r4, [sp, #132]	; 0x84
  408a5e:	f8c9 0040 	str.w	r0, [r9, #64]	; 0x40
  408a62:	9309      	str	r3, [sp, #36]	; 0x24
  408a64:	f7ff b9e9 	b.w	407e3a <_dtoa_r+0x212>
  408a68:	f43f ab3d 	beq.w	4080e6 <_dtoa_r+0x4be>
  408a6c:	f1c0 003c 	rsb	r0, r0, #60	; 0x3c
  408a70:	e522      	b.n	4084b8 <_dtoa_r+0x890>
  408a72:	9b0d      	ldr	r3, [sp, #52]	; 0x34
  408a74:	9306      	str	r3, [sp, #24]
  408a76:	e5e9      	b.n	40864c <_dtoa_r+0xa24>
  408a78:	2501      	movs	r5, #1
  408a7a:	f7ff b9a8 	b.w	407dce <_dtoa_r+0x1a6>
  408a7e:	bf00      	nop

00408a80 <__sflush_r>:
  408a80:	f9b1 300c 	ldrsh.w	r3, [r1, #12]
  408a84:	b29a      	uxth	r2, r3
  408a86:	e92d 41f0 	stmdb	sp!, {r4, r5, r6, r7, r8, lr}
  408a8a:	460d      	mov	r5, r1
  408a8c:	0711      	lsls	r1, r2, #28
  408a8e:	4680      	mov	r8, r0
  408a90:	d43c      	bmi.n	408b0c <__sflush_r+0x8c>
  408a92:	686a      	ldr	r2, [r5, #4]
  408a94:	f443 6300 	orr.w	r3, r3, #2048	; 0x800
  408a98:	2a00      	cmp	r2, #0
  408a9a:	81ab      	strh	r3, [r5, #12]
  408a9c:	dd73      	ble.n	408b86 <__sflush_r+0x106>
  408a9e:	6aac      	ldr	r4, [r5, #40]	; 0x28
  408aa0:	2c00      	cmp	r4, #0
  408aa2:	d04b      	beq.n	408b3c <__sflush_r+0xbc>
  408aa4:	b29b      	uxth	r3, r3
  408aa6:	f403 5280 	and.w	r2, r3, #4096	; 0x1000
  408aaa:	2100      	movs	r1, #0
  408aac:	b292      	uxth	r2, r2
  408aae:	f8d8 6000 	ldr.w	r6, [r8]
  408ab2:	f8c8 1000 	str.w	r1, [r8]
  408ab6:	2a00      	cmp	r2, #0
  408ab8:	d069      	beq.n	408b8e <__sflush_r+0x10e>
  408aba:	6d2a      	ldr	r2, [r5, #80]	; 0x50
  408abc:	075f      	lsls	r7, r3, #29
  408abe:	d505      	bpl.n	408acc <__sflush_r+0x4c>
  408ac0:	6869      	ldr	r1, [r5, #4]
  408ac2:	6b2b      	ldr	r3, [r5, #48]	; 0x30
  408ac4:	1a52      	subs	r2, r2, r1
  408ac6:	b10b      	cbz	r3, 408acc <__sflush_r+0x4c>
  408ac8:	6beb      	ldr	r3, [r5, #60]	; 0x3c
  408aca:	1ad2      	subs	r2, r2, r3
  408acc:	2300      	movs	r3, #0
  408ace:	69e9      	ldr	r1, [r5, #28]
  408ad0:	4640      	mov	r0, r8
  408ad2:	47a0      	blx	r4
  408ad4:	1c44      	adds	r4, r0, #1
  408ad6:	d03c      	beq.n	408b52 <__sflush_r+0xd2>
  408ad8:	f9b5 300c 	ldrsh.w	r3, [r5, #12]
  408adc:	692a      	ldr	r2, [r5, #16]
  408ade:	602a      	str	r2, [r5, #0]
  408ae0:	f423 6300 	bic.w	r3, r3, #2048	; 0x800
  408ae4:	2200      	movs	r2, #0
  408ae6:	81ab      	strh	r3, [r5, #12]
  408ae8:	04db      	lsls	r3, r3, #19
  408aea:	606a      	str	r2, [r5, #4]
  408aec:	d449      	bmi.n	408b82 <__sflush_r+0x102>
  408aee:	6b29      	ldr	r1, [r5, #48]	; 0x30
  408af0:	f8c8 6000 	str.w	r6, [r8]
  408af4:	b311      	cbz	r1, 408b3c <__sflush_r+0xbc>
  408af6:	f105 0340 	add.w	r3, r5, #64	; 0x40
  408afa:	4299      	cmp	r1, r3
  408afc:	d002      	beq.n	408b04 <__sflush_r+0x84>
  408afe:	4640      	mov	r0, r8
  408b00:	f000 f9c0 	bl	408e84 <_free_r>
  408b04:	2000      	movs	r0, #0
  408b06:	6328      	str	r0, [r5, #48]	; 0x30
  408b08:	e8bd 81f0 	ldmia.w	sp!, {r4, r5, r6, r7, r8, pc}
  408b0c:	692e      	ldr	r6, [r5, #16]
  408b0e:	b1ae      	cbz	r6, 408b3c <__sflush_r+0xbc>
  408b10:	682c      	ldr	r4, [r5, #0]
  408b12:	602e      	str	r6, [r5, #0]
  408b14:	0790      	lsls	r0, r2, #30
  408b16:	bf0c      	ite	eq
  408b18:	696b      	ldreq	r3, [r5, #20]
  408b1a:	2300      	movne	r3, #0
  408b1c:	1ba4      	subs	r4, r4, r6
  408b1e:	60ab      	str	r3, [r5, #8]
  408b20:	e00a      	b.n	408b38 <__sflush_r+0xb8>
  408b22:	4623      	mov	r3, r4
  408b24:	4632      	mov	r2, r6
  408b26:	6a6f      	ldr	r7, [r5, #36]	; 0x24
  408b28:	69e9      	ldr	r1, [r5, #28]
  408b2a:	4640      	mov	r0, r8
  408b2c:	47b8      	blx	r7
  408b2e:	2800      	cmp	r0, #0
  408b30:	eba4 0400 	sub.w	r4, r4, r0
  408b34:	4406      	add	r6, r0
  408b36:	dd04      	ble.n	408b42 <__sflush_r+0xc2>
  408b38:	2c00      	cmp	r4, #0
  408b3a:	dcf2      	bgt.n	408b22 <__sflush_r+0xa2>
  408b3c:	2000      	movs	r0, #0
  408b3e:	e8bd 81f0 	ldmia.w	sp!, {r4, r5, r6, r7, r8, pc}
  408b42:	89ab      	ldrh	r3, [r5, #12]
  408b44:	f043 0340 	orr.w	r3, r3, #64	; 0x40
  408b48:	81ab      	strh	r3, [r5, #12]
  408b4a:	f04f 30ff 	mov.w	r0, #4294967295
  408b4e:	e8bd 81f0 	ldmia.w	sp!, {r4, r5, r6, r7, r8, pc}
  408b52:	f8d8 2000 	ldr.w	r2, [r8]
  408b56:	2a1d      	cmp	r2, #29
  408b58:	d8f3      	bhi.n	408b42 <__sflush_r+0xc2>
  408b5a:	4b1a      	ldr	r3, [pc, #104]	; (408bc4 <__sflush_r+0x144>)
  408b5c:	40d3      	lsrs	r3, r2
  408b5e:	f003 0301 	and.w	r3, r3, #1
  408b62:	f083 0401 	eor.w	r4, r3, #1
  408b66:	2b00      	cmp	r3, #0
  408b68:	d0eb      	beq.n	408b42 <__sflush_r+0xc2>
  408b6a:	f9b5 300c 	ldrsh.w	r3, [r5, #12]
  408b6e:	6929      	ldr	r1, [r5, #16]
  408b70:	6029      	str	r1, [r5, #0]
  408b72:	f423 6300 	bic.w	r3, r3, #2048	; 0x800
  408b76:	04d9      	lsls	r1, r3, #19
  408b78:	606c      	str	r4, [r5, #4]
  408b7a:	81ab      	strh	r3, [r5, #12]
  408b7c:	d5b7      	bpl.n	408aee <__sflush_r+0x6e>
  408b7e:	2a00      	cmp	r2, #0
  408b80:	d1b5      	bne.n	408aee <__sflush_r+0x6e>
  408b82:	6528      	str	r0, [r5, #80]	; 0x50
  408b84:	e7b3      	b.n	408aee <__sflush_r+0x6e>
  408b86:	6bea      	ldr	r2, [r5, #60]	; 0x3c
  408b88:	2a00      	cmp	r2, #0
  408b8a:	dc88      	bgt.n	408a9e <__sflush_r+0x1e>
  408b8c:	e7d6      	b.n	408b3c <__sflush_r+0xbc>
  408b8e:	2301      	movs	r3, #1
  408b90:	69e9      	ldr	r1, [r5, #28]
  408b92:	4640      	mov	r0, r8
  408b94:	47a0      	blx	r4
  408b96:	1c43      	adds	r3, r0, #1
  408b98:	4602      	mov	r2, r0
  408b9a:	d002      	beq.n	408ba2 <__sflush_r+0x122>
  408b9c:	89ab      	ldrh	r3, [r5, #12]
  408b9e:	6aac      	ldr	r4, [r5, #40]	; 0x28
  408ba0:	e78c      	b.n	408abc <__sflush_r+0x3c>
  408ba2:	f8d8 3000 	ldr.w	r3, [r8]
  408ba6:	2b00      	cmp	r3, #0
  408ba8:	d0f8      	beq.n	408b9c <__sflush_r+0x11c>
  408baa:	2b1d      	cmp	r3, #29
  408bac:	d001      	beq.n	408bb2 <__sflush_r+0x132>
  408bae:	2b16      	cmp	r3, #22
  408bb0:	d102      	bne.n	408bb8 <__sflush_r+0x138>
  408bb2:	f8c8 6000 	str.w	r6, [r8]
  408bb6:	e7c1      	b.n	408b3c <__sflush_r+0xbc>
  408bb8:	89ab      	ldrh	r3, [r5, #12]
  408bba:	f043 0340 	orr.w	r3, r3, #64	; 0x40
  408bbe:	81ab      	strh	r3, [r5, #12]
  408bc0:	e8bd 81f0 	ldmia.w	sp!, {r4, r5, r6, r7, r8, pc}
  408bc4:	20400001 	.word	0x20400001

00408bc8 <_fflush_r>:
  408bc8:	b510      	push	{r4, lr}
  408bca:	4604      	mov	r4, r0
  408bcc:	b082      	sub	sp, #8
  408bce:	b108      	cbz	r0, 408bd4 <_fflush_r+0xc>
  408bd0:	6b83      	ldr	r3, [r0, #56]	; 0x38
  408bd2:	b153      	cbz	r3, 408bea <_fflush_r+0x22>
  408bd4:	f9b1 000c 	ldrsh.w	r0, [r1, #12]
  408bd8:	b908      	cbnz	r0, 408bde <_fflush_r+0x16>
  408bda:	b002      	add	sp, #8
  408bdc:	bd10      	pop	{r4, pc}
  408bde:	4620      	mov	r0, r4
  408be0:	b002      	add	sp, #8
  408be2:	e8bd 4010 	ldmia.w	sp!, {r4, lr}
  408be6:	f7ff bf4b 	b.w	408a80 <__sflush_r>
  408bea:	9101      	str	r1, [sp, #4]
  408bec:	f000 f880 	bl	408cf0 <__sinit>
  408bf0:	9901      	ldr	r1, [sp, #4]
  408bf2:	e7ef      	b.n	408bd4 <_fflush_r+0xc>

00408bf4 <_cleanup_r>:
  408bf4:	4901      	ldr	r1, [pc, #4]	; (408bfc <_cleanup_r+0x8>)
  408bf6:	f000 bbaf 	b.w	409358 <_fwalk_reent>
  408bfa:	bf00      	nop
  408bfc:	0040aaed 	.word	0x0040aaed

00408c00 <__sinit.part.1>:
  408c00:	e92d 4ff0 	stmdb	sp!, {r4, r5, r6, r7, r8, r9, sl, fp, lr}
  408c04:	4b35      	ldr	r3, [pc, #212]	; (408cdc <__sinit.part.1+0xdc>)
  408c06:	6845      	ldr	r5, [r0, #4]
  408c08:	63c3      	str	r3, [r0, #60]	; 0x3c
  408c0a:	2400      	movs	r4, #0
  408c0c:	4607      	mov	r7, r0
  408c0e:	f500 723b 	add.w	r2, r0, #748	; 0x2ec
  408c12:	2304      	movs	r3, #4
  408c14:	2103      	movs	r1, #3
  408c16:	f8c0 12e4 	str.w	r1, [r0, #740]	; 0x2e4
  408c1a:	f8c0 22e8 	str.w	r2, [r0, #744]	; 0x2e8
  408c1e:	f8c0 42e0 	str.w	r4, [r0, #736]	; 0x2e0
  408c22:	b083      	sub	sp, #12
  408c24:	602c      	str	r4, [r5, #0]
  408c26:	606c      	str	r4, [r5, #4]
  408c28:	60ac      	str	r4, [r5, #8]
  408c2a:	666c      	str	r4, [r5, #100]	; 0x64
  408c2c:	81ec      	strh	r4, [r5, #14]
  408c2e:	612c      	str	r4, [r5, #16]
  408c30:	616c      	str	r4, [r5, #20]
  408c32:	61ac      	str	r4, [r5, #24]
  408c34:	81ab      	strh	r3, [r5, #12]
  408c36:	4621      	mov	r1, r4
  408c38:	f105 005c 	add.w	r0, r5, #92	; 0x5c
  408c3c:	2208      	movs	r2, #8
  408c3e:	f7fc fa8d 	bl	40515c <memset>
  408c42:	68be      	ldr	r6, [r7, #8]
  408c44:	f8df b098 	ldr.w	fp, [pc, #152]	; 408ce0 <__sinit.part.1+0xe0>
  408c48:	f8df a098 	ldr.w	sl, [pc, #152]	; 408ce4 <__sinit.part.1+0xe4>
  408c4c:	f8df 9098 	ldr.w	r9, [pc, #152]	; 408ce8 <__sinit.part.1+0xe8>
  408c50:	f8df 8098 	ldr.w	r8, [pc, #152]	; 408cec <__sinit.part.1+0xec>
  408c54:	f8c5 b020 	str.w	fp, [r5, #32]
  408c58:	2301      	movs	r3, #1
  408c5a:	2209      	movs	r2, #9
  408c5c:	f8c5 a024 	str.w	sl, [r5, #36]	; 0x24
  408c60:	f8c5 9028 	str.w	r9, [r5, #40]	; 0x28
  408c64:	f8c5 802c 	str.w	r8, [r5, #44]	; 0x2c
  408c68:	61ed      	str	r5, [r5, #28]
  408c6a:	4621      	mov	r1, r4
  408c6c:	81f3      	strh	r3, [r6, #14]
  408c6e:	81b2      	strh	r2, [r6, #12]
  408c70:	f106 005c 	add.w	r0, r6, #92	; 0x5c
  408c74:	6034      	str	r4, [r6, #0]
  408c76:	6074      	str	r4, [r6, #4]
  408c78:	60b4      	str	r4, [r6, #8]
  408c7a:	6674      	str	r4, [r6, #100]	; 0x64
  408c7c:	6134      	str	r4, [r6, #16]
  408c7e:	6174      	str	r4, [r6, #20]
  408c80:	61b4      	str	r4, [r6, #24]
  408c82:	2208      	movs	r2, #8
  408c84:	9301      	str	r3, [sp, #4]
  408c86:	f7fc fa69 	bl	40515c <memset>
  408c8a:	68fd      	ldr	r5, [r7, #12]
  408c8c:	61f6      	str	r6, [r6, #28]
  408c8e:	2012      	movs	r0, #18
  408c90:	2202      	movs	r2, #2
  408c92:	f8c6 b020 	str.w	fp, [r6, #32]
  408c96:	f8c6 a024 	str.w	sl, [r6, #36]	; 0x24
  408c9a:	f8c6 9028 	str.w	r9, [r6, #40]	; 0x28
  408c9e:	f8c6 802c 	str.w	r8, [r6, #44]	; 0x2c
  408ca2:	4621      	mov	r1, r4
  408ca4:	81a8      	strh	r0, [r5, #12]
  408ca6:	81ea      	strh	r2, [r5, #14]
  408ca8:	602c      	str	r4, [r5, #0]
  408caa:	606c      	str	r4, [r5, #4]
  408cac:	60ac      	str	r4, [r5, #8]
  408cae:	666c      	str	r4, [r5, #100]	; 0x64
  408cb0:	612c      	str	r4, [r5, #16]
  408cb2:	616c      	str	r4, [r5, #20]
  408cb4:	61ac      	str	r4, [r5, #24]
  408cb6:	f105 005c 	add.w	r0, r5, #92	; 0x5c
  408cba:	2208      	movs	r2, #8
  408cbc:	f7fc fa4e 	bl	40515c <memset>
  408cc0:	9b01      	ldr	r3, [sp, #4]
  408cc2:	61ed      	str	r5, [r5, #28]
  408cc4:	f8c5 b020 	str.w	fp, [r5, #32]
  408cc8:	f8c5 a024 	str.w	sl, [r5, #36]	; 0x24
  408ccc:	f8c5 9028 	str.w	r9, [r5, #40]	; 0x28
  408cd0:	f8c5 802c 	str.w	r8, [r5, #44]	; 0x2c
  408cd4:	63bb      	str	r3, [r7, #56]	; 0x38
  408cd6:	b003      	add	sp, #12
  408cd8:	e8bd 8ff0 	ldmia.w	sp!, {r4, r5, r6, r7, r8, r9, sl, fp, pc}
  408cdc:	00408bf5 	.word	0x00408bf5
  408ce0:	0040a6f5 	.word	0x0040a6f5
  408ce4:	0040a719 	.word	0x0040a719
  408ce8:	0040a755 	.word	0x0040a755
  408cec:	0040a775 	.word	0x0040a775

00408cf0 <__sinit>:
  408cf0:	6b83      	ldr	r3, [r0, #56]	; 0x38
  408cf2:	b103      	cbz	r3, 408cf6 <__sinit+0x6>
  408cf4:	4770      	bx	lr
  408cf6:	f7ff bf83 	b.w	408c00 <__sinit.part.1>
  408cfa:	bf00      	nop

00408cfc <__sfp_lock_acquire>:
  408cfc:	4770      	bx	lr
  408cfe:	bf00      	nop

00408d00 <__sfp_lock_release>:
  408d00:	4770      	bx	lr
  408d02:	bf00      	nop

00408d04 <__libc_fini_array>:
  408d04:	b538      	push	{r3, r4, r5, lr}
  408d06:	4d07      	ldr	r5, [pc, #28]	; (408d24 <__libc_fini_array+0x20>)
  408d08:	4c07      	ldr	r4, [pc, #28]	; (408d28 <__libc_fini_array+0x24>)
  408d0a:	1b2c      	subs	r4, r5, r4
  408d0c:	10a4      	asrs	r4, r4, #2
  408d0e:	d005      	beq.n	408d1c <__libc_fini_array+0x18>
  408d10:	3c01      	subs	r4, #1
  408d12:	f855 3d04 	ldr.w	r3, [r5, #-4]!
  408d16:	4798      	blx	r3
  408d18:	2c00      	cmp	r4, #0
  408d1a:	d1f9      	bne.n	408d10 <__libc_fini_array+0xc>
  408d1c:	e8bd 4038 	ldmia.w	sp!, {r3, r4, r5, lr}
  408d20:	f003 bfba 	b.w	40cc98 <_fini>
  408d24:	0040cca8 	.word	0x0040cca8
  408d28:	0040cca4 	.word	0x0040cca4

00408d2c <__fputwc>:
  408d2c:	e92d 47f0 	stmdb	sp!, {r4, r5, r6, r7, r8, r9, sl, lr}
  408d30:	b082      	sub	sp, #8
  408d32:	4680      	mov	r8, r0
  408d34:	4689      	mov	r9, r1
  408d36:	4614      	mov	r4, r2
  408d38:	f000 fb3c 	bl	4093b4 <__locale_mb_cur_max>
  408d3c:	2801      	cmp	r0, #1
  408d3e:	d033      	beq.n	408da8 <__fputwc+0x7c>
  408d40:	f104 035c 	add.w	r3, r4, #92	; 0x5c
  408d44:	464a      	mov	r2, r9
  408d46:	a901      	add	r1, sp, #4
  408d48:	4640      	mov	r0, r8
  408d4a:	f001 fded 	bl	40a928 <_wcrtomb_r>
  408d4e:	f1b0 3fff 	cmp.w	r0, #4294967295
  408d52:	4682      	mov	sl, r0
  408d54:	d021      	beq.n	408d9a <__fputwc+0x6e>
  408d56:	b388      	cbz	r0, 408dbc <__fputwc+0x90>
  408d58:	f89d 6004 	ldrb.w	r6, [sp, #4]
  408d5c:	2500      	movs	r5, #0
  408d5e:	e008      	b.n	408d72 <__fputwc+0x46>
  408d60:	6823      	ldr	r3, [r4, #0]
  408d62:	1c5a      	adds	r2, r3, #1
  408d64:	6022      	str	r2, [r4, #0]
  408d66:	701e      	strb	r6, [r3, #0]
  408d68:	3501      	adds	r5, #1
  408d6a:	4555      	cmp	r5, sl
  408d6c:	d226      	bcs.n	408dbc <__fputwc+0x90>
  408d6e:	ab01      	add	r3, sp, #4
  408d70:	5d5e      	ldrb	r6, [r3, r5]
  408d72:	68a3      	ldr	r3, [r4, #8]
  408d74:	3b01      	subs	r3, #1
  408d76:	2b00      	cmp	r3, #0
  408d78:	60a3      	str	r3, [r4, #8]
  408d7a:	daf1      	bge.n	408d60 <__fputwc+0x34>
  408d7c:	69a7      	ldr	r7, [r4, #24]
  408d7e:	42bb      	cmp	r3, r7
  408d80:	4631      	mov	r1, r6
  408d82:	4622      	mov	r2, r4
  408d84:	4640      	mov	r0, r8
  408d86:	db01      	blt.n	408d8c <__fputwc+0x60>
  408d88:	2e0a      	cmp	r6, #10
  408d8a:	d1e9      	bne.n	408d60 <__fputwc+0x34>
  408d8c:	f001 fd76 	bl	40a87c <__swbuf_r>
  408d90:	1c43      	adds	r3, r0, #1
  408d92:	d1e9      	bne.n	408d68 <__fputwc+0x3c>
  408d94:	b002      	add	sp, #8
  408d96:	e8bd 87f0 	ldmia.w	sp!, {r4, r5, r6, r7, r8, r9, sl, pc}
  408d9a:	89a3      	ldrh	r3, [r4, #12]
  408d9c:	f043 0340 	orr.w	r3, r3, #64	; 0x40
  408da0:	81a3      	strh	r3, [r4, #12]
  408da2:	b002      	add	sp, #8
  408da4:	e8bd 87f0 	ldmia.w	sp!, {r4, r5, r6, r7, r8, r9, sl, pc}
  408da8:	f109 33ff 	add.w	r3, r9, #4294967295
  408dac:	2bfe      	cmp	r3, #254	; 0xfe
  408dae:	d8c7      	bhi.n	408d40 <__fputwc+0x14>
  408db0:	fa5f f689 	uxtb.w	r6, r9
  408db4:	4682      	mov	sl, r0
  408db6:	f88d 6004 	strb.w	r6, [sp, #4]
  408dba:	e7cf      	b.n	408d5c <__fputwc+0x30>
  408dbc:	4648      	mov	r0, r9
  408dbe:	b002      	add	sp, #8
  408dc0:	e8bd 87f0 	ldmia.w	sp!, {r4, r5, r6, r7, r8, r9, sl, pc}

00408dc4 <_fputwc_r>:
  408dc4:	f9b2 300c 	ldrsh.w	r3, [r2, #12]
  408dc8:	f413 5f00 	tst.w	r3, #8192	; 0x2000
  408dcc:	d10a      	bne.n	408de4 <_fputwc_r+0x20>
  408dce:	b410      	push	{r4}
  408dd0:	6e54      	ldr	r4, [r2, #100]	; 0x64
  408dd2:	f443 5300 	orr.w	r3, r3, #8192	; 0x2000
  408dd6:	f444 5400 	orr.w	r4, r4, #8192	; 0x2000
  408dda:	6654      	str	r4, [r2, #100]	; 0x64
  408ddc:	8193      	strh	r3, [r2, #12]
  408dde:	bc10      	pop	{r4}
  408de0:	f7ff bfa4 	b.w	408d2c <__fputwc>
  408de4:	f7ff bfa2 	b.w	408d2c <__fputwc>

00408de8 <_malloc_trim_r>:
  408de8:	b5f8      	push	{r3, r4, r5, r6, r7, lr}
  408dea:	4f23      	ldr	r7, [pc, #140]	; (408e78 <_malloc_trim_r+0x90>)
  408dec:	460c      	mov	r4, r1
  408dee:	4606      	mov	r6, r0
  408df0:	f000 ff6c 	bl	409ccc <__malloc_lock>
  408df4:	68bb      	ldr	r3, [r7, #8]
  408df6:	685d      	ldr	r5, [r3, #4]
  408df8:	f025 0503 	bic.w	r5, r5, #3
  408dfc:	1b29      	subs	r1, r5, r4
  408dfe:	f601 71ef 	addw	r1, r1, #4079	; 0xfef
  408e02:	f421 617f 	bic.w	r1, r1, #4080	; 0xff0
  408e06:	f021 010f 	bic.w	r1, r1, #15
  408e0a:	f5a1 5480 	sub.w	r4, r1, #4096	; 0x1000
  408e0e:	f5b4 5f80 	cmp.w	r4, #4096	; 0x1000
  408e12:	db07      	blt.n	408e24 <_malloc_trim_r+0x3c>
  408e14:	2100      	movs	r1, #0
  408e16:	4630      	mov	r0, r6
  408e18:	f001 fc5a 	bl	40a6d0 <_sbrk_r>
  408e1c:	68bb      	ldr	r3, [r7, #8]
  408e1e:	442b      	add	r3, r5
  408e20:	4298      	cmp	r0, r3
  408e22:	d004      	beq.n	408e2e <_malloc_trim_r+0x46>
  408e24:	4630      	mov	r0, r6
  408e26:	f000 ff53 	bl	409cd0 <__malloc_unlock>
  408e2a:	2000      	movs	r0, #0
  408e2c:	bdf8      	pop	{r3, r4, r5, r6, r7, pc}
  408e2e:	4261      	negs	r1, r4
  408e30:	4630      	mov	r0, r6
  408e32:	f001 fc4d 	bl	40a6d0 <_sbrk_r>
  408e36:	3001      	adds	r0, #1
  408e38:	d00d      	beq.n	408e56 <_malloc_trim_r+0x6e>
  408e3a:	4b10      	ldr	r3, [pc, #64]	; (408e7c <_malloc_trim_r+0x94>)
  408e3c:	68ba      	ldr	r2, [r7, #8]
  408e3e:	6819      	ldr	r1, [r3, #0]
  408e40:	1b2d      	subs	r5, r5, r4
  408e42:	f045 0501 	orr.w	r5, r5, #1
  408e46:	4630      	mov	r0, r6
  408e48:	1b09      	subs	r1, r1, r4
  408e4a:	6055      	str	r5, [r2, #4]
  408e4c:	6019      	str	r1, [r3, #0]
  408e4e:	f000 ff3f 	bl	409cd0 <__malloc_unlock>
  408e52:	2001      	movs	r0, #1
  408e54:	bdf8      	pop	{r3, r4, r5, r6, r7, pc}
  408e56:	2100      	movs	r1, #0
  408e58:	4630      	mov	r0, r6
  408e5a:	f001 fc39 	bl	40a6d0 <_sbrk_r>
  408e5e:	68ba      	ldr	r2, [r7, #8]
  408e60:	1a83      	subs	r3, r0, r2
  408e62:	2b0f      	cmp	r3, #15
  408e64:	ddde      	ble.n	408e24 <_malloc_trim_r+0x3c>
  408e66:	4c06      	ldr	r4, [pc, #24]	; (408e80 <_malloc_trim_r+0x98>)
  408e68:	4904      	ldr	r1, [pc, #16]	; (408e7c <_malloc_trim_r+0x94>)
  408e6a:	6824      	ldr	r4, [r4, #0]
  408e6c:	f043 0301 	orr.w	r3, r3, #1
  408e70:	1b00      	subs	r0, r0, r4
  408e72:	6053      	str	r3, [r2, #4]
  408e74:	6008      	str	r0, [r1, #0]
  408e76:	e7d5      	b.n	408e24 <_malloc_trim_r+0x3c>
  408e78:	204004d0 	.word	0x204004d0
  408e7c:	2040154c 	.word	0x2040154c
  408e80:	204008dc 	.word	0x204008dc

00408e84 <_free_r>:
  408e84:	2900      	cmp	r1, #0
  408e86:	d045      	beq.n	408f14 <_free_r+0x90>
  408e88:	e92d 41f0 	stmdb	sp!, {r4, r5, r6, r7, r8, lr}
  408e8c:	460d      	mov	r5, r1
  408e8e:	4680      	mov	r8, r0
  408e90:	f000 ff1c 	bl	409ccc <__malloc_lock>
  408e94:	f855 7c04 	ldr.w	r7, [r5, #-4]
  408e98:	496a      	ldr	r1, [pc, #424]	; (409044 <_free_r+0x1c0>)
  408e9a:	f027 0301 	bic.w	r3, r7, #1
  408e9e:	f1a5 0408 	sub.w	r4, r5, #8
  408ea2:	18e2      	adds	r2, r4, r3
  408ea4:	688e      	ldr	r6, [r1, #8]
  408ea6:	6850      	ldr	r0, [r2, #4]
  408ea8:	42b2      	cmp	r2, r6
  408eaa:	f020 0003 	bic.w	r0, r0, #3
  408eae:	d062      	beq.n	408f76 <_free_r+0xf2>
  408eb0:	07fe      	lsls	r6, r7, #31
  408eb2:	6050      	str	r0, [r2, #4]
  408eb4:	d40b      	bmi.n	408ece <_free_r+0x4a>
  408eb6:	f855 7c08 	ldr.w	r7, [r5, #-8]
  408eba:	1be4      	subs	r4, r4, r7
  408ebc:	f101 0e08 	add.w	lr, r1, #8
  408ec0:	68a5      	ldr	r5, [r4, #8]
  408ec2:	4575      	cmp	r5, lr
  408ec4:	443b      	add	r3, r7
  408ec6:	d06f      	beq.n	408fa8 <_free_r+0x124>
  408ec8:	68e7      	ldr	r7, [r4, #12]
  408eca:	60ef      	str	r7, [r5, #12]
  408ecc:	60bd      	str	r5, [r7, #8]
  408ece:	1815      	adds	r5, r2, r0
  408ed0:	686d      	ldr	r5, [r5, #4]
  408ed2:	07ed      	lsls	r5, r5, #31
  408ed4:	d542      	bpl.n	408f5c <_free_r+0xd8>
  408ed6:	f043 0201 	orr.w	r2, r3, #1
  408eda:	6062      	str	r2, [r4, #4]
  408edc:	50e3      	str	r3, [r4, r3]
  408ede:	f5b3 7f00 	cmp.w	r3, #512	; 0x200
  408ee2:	d218      	bcs.n	408f16 <_free_r+0x92>
  408ee4:	08db      	lsrs	r3, r3, #3
  408ee6:	1c5a      	adds	r2, r3, #1
  408ee8:	684d      	ldr	r5, [r1, #4]
  408eea:	f851 7032 	ldr.w	r7, [r1, r2, lsl #3]
  408eee:	60a7      	str	r7, [r4, #8]
  408ef0:	2001      	movs	r0, #1
  408ef2:	109b      	asrs	r3, r3, #2
  408ef4:	fa00 f303 	lsl.w	r3, r0, r3
  408ef8:	eb01 00c2 	add.w	r0, r1, r2, lsl #3
  408efc:	431d      	orrs	r5, r3
  408efe:	3808      	subs	r0, #8
  408f00:	60e0      	str	r0, [r4, #12]
  408f02:	604d      	str	r5, [r1, #4]
  408f04:	f841 4032 	str.w	r4, [r1, r2, lsl #3]
  408f08:	60fc      	str	r4, [r7, #12]
  408f0a:	4640      	mov	r0, r8
  408f0c:	e8bd 41f0 	ldmia.w	sp!, {r4, r5, r6, r7, r8, lr}
  408f10:	f000 bede 	b.w	409cd0 <__malloc_unlock>
  408f14:	4770      	bx	lr
  408f16:	0a5a      	lsrs	r2, r3, #9
  408f18:	2a04      	cmp	r2, #4
  408f1a:	d853      	bhi.n	408fc4 <_free_r+0x140>
  408f1c:	099a      	lsrs	r2, r3, #6
  408f1e:	f102 0739 	add.w	r7, r2, #57	; 0x39
  408f22:	007f      	lsls	r7, r7, #1
  408f24:	f102 0538 	add.w	r5, r2, #56	; 0x38
  408f28:	eb01 0087 	add.w	r0, r1, r7, lsl #2
  408f2c:	f851 2027 	ldr.w	r2, [r1, r7, lsl #2]
  408f30:	4944      	ldr	r1, [pc, #272]	; (409044 <_free_r+0x1c0>)
  408f32:	3808      	subs	r0, #8
  408f34:	4290      	cmp	r0, r2
  408f36:	d04d      	beq.n	408fd4 <_free_r+0x150>
  408f38:	6851      	ldr	r1, [r2, #4]
  408f3a:	f021 0103 	bic.w	r1, r1, #3
  408f3e:	428b      	cmp	r3, r1
  408f40:	d202      	bcs.n	408f48 <_free_r+0xc4>
  408f42:	6892      	ldr	r2, [r2, #8]
  408f44:	4290      	cmp	r0, r2
  408f46:	d1f7      	bne.n	408f38 <_free_r+0xb4>
  408f48:	68d0      	ldr	r0, [r2, #12]
  408f4a:	60e0      	str	r0, [r4, #12]
  408f4c:	60a2      	str	r2, [r4, #8]
  408f4e:	6084      	str	r4, [r0, #8]
  408f50:	60d4      	str	r4, [r2, #12]
  408f52:	4640      	mov	r0, r8
  408f54:	e8bd 41f0 	ldmia.w	sp!, {r4, r5, r6, r7, r8, lr}
  408f58:	f000 beba 	b.w	409cd0 <__malloc_unlock>
  408f5c:	6895      	ldr	r5, [r2, #8]
  408f5e:	4f3a      	ldr	r7, [pc, #232]	; (409048 <_free_r+0x1c4>)
  408f60:	42bd      	cmp	r5, r7
  408f62:	4403      	add	r3, r0
  408f64:	d03f      	beq.n	408fe6 <_free_r+0x162>
  408f66:	68d0      	ldr	r0, [r2, #12]
  408f68:	60e8      	str	r0, [r5, #12]
  408f6a:	f043 0201 	orr.w	r2, r3, #1
  408f6e:	6085      	str	r5, [r0, #8]
  408f70:	6062      	str	r2, [r4, #4]
  408f72:	50e3      	str	r3, [r4, r3]
  408f74:	e7b3      	b.n	408ede <_free_r+0x5a>
  408f76:	07ff      	lsls	r7, r7, #31
  408f78:	4403      	add	r3, r0
  408f7a:	d407      	bmi.n	408f8c <_free_r+0x108>
  408f7c:	f855 2c08 	ldr.w	r2, [r5, #-8]
  408f80:	1aa4      	subs	r4, r4, r2
  408f82:	4413      	add	r3, r2
  408f84:	68a0      	ldr	r0, [r4, #8]
  408f86:	68e2      	ldr	r2, [r4, #12]
  408f88:	60c2      	str	r2, [r0, #12]
  408f8a:	6090      	str	r0, [r2, #8]
  408f8c:	4a2f      	ldr	r2, [pc, #188]	; (40904c <_free_r+0x1c8>)
  408f8e:	6812      	ldr	r2, [r2, #0]
  408f90:	f043 0001 	orr.w	r0, r3, #1
  408f94:	4293      	cmp	r3, r2
  408f96:	6060      	str	r0, [r4, #4]
  408f98:	608c      	str	r4, [r1, #8]
  408f9a:	d3b6      	bcc.n	408f0a <_free_r+0x86>
  408f9c:	4b2c      	ldr	r3, [pc, #176]	; (409050 <_free_r+0x1cc>)
  408f9e:	4640      	mov	r0, r8
  408fa0:	6819      	ldr	r1, [r3, #0]
  408fa2:	f7ff ff21 	bl	408de8 <_malloc_trim_r>
  408fa6:	e7b0      	b.n	408f0a <_free_r+0x86>
  408fa8:	1811      	adds	r1, r2, r0
  408faa:	6849      	ldr	r1, [r1, #4]
  408fac:	07c9      	lsls	r1, r1, #31
  408fae:	d444      	bmi.n	40903a <_free_r+0x1b6>
  408fb0:	6891      	ldr	r1, [r2, #8]
  408fb2:	68d2      	ldr	r2, [r2, #12]
  408fb4:	60ca      	str	r2, [r1, #12]
  408fb6:	4403      	add	r3, r0
  408fb8:	f043 0001 	orr.w	r0, r3, #1
  408fbc:	6091      	str	r1, [r2, #8]
  408fbe:	6060      	str	r0, [r4, #4]
  408fc0:	50e3      	str	r3, [r4, r3]
  408fc2:	e7a2      	b.n	408f0a <_free_r+0x86>
  408fc4:	2a14      	cmp	r2, #20
  408fc6:	d817      	bhi.n	408ff8 <_free_r+0x174>
  408fc8:	f102 075c 	add.w	r7, r2, #92	; 0x5c
  408fcc:	007f      	lsls	r7, r7, #1
  408fce:	f102 055b 	add.w	r5, r2, #91	; 0x5b
  408fd2:	e7a9      	b.n	408f28 <_free_r+0xa4>
  408fd4:	10aa      	asrs	r2, r5, #2
  408fd6:	684b      	ldr	r3, [r1, #4]
  408fd8:	2501      	movs	r5, #1
  408fda:	fa05 f202 	lsl.w	r2, r5, r2
  408fde:	4313      	orrs	r3, r2
  408fe0:	604b      	str	r3, [r1, #4]
  408fe2:	4602      	mov	r2, r0
  408fe4:	e7b1      	b.n	408f4a <_free_r+0xc6>
  408fe6:	f043 0201 	orr.w	r2, r3, #1
  408fea:	614c      	str	r4, [r1, #20]
  408fec:	610c      	str	r4, [r1, #16]
  408fee:	60e5      	str	r5, [r4, #12]
  408ff0:	60a5      	str	r5, [r4, #8]
  408ff2:	6062      	str	r2, [r4, #4]
  408ff4:	50e3      	str	r3, [r4, r3]
  408ff6:	e788      	b.n	408f0a <_free_r+0x86>
  408ff8:	2a54      	cmp	r2, #84	; 0x54
  408ffa:	d806      	bhi.n	40900a <_free_r+0x186>
  408ffc:	0b1a      	lsrs	r2, r3, #12
  408ffe:	f102 076f 	add.w	r7, r2, #111	; 0x6f
  409002:	007f      	lsls	r7, r7, #1
  409004:	f102 056e 	add.w	r5, r2, #110	; 0x6e
  409008:	e78e      	b.n	408f28 <_free_r+0xa4>
  40900a:	f5b2 7faa 	cmp.w	r2, #340	; 0x154
  40900e:	d806      	bhi.n	40901e <_free_r+0x19a>
  409010:	0bda      	lsrs	r2, r3, #15
  409012:	f102 0778 	add.w	r7, r2, #120	; 0x78
  409016:	007f      	lsls	r7, r7, #1
  409018:	f102 0577 	add.w	r5, r2, #119	; 0x77
  40901c:	e784      	b.n	408f28 <_free_r+0xa4>
  40901e:	f240 5054 	movw	r0, #1364	; 0x554
  409022:	4282      	cmp	r2, r0
  409024:	d806      	bhi.n	409034 <_free_r+0x1b0>
  409026:	0c9a      	lsrs	r2, r3, #18
  409028:	f102 077d 	add.w	r7, r2, #125	; 0x7d
  40902c:	007f      	lsls	r7, r7, #1
  40902e:	f102 057c 	add.w	r5, r2, #124	; 0x7c
  409032:	e779      	b.n	408f28 <_free_r+0xa4>
  409034:	27fe      	movs	r7, #254	; 0xfe
  409036:	257e      	movs	r5, #126	; 0x7e
  409038:	e776      	b.n	408f28 <_free_r+0xa4>
  40903a:	f043 0201 	orr.w	r2, r3, #1
  40903e:	6062      	str	r2, [r4, #4]
  409040:	50e3      	str	r3, [r4, r3]
  409042:	e762      	b.n	408f0a <_free_r+0x86>
  409044:	204004d0 	.word	0x204004d0
  409048:	204004d8 	.word	0x204004d8
  40904c:	204008d8 	.word	0x204008d8
  409050:	20401548 	.word	0x20401548

00409054 <__sfvwrite_r>:
  409054:	6893      	ldr	r3, [r2, #8]
  409056:	2b00      	cmp	r3, #0
  409058:	d076      	beq.n	409148 <__sfvwrite_r+0xf4>
  40905a:	e92d 4ff0 	stmdb	sp!, {r4, r5, r6, r7, r8, r9, sl, fp, lr}
  40905e:	898b      	ldrh	r3, [r1, #12]
  409060:	b085      	sub	sp, #20
  409062:	460c      	mov	r4, r1
  409064:	0719      	lsls	r1, r3, #28
  409066:	9001      	str	r0, [sp, #4]
  409068:	4616      	mov	r6, r2
  40906a:	d529      	bpl.n	4090c0 <__sfvwrite_r+0x6c>
  40906c:	6922      	ldr	r2, [r4, #16]
  40906e:	b33a      	cbz	r2, 4090c0 <__sfvwrite_r+0x6c>
  409070:	f003 0802 	and.w	r8, r3, #2
  409074:	fa1f f088 	uxth.w	r0, r8
  409078:	6835      	ldr	r5, [r6, #0]
  40907a:	2800      	cmp	r0, #0
  40907c:	d02f      	beq.n	4090de <__sfvwrite_r+0x8a>
  40907e:	f04f 0900 	mov.w	r9, #0
  409082:	4fb4      	ldr	r7, [pc, #720]	; (409354 <__sfvwrite_r+0x300>)
  409084:	46c8      	mov	r8, r9
  409086:	46b2      	mov	sl, r6
  409088:	45b8      	cmp	r8, r7
  40908a:	4643      	mov	r3, r8
  40908c:	464a      	mov	r2, r9
  40908e:	bf28      	it	cs
  409090:	463b      	movcs	r3, r7
  409092:	9801      	ldr	r0, [sp, #4]
  409094:	f1b8 0f00 	cmp.w	r8, #0
  409098:	d050      	beq.n	40913c <__sfvwrite_r+0xe8>
  40909a:	69e1      	ldr	r1, [r4, #28]
  40909c:	6a66      	ldr	r6, [r4, #36]	; 0x24
  40909e:	47b0      	blx	r6
  4090a0:	2800      	cmp	r0, #0
  4090a2:	dd71      	ble.n	409188 <__sfvwrite_r+0x134>
  4090a4:	f8da 3008 	ldr.w	r3, [sl, #8]
  4090a8:	1a1b      	subs	r3, r3, r0
  4090aa:	4481      	add	r9, r0
  4090ac:	ebc0 0808 	rsb	r8, r0, r8
  4090b0:	f8ca 3008 	str.w	r3, [sl, #8]
  4090b4:	2b00      	cmp	r3, #0
  4090b6:	d1e7      	bne.n	409088 <__sfvwrite_r+0x34>
  4090b8:	2000      	movs	r0, #0
  4090ba:	b005      	add	sp, #20
  4090bc:	e8bd 8ff0 	ldmia.w	sp!, {r4, r5, r6, r7, r8, r9, sl, fp, pc}
  4090c0:	4621      	mov	r1, r4
  4090c2:	9801      	ldr	r0, [sp, #4]
  4090c4:	f7fe fca8 	bl	407a18 <__swsetup_r>
  4090c8:	2800      	cmp	r0, #0
  4090ca:	f040 813a 	bne.w	409342 <__sfvwrite_r+0x2ee>
  4090ce:	89a3      	ldrh	r3, [r4, #12]
  4090d0:	6835      	ldr	r5, [r6, #0]
  4090d2:	f003 0802 	and.w	r8, r3, #2
  4090d6:	fa1f f088 	uxth.w	r0, r8
  4090da:	2800      	cmp	r0, #0
  4090dc:	d1cf      	bne.n	40907e <__sfvwrite_r+0x2a>
  4090de:	f013 0901 	ands.w	r9, r3, #1
  4090e2:	d15b      	bne.n	40919c <__sfvwrite_r+0x148>
  4090e4:	464f      	mov	r7, r9
  4090e6:	9602      	str	r6, [sp, #8]
  4090e8:	b31f      	cbz	r7, 409132 <__sfvwrite_r+0xde>
  4090ea:	059a      	lsls	r2, r3, #22
  4090ec:	f8d4 8008 	ldr.w	r8, [r4, #8]
  4090f0:	d52c      	bpl.n	40914c <__sfvwrite_r+0xf8>
  4090f2:	4547      	cmp	r7, r8
  4090f4:	46c2      	mov	sl, r8
  4090f6:	f0c0 80a4 	bcc.w	409242 <__sfvwrite_r+0x1ee>
  4090fa:	f413 6f90 	tst.w	r3, #1152	; 0x480
  4090fe:	f040 80b1 	bne.w	409264 <__sfvwrite_r+0x210>
  409102:	6820      	ldr	r0, [r4, #0]
  409104:	4652      	mov	r2, sl
  409106:	4649      	mov	r1, r9
  409108:	f000 fd7c 	bl	409c04 <memmove>
  40910c:	68a0      	ldr	r0, [r4, #8]
  40910e:	6823      	ldr	r3, [r4, #0]
  409110:	ebc8 0000 	rsb	r0, r8, r0
  409114:	4453      	add	r3, sl
  409116:	60a0      	str	r0, [r4, #8]
  409118:	6023      	str	r3, [r4, #0]
  40911a:	4638      	mov	r0, r7
  40911c:	9a02      	ldr	r2, [sp, #8]
  40911e:	6893      	ldr	r3, [r2, #8]
  409120:	1a1b      	subs	r3, r3, r0
  409122:	4481      	add	r9, r0
  409124:	1a3f      	subs	r7, r7, r0
  409126:	6093      	str	r3, [r2, #8]
  409128:	2b00      	cmp	r3, #0
  40912a:	d0c5      	beq.n	4090b8 <__sfvwrite_r+0x64>
  40912c:	89a3      	ldrh	r3, [r4, #12]
  40912e:	2f00      	cmp	r7, #0
  409130:	d1db      	bne.n	4090ea <__sfvwrite_r+0x96>
  409132:	f8d5 9000 	ldr.w	r9, [r5]
  409136:	686f      	ldr	r7, [r5, #4]
  409138:	3508      	adds	r5, #8
  40913a:	e7d5      	b.n	4090e8 <__sfvwrite_r+0x94>
  40913c:	f8d5 9000 	ldr.w	r9, [r5]
  409140:	f8d5 8004 	ldr.w	r8, [r5, #4]
  409144:	3508      	adds	r5, #8
  409146:	e79f      	b.n	409088 <__sfvwrite_r+0x34>
  409148:	2000      	movs	r0, #0
  40914a:	4770      	bx	lr
  40914c:	6820      	ldr	r0, [r4, #0]
  40914e:	6923      	ldr	r3, [r4, #16]
  409150:	4298      	cmp	r0, r3
  409152:	d803      	bhi.n	40915c <__sfvwrite_r+0x108>
  409154:	6961      	ldr	r1, [r4, #20]
  409156:	428f      	cmp	r7, r1
  409158:	f080 80b7 	bcs.w	4092ca <__sfvwrite_r+0x276>
  40915c:	45b8      	cmp	r8, r7
  40915e:	bf28      	it	cs
  409160:	46b8      	movcs	r8, r7
  409162:	4642      	mov	r2, r8
  409164:	4649      	mov	r1, r9
  409166:	f000 fd4d 	bl	409c04 <memmove>
  40916a:	68a3      	ldr	r3, [r4, #8]
  40916c:	6822      	ldr	r2, [r4, #0]
  40916e:	ebc8 0303 	rsb	r3, r8, r3
  409172:	4442      	add	r2, r8
  409174:	60a3      	str	r3, [r4, #8]
  409176:	6022      	str	r2, [r4, #0]
  409178:	2b00      	cmp	r3, #0
  40917a:	d149      	bne.n	409210 <__sfvwrite_r+0x1bc>
  40917c:	4621      	mov	r1, r4
  40917e:	9801      	ldr	r0, [sp, #4]
  409180:	f7ff fd22 	bl	408bc8 <_fflush_r>
  409184:	2800      	cmp	r0, #0
  409186:	d043      	beq.n	409210 <__sfvwrite_r+0x1bc>
  409188:	f9b4 300c 	ldrsh.w	r3, [r4, #12]
  40918c:	f043 0340 	orr.w	r3, r3, #64	; 0x40
  409190:	f04f 30ff 	mov.w	r0, #4294967295
  409194:	81a3      	strh	r3, [r4, #12]
  409196:	b005      	add	sp, #20
  409198:	e8bd 8ff0 	ldmia.w	sp!, {r4, r5, r6, r7, r8, r9, sl, fp, pc}
  40919c:	4680      	mov	r8, r0
  40919e:	9002      	str	r0, [sp, #8]
  4091a0:	4682      	mov	sl, r0
  4091a2:	4681      	mov	r9, r0
  4091a4:	f1b9 0f00 	cmp.w	r9, #0
  4091a8:	d02a      	beq.n	409200 <__sfvwrite_r+0x1ac>
  4091aa:	9b02      	ldr	r3, [sp, #8]
  4091ac:	2b00      	cmp	r3, #0
  4091ae:	d04c      	beq.n	40924a <__sfvwrite_r+0x1f6>
  4091b0:	6820      	ldr	r0, [r4, #0]
  4091b2:	6923      	ldr	r3, [r4, #16]
  4091b4:	6962      	ldr	r2, [r4, #20]
  4091b6:	45c8      	cmp	r8, r9
  4091b8:	46c3      	mov	fp, r8
  4091ba:	bf28      	it	cs
  4091bc:	46cb      	movcs	fp, r9
  4091be:	4298      	cmp	r0, r3
  4091c0:	465f      	mov	r7, fp
  4091c2:	d904      	bls.n	4091ce <__sfvwrite_r+0x17a>
  4091c4:	68a3      	ldr	r3, [r4, #8]
  4091c6:	4413      	add	r3, r2
  4091c8:	459b      	cmp	fp, r3
  4091ca:	f300 8090 	bgt.w	4092ee <__sfvwrite_r+0x29a>
  4091ce:	4593      	cmp	fp, r2
  4091d0:	db20      	blt.n	409214 <__sfvwrite_r+0x1c0>
  4091d2:	4613      	mov	r3, r2
  4091d4:	6a67      	ldr	r7, [r4, #36]	; 0x24
  4091d6:	69e1      	ldr	r1, [r4, #28]
  4091d8:	9801      	ldr	r0, [sp, #4]
  4091da:	4652      	mov	r2, sl
  4091dc:	47b8      	blx	r7
  4091de:	1e07      	subs	r7, r0, #0
  4091e0:	ddd2      	ble.n	409188 <__sfvwrite_r+0x134>
  4091e2:	ebb8 0807 	subs.w	r8, r8, r7
  4091e6:	d023      	beq.n	409230 <__sfvwrite_r+0x1dc>
  4091e8:	68b3      	ldr	r3, [r6, #8]
  4091ea:	1bdb      	subs	r3, r3, r7
  4091ec:	44ba      	add	sl, r7
  4091ee:	ebc7 0909 	rsb	r9, r7, r9
  4091f2:	60b3      	str	r3, [r6, #8]
  4091f4:	2b00      	cmp	r3, #0
  4091f6:	f43f af5f 	beq.w	4090b8 <__sfvwrite_r+0x64>
  4091fa:	f1b9 0f00 	cmp.w	r9, #0
  4091fe:	d1d4      	bne.n	4091aa <__sfvwrite_r+0x156>
  409200:	2300      	movs	r3, #0
  409202:	f8d5 a000 	ldr.w	sl, [r5]
  409206:	f8d5 9004 	ldr.w	r9, [r5, #4]
  40920a:	9302      	str	r3, [sp, #8]
  40920c:	3508      	adds	r5, #8
  40920e:	e7c9      	b.n	4091a4 <__sfvwrite_r+0x150>
  409210:	4640      	mov	r0, r8
  409212:	e783      	b.n	40911c <__sfvwrite_r+0xc8>
  409214:	465a      	mov	r2, fp
  409216:	4651      	mov	r1, sl
  409218:	f000 fcf4 	bl	409c04 <memmove>
  40921c:	68a2      	ldr	r2, [r4, #8]
  40921e:	6823      	ldr	r3, [r4, #0]
  409220:	ebcb 0202 	rsb	r2, fp, r2
  409224:	445b      	add	r3, fp
  409226:	ebb8 0807 	subs.w	r8, r8, r7
  40922a:	60a2      	str	r2, [r4, #8]
  40922c:	6023      	str	r3, [r4, #0]
  40922e:	d1db      	bne.n	4091e8 <__sfvwrite_r+0x194>
  409230:	4621      	mov	r1, r4
  409232:	9801      	ldr	r0, [sp, #4]
  409234:	f7ff fcc8 	bl	408bc8 <_fflush_r>
  409238:	2800      	cmp	r0, #0
  40923a:	d1a5      	bne.n	409188 <__sfvwrite_r+0x134>
  40923c:	f8cd 8008 	str.w	r8, [sp, #8]
  409240:	e7d2      	b.n	4091e8 <__sfvwrite_r+0x194>
  409242:	6820      	ldr	r0, [r4, #0]
  409244:	46b8      	mov	r8, r7
  409246:	46ba      	mov	sl, r7
  409248:	e75c      	b.n	409104 <__sfvwrite_r+0xb0>
  40924a:	464a      	mov	r2, r9
  40924c:	210a      	movs	r1, #10
  40924e:	4650      	mov	r0, sl
  409250:	f000 fbee 	bl	409a30 <memchr>
  409254:	2800      	cmp	r0, #0
  409256:	d06f      	beq.n	409338 <__sfvwrite_r+0x2e4>
  409258:	3001      	adds	r0, #1
  40925a:	2301      	movs	r3, #1
  40925c:	ebca 0800 	rsb	r8, sl, r0
  409260:	9302      	str	r3, [sp, #8]
  409262:	e7a5      	b.n	4091b0 <__sfvwrite_r+0x15c>
  409264:	6962      	ldr	r2, [r4, #20]
  409266:	6820      	ldr	r0, [r4, #0]
  409268:	6921      	ldr	r1, [r4, #16]
  40926a:	eb02 0842 	add.w	r8, r2, r2, lsl #1
  40926e:	ebc1 0a00 	rsb	sl, r1, r0
  409272:	eb08 78d8 	add.w	r8, r8, r8, lsr #31
  409276:	f10a 0001 	add.w	r0, sl, #1
  40927a:	ea4f 0868 	mov.w	r8, r8, asr #1
  40927e:	4438      	add	r0, r7
  409280:	4540      	cmp	r0, r8
  409282:	4642      	mov	r2, r8
  409284:	bf84      	itt	hi
  409286:	4680      	movhi	r8, r0
  409288:	4642      	movhi	r2, r8
  40928a:	055b      	lsls	r3, r3, #21
  40928c:	d542      	bpl.n	409314 <__sfvwrite_r+0x2c0>
  40928e:	4611      	mov	r1, r2
  409290:	9801      	ldr	r0, [sp, #4]
  409292:	f000 f915 	bl	4094c0 <_malloc_r>
  409296:	4683      	mov	fp, r0
  409298:	2800      	cmp	r0, #0
  40929a:	d055      	beq.n	409348 <__sfvwrite_r+0x2f4>
  40929c:	4652      	mov	r2, sl
  40929e:	6921      	ldr	r1, [r4, #16]
  4092a0:	f000 fc16 	bl	409ad0 <memcpy>
  4092a4:	89a3      	ldrh	r3, [r4, #12]
  4092a6:	f423 6390 	bic.w	r3, r3, #1152	; 0x480
  4092aa:	f043 0380 	orr.w	r3, r3, #128	; 0x80
  4092ae:	81a3      	strh	r3, [r4, #12]
  4092b0:	ebca 0308 	rsb	r3, sl, r8
  4092b4:	eb0b 000a 	add.w	r0, fp, sl
  4092b8:	f8c4 8014 	str.w	r8, [r4, #20]
  4092bc:	f8c4 b010 	str.w	fp, [r4, #16]
  4092c0:	6020      	str	r0, [r4, #0]
  4092c2:	60a3      	str	r3, [r4, #8]
  4092c4:	46b8      	mov	r8, r7
  4092c6:	46ba      	mov	sl, r7
  4092c8:	e71c      	b.n	409104 <__sfvwrite_r+0xb0>
  4092ca:	f06f 4300 	mvn.w	r3, #2147483648	; 0x80000000
  4092ce:	42bb      	cmp	r3, r7
  4092d0:	bf28      	it	cs
  4092d2:	463b      	movcs	r3, r7
  4092d4:	464a      	mov	r2, r9
  4092d6:	fb93 f3f1 	sdiv	r3, r3, r1
  4092da:	9801      	ldr	r0, [sp, #4]
  4092dc:	6a66      	ldr	r6, [r4, #36]	; 0x24
  4092de:	fb01 f303 	mul.w	r3, r1, r3
  4092e2:	69e1      	ldr	r1, [r4, #28]
  4092e4:	47b0      	blx	r6
  4092e6:	2800      	cmp	r0, #0
  4092e8:	f73f af18 	bgt.w	40911c <__sfvwrite_r+0xc8>
  4092ec:	e74c      	b.n	409188 <__sfvwrite_r+0x134>
  4092ee:	461a      	mov	r2, r3
  4092f0:	4651      	mov	r1, sl
  4092f2:	9303      	str	r3, [sp, #12]
  4092f4:	f000 fc86 	bl	409c04 <memmove>
  4092f8:	6822      	ldr	r2, [r4, #0]
  4092fa:	9b03      	ldr	r3, [sp, #12]
  4092fc:	9801      	ldr	r0, [sp, #4]
  4092fe:	441a      	add	r2, r3
  409300:	6022      	str	r2, [r4, #0]
  409302:	4621      	mov	r1, r4
  409304:	f7ff fc60 	bl	408bc8 <_fflush_r>
  409308:	9b03      	ldr	r3, [sp, #12]
  40930a:	2800      	cmp	r0, #0
  40930c:	f47f af3c 	bne.w	409188 <__sfvwrite_r+0x134>
  409310:	461f      	mov	r7, r3
  409312:	e766      	b.n	4091e2 <__sfvwrite_r+0x18e>
  409314:	9801      	ldr	r0, [sp, #4]
  409316:	f000 ffeb 	bl	40a2f0 <_realloc_r>
  40931a:	4683      	mov	fp, r0
  40931c:	2800      	cmp	r0, #0
  40931e:	d1c7      	bne.n	4092b0 <__sfvwrite_r+0x25c>
  409320:	9d01      	ldr	r5, [sp, #4]
  409322:	6921      	ldr	r1, [r4, #16]
  409324:	4628      	mov	r0, r5
  409326:	f7ff fdad 	bl	408e84 <_free_r>
  40932a:	f9b4 300c 	ldrsh.w	r3, [r4, #12]
  40932e:	220c      	movs	r2, #12
  409330:	f023 0380 	bic.w	r3, r3, #128	; 0x80
  409334:	602a      	str	r2, [r5, #0]
  409336:	e729      	b.n	40918c <__sfvwrite_r+0x138>
  409338:	2301      	movs	r3, #1
  40933a:	f109 0801 	add.w	r8, r9, #1
  40933e:	9302      	str	r3, [sp, #8]
  409340:	e736      	b.n	4091b0 <__sfvwrite_r+0x15c>
  409342:	f04f 30ff 	mov.w	r0, #4294967295
  409346:	e6b8      	b.n	4090ba <__sfvwrite_r+0x66>
  409348:	9a01      	ldr	r2, [sp, #4]
  40934a:	230c      	movs	r3, #12
  40934c:	6013      	str	r3, [r2, #0]
  40934e:	f9b4 300c 	ldrsh.w	r3, [r4, #12]
  409352:	e71b      	b.n	40918c <__sfvwrite_r+0x138>
  409354:	7ffffc00 	.word	0x7ffffc00

00409358 <_fwalk_reent>:
  409358:	e92d 43f8 	stmdb	sp!, {r3, r4, r5, r6, r7, r8, r9, lr}
  40935c:	f510 7738 	adds.w	r7, r0, #736	; 0x2e0
  409360:	d01f      	beq.n	4093a2 <_fwalk_reent+0x4a>
  409362:	4688      	mov	r8, r1
  409364:	4606      	mov	r6, r0
  409366:	f04f 0900 	mov.w	r9, #0
  40936a:	687d      	ldr	r5, [r7, #4]
  40936c:	68bc      	ldr	r4, [r7, #8]
  40936e:	3d01      	subs	r5, #1
  409370:	d411      	bmi.n	409396 <_fwalk_reent+0x3e>
  409372:	89a3      	ldrh	r3, [r4, #12]
  409374:	2b01      	cmp	r3, #1
  409376:	f105 35ff 	add.w	r5, r5, #4294967295
  40937a:	d908      	bls.n	40938e <_fwalk_reent+0x36>
  40937c:	f9b4 300e 	ldrsh.w	r3, [r4, #14]
  409380:	3301      	adds	r3, #1
  409382:	4621      	mov	r1, r4
  409384:	4630      	mov	r0, r6
  409386:	d002      	beq.n	40938e <_fwalk_reent+0x36>
  409388:	47c0      	blx	r8
  40938a:	ea49 0900 	orr.w	r9, r9, r0
  40938e:	1c6b      	adds	r3, r5, #1
  409390:	f104 0468 	add.w	r4, r4, #104	; 0x68
  409394:	d1ed      	bne.n	409372 <_fwalk_reent+0x1a>
  409396:	683f      	ldr	r7, [r7, #0]
  409398:	2f00      	cmp	r7, #0
  40939a:	d1e6      	bne.n	40936a <_fwalk_reent+0x12>
  40939c:	4648      	mov	r0, r9
  40939e:	e8bd 83f8 	ldmia.w	sp!, {r3, r4, r5, r6, r7, r8, r9, pc}
  4093a2:	46b9      	mov	r9, r7
  4093a4:	4648      	mov	r0, r9
  4093a6:	e8bd 83f8 	ldmia.w	sp!, {r3, r4, r5, r6, r7, r8, r9, pc}
  4093aa:	bf00      	nop

004093ac <__locale_charset>:
  4093ac:	4800      	ldr	r0, [pc, #0]	; (4093b0 <__locale_charset+0x4>)
  4093ae:	4770      	bx	lr
  4093b0:	204004ac 	.word	0x204004ac

004093b4 <__locale_mb_cur_max>:
  4093b4:	4b01      	ldr	r3, [pc, #4]	; (4093bc <__locale_mb_cur_max+0x8>)
  4093b6:	6818      	ldr	r0, [r3, #0]
  4093b8:	4770      	bx	lr
  4093ba:	bf00      	nop
  4093bc:	204004cc 	.word	0x204004cc

004093c0 <_localeconv_r>:
  4093c0:	4800      	ldr	r0, [pc, #0]	; (4093c4 <_localeconv_r+0x4>)
  4093c2:	4770      	bx	lr
  4093c4:	20400474 	.word	0x20400474

004093c8 <__swhatbuf_r>:
  4093c8:	b570      	push	{r4, r5, r6, lr}
  4093ca:	460d      	mov	r5, r1
  4093cc:	f9b1 100e 	ldrsh.w	r1, [r1, #14]
  4093d0:	2900      	cmp	r1, #0
  4093d2:	b090      	sub	sp, #64	; 0x40
  4093d4:	4614      	mov	r4, r2
  4093d6:	461e      	mov	r6, r3
  4093d8:	db14      	blt.n	409404 <__swhatbuf_r+0x3c>
  4093da:	aa01      	add	r2, sp, #4
  4093dc:	f001 fbc8 	bl	40ab70 <_fstat_r>
  4093e0:	2800      	cmp	r0, #0
  4093e2:	db0f      	blt.n	409404 <__swhatbuf_r+0x3c>
  4093e4:	9a02      	ldr	r2, [sp, #8]
  4093e6:	f402 4270 	and.w	r2, r2, #61440	; 0xf000
  4093ea:	f5a2 5200 	sub.w	r2, r2, #8192	; 0x2000
  4093ee:	fab2 f282 	clz	r2, r2
  4093f2:	0952      	lsrs	r2, r2, #5
  4093f4:	f44f 6380 	mov.w	r3, #1024	; 0x400
  4093f8:	f44f 6000 	mov.w	r0, #2048	; 0x800
  4093fc:	6032      	str	r2, [r6, #0]
  4093fe:	6023      	str	r3, [r4, #0]
  409400:	b010      	add	sp, #64	; 0x40
  409402:	bd70      	pop	{r4, r5, r6, pc}
  409404:	89a8      	ldrh	r0, [r5, #12]
  409406:	f000 0080 	and.w	r0, r0, #128	; 0x80
  40940a:	b282      	uxth	r2, r0
  40940c:	2000      	movs	r0, #0
  40940e:	6030      	str	r0, [r6, #0]
  409410:	b11a      	cbz	r2, 40941a <__swhatbuf_r+0x52>
  409412:	2340      	movs	r3, #64	; 0x40
  409414:	6023      	str	r3, [r4, #0]
  409416:	b010      	add	sp, #64	; 0x40
  409418:	bd70      	pop	{r4, r5, r6, pc}
  40941a:	f44f 6380 	mov.w	r3, #1024	; 0x400
  40941e:	4610      	mov	r0, r2
  409420:	6023      	str	r3, [r4, #0]
  409422:	b010      	add	sp, #64	; 0x40
  409424:	bd70      	pop	{r4, r5, r6, pc}
  409426:	bf00      	nop

00409428 <__smakebuf_r>:
  409428:	898a      	ldrh	r2, [r1, #12]
  40942a:	0792      	lsls	r2, r2, #30
  40942c:	460b      	mov	r3, r1
  40942e:	d506      	bpl.n	40943e <__smakebuf_r+0x16>
  409430:	f101 0243 	add.w	r2, r1, #67	; 0x43
  409434:	2101      	movs	r1, #1
  409436:	601a      	str	r2, [r3, #0]
  409438:	611a      	str	r2, [r3, #16]
  40943a:	6159      	str	r1, [r3, #20]
  40943c:	4770      	bx	lr
  40943e:	b5f0      	push	{r4, r5, r6, r7, lr}
  409440:	b083      	sub	sp, #12
  409442:	ab01      	add	r3, sp, #4
  409444:	466a      	mov	r2, sp
  409446:	460c      	mov	r4, r1
  409448:	4605      	mov	r5, r0
  40944a:	f7ff ffbd 	bl	4093c8 <__swhatbuf_r>
  40944e:	9900      	ldr	r1, [sp, #0]
  409450:	4606      	mov	r6, r0
  409452:	4628      	mov	r0, r5
  409454:	f000 f834 	bl	4094c0 <_malloc_r>
  409458:	f9b4 300c 	ldrsh.w	r3, [r4, #12]
  40945c:	b1d0      	cbz	r0, 409494 <__smakebuf_r+0x6c>
  40945e:	9a01      	ldr	r2, [sp, #4]
  409460:	4f12      	ldr	r7, [pc, #72]	; (4094ac <__smakebuf_r+0x84>)
  409462:	9900      	ldr	r1, [sp, #0]
  409464:	63ef      	str	r7, [r5, #60]	; 0x3c
  409466:	f043 0380 	orr.w	r3, r3, #128	; 0x80
  40946a:	81a3      	strh	r3, [r4, #12]
  40946c:	6020      	str	r0, [r4, #0]
  40946e:	6120      	str	r0, [r4, #16]
  409470:	6161      	str	r1, [r4, #20]
  409472:	b91a      	cbnz	r2, 40947c <__smakebuf_r+0x54>
  409474:	4333      	orrs	r3, r6
  409476:	81a3      	strh	r3, [r4, #12]
  409478:	b003      	add	sp, #12
  40947a:	bdf0      	pop	{r4, r5, r6, r7, pc}
  40947c:	4628      	mov	r0, r5
  40947e:	f9b4 100e 	ldrsh.w	r1, [r4, #14]
  409482:	f001 fb89 	bl	40ab98 <_isatty_r>
  409486:	f9b4 300c 	ldrsh.w	r3, [r4, #12]
  40948a:	2800      	cmp	r0, #0
  40948c:	d0f2      	beq.n	409474 <__smakebuf_r+0x4c>
  40948e:	f043 0301 	orr.w	r3, r3, #1
  409492:	e7ef      	b.n	409474 <__smakebuf_r+0x4c>
  409494:	059a      	lsls	r2, r3, #22
  409496:	d4ef      	bmi.n	409478 <__smakebuf_r+0x50>
  409498:	f104 0243 	add.w	r2, r4, #67	; 0x43
  40949c:	f043 0302 	orr.w	r3, r3, #2
  4094a0:	2101      	movs	r1, #1
  4094a2:	81a3      	strh	r3, [r4, #12]
  4094a4:	6022      	str	r2, [r4, #0]
  4094a6:	6122      	str	r2, [r4, #16]
  4094a8:	6161      	str	r1, [r4, #20]
  4094aa:	e7e5      	b.n	409478 <__smakebuf_r+0x50>
  4094ac:	00408bf5 	.word	0x00408bf5

004094b0 <malloc>:
  4094b0:	4b02      	ldr	r3, [pc, #8]	; (4094bc <malloc+0xc>)
  4094b2:	4601      	mov	r1, r0
  4094b4:	6818      	ldr	r0, [r3, #0]
  4094b6:	f000 b803 	b.w	4094c0 <_malloc_r>
  4094ba:	bf00      	nop
  4094bc:	20400470 	.word	0x20400470

004094c0 <_malloc_r>:
  4094c0:	e92d 4ff0 	stmdb	sp!, {r4, r5, r6, r7, r8, r9, sl, fp, lr}
  4094c4:	f101 050b 	add.w	r5, r1, #11
  4094c8:	2d16      	cmp	r5, #22
  4094ca:	b083      	sub	sp, #12
  4094cc:	4606      	mov	r6, r0
  4094ce:	f240 809f 	bls.w	409610 <_malloc_r+0x150>
  4094d2:	f035 0507 	bics.w	r5, r5, #7
  4094d6:	f100 80bf 	bmi.w	409658 <_malloc_r+0x198>
  4094da:	42a9      	cmp	r1, r5
  4094dc:	f200 80bc 	bhi.w	409658 <_malloc_r+0x198>
  4094e0:	f000 fbf4 	bl	409ccc <__malloc_lock>
  4094e4:	f5b5 7ffc 	cmp.w	r5, #504	; 0x1f8
  4094e8:	f0c0 829c 	bcc.w	409a24 <_malloc_r+0x564>
  4094ec:	0a6b      	lsrs	r3, r5, #9
  4094ee:	f000 80ba 	beq.w	409666 <_malloc_r+0x1a6>
  4094f2:	2b04      	cmp	r3, #4
  4094f4:	f200 8183 	bhi.w	4097fe <_malloc_r+0x33e>
  4094f8:	09a8      	lsrs	r0, r5, #6
  4094fa:	f100 0e39 	add.w	lr, r0, #57	; 0x39
  4094fe:	ea4f 034e 	mov.w	r3, lr, lsl #1
  409502:	3038      	adds	r0, #56	; 0x38
  409504:	4fc4      	ldr	r7, [pc, #784]	; (409818 <_malloc_r+0x358>)
  409506:	eb07 0383 	add.w	r3, r7, r3, lsl #2
  40950a:	f1a3 0108 	sub.w	r1, r3, #8
  40950e:	685c      	ldr	r4, [r3, #4]
  409510:	42a1      	cmp	r1, r4
  409512:	d107      	bne.n	409524 <_malloc_r+0x64>
  409514:	e0ac      	b.n	409670 <_malloc_r+0x1b0>
  409516:	2a00      	cmp	r2, #0
  409518:	f280 80ac 	bge.w	409674 <_malloc_r+0x1b4>
  40951c:	68e4      	ldr	r4, [r4, #12]
  40951e:	42a1      	cmp	r1, r4
  409520:	f000 80a6 	beq.w	409670 <_malloc_r+0x1b0>
  409524:	6863      	ldr	r3, [r4, #4]
  409526:	f023 0303 	bic.w	r3, r3, #3
  40952a:	1b5a      	subs	r2, r3, r5
  40952c:	2a0f      	cmp	r2, #15
  40952e:	ddf2      	ble.n	409516 <_malloc_r+0x56>
  409530:	49b9      	ldr	r1, [pc, #740]	; (409818 <_malloc_r+0x358>)
  409532:	693c      	ldr	r4, [r7, #16]
  409534:	f101 0e08 	add.w	lr, r1, #8
  409538:	4574      	cmp	r4, lr
  40953a:	f000 81b3 	beq.w	4098a4 <_malloc_r+0x3e4>
  40953e:	6863      	ldr	r3, [r4, #4]
  409540:	f023 0303 	bic.w	r3, r3, #3
  409544:	1b5a      	subs	r2, r3, r5
  409546:	2a0f      	cmp	r2, #15
  409548:	f300 8199 	bgt.w	40987e <_malloc_r+0x3be>
  40954c:	2a00      	cmp	r2, #0
  40954e:	f8c1 e014 	str.w	lr, [r1, #20]
  409552:	f8c1 e010 	str.w	lr, [r1, #16]
  409556:	f280 809e 	bge.w	409696 <_malloc_r+0x1d6>
  40955a:	f5b3 7f00 	cmp.w	r3, #512	; 0x200
  40955e:	f080 8167 	bcs.w	409830 <_malloc_r+0x370>
  409562:	08db      	lsrs	r3, r3, #3
  409564:	f103 0c01 	add.w	ip, r3, #1
  409568:	2201      	movs	r2, #1
  40956a:	109b      	asrs	r3, r3, #2
  40956c:	fa02 f303 	lsl.w	r3, r2, r3
  409570:	684a      	ldr	r2, [r1, #4]
  409572:	f851 803c 	ldr.w	r8, [r1, ip, lsl #3]
  409576:	f8c4 8008 	str.w	r8, [r4, #8]
  40957a:	eb01 09cc 	add.w	r9, r1, ip, lsl #3
  40957e:	431a      	orrs	r2, r3
  409580:	f1a9 0308 	sub.w	r3, r9, #8
  409584:	60e3      	str	r3, [r4, #12]
  409586:	604a      	str	r2, [r1, #4]
  409588:	f841 403c 	str.w	r4, [r1, ip, lsl #3]
  40958c:	f8c8 400c 	str.w	r4, [r8, #12]
  409590:	1083      	asrs	r3, r0, #2
  409592:	2401      	movs	r4, #1
  409594:	409c      	lsls	r4, r3
  409596:	4294      	cmp	r4, r2
  409598:	f200 808a 	bhi.w	4096b0 <_malloc_r+0x1f0>
  40959c:	4214      	tst	r4, r2
  40959e:	d106      	bne.n	4095ae <_malloc_r+0xee>
  4095a0:	f020 0003 	bic.w	r0, r0, #3
  4095a4:	0064      	lsls	r4, r4, #1
  4095a6:	4214      	tst	r4, r2
  4095a8:	f100 0004 	add.w	r0, r0, #4
  4095ac:	d0fa      	beq.n	4095a4 <_malloc_r+0xe4>
  4095ae:	eb07 09c0 	add.w	r9, r7, r0, lsl #3
  4095b2:	46cc      	mov	ip, r9
  4095b4:	4680      	mov	r8, r0
  4095b6:	f8dc 100c 	ldr.w	r1, [ip, #12]
  4095ba:	458c      	cmp	ip, r1
  4095bc:	d107      	bne.n	4095ce <_malloc_r+0x10e>
  4095be:	e173      	b.n	4098a8 <_malloc_r+0x3e8>
  4095c0:	2a00      	cmp	r2, #0
  4095c2:	f280 8181 	bge.w	4098c8 <_malloc_r+0x408>
  4095c6:	68c9      	ldr	r1, [r1, #12]
  4095c8:	458c      	cmp	ip, r1
  4095ca:	f000 816d 	beq.w	4098a8 <_malloc_r+0x3e8>
  4095ce:	684b      	ldr	r3, [r1, #4]
  4095d0:	f023 0303 	bic.w	r3, r3, #3
  4095d4:	1b5a      	subs	r2, r3, r5
  4095d6:	2a0f      	cmp	r2, #15
  4095d8:	ddf2      	ble.n	4095c0 <_malloc_r+0x100>
  4095da:	460c      	mov	r4, r1
  4095dc:	f8d1 c00c 	ldr.w	ip, [r1, #12]
  4095e0:	f854 8f08 	ldr.w	r8, [r4, #8]!
  4095e4:	194b      	adds	r3, r1, r5
  4095e6:	f045 0501 	orr.w	r5, r5, #1
  4095ea:	604d      	str	r5, [r1, #4]
  4095ec:	f042 0101 	orr.w	r1, r2, #1
  4095f0:	f8c8 c00c 	str.w	ip, [r8, #12]
  4095f4:	4630      	mov	r0, r6
  4095f6:	f8cc 8008 	str.w	r8, [ip, #8]
  4095fa:	617b      	str	r3, [r7, #20]
  4095fc:	613b      	str	r3, [r7, #16]
  4095fe:	f8c3 e00c 	str.w	lr, [r3, #12]
  409602:	f8c3 e008 	str.w	lr, [r3, #8]
  409606:	6059      	str	r1, [r3, #4]
  409608:	509a      	str	r2, [r3, r2]
  40960a:	f000 fb61 	bl	409cd0 <__malloc_unlock>
  40960e:	e01f      	b.n	409650 <_malloc_r+0x190>
  409610:	2910      	cmp	r1, #16
  409612:	d821      	bhi.n	409658 <_malloc_r+0x198>
  409614:	f000 fb5a 	bl	409ccc <__malloc_lock>
  409618:	2510      	movs	r5, #16
  40961a:	2306      	movs	r3, #6
  40961c:	2002      	movs	r0, #2
  40961e:	4f7e      	ldr	r7, [pc, #504]	; (409818 <_malloc_r+0x358>)
  409620:	eb07 0383 	add.w	r3, r7, r3, lsl #2
  409624:	f1a3 0208 	sub.w	r2, r3, #8
  409628:	685c      	ldr	r4, [r3, #4]
  40962a:	4294      	cmp	r4, r2
  40962c:	f000 8145 	beq.w	4098ba <_malloc_r+0x3fa>
  409630:	6863      	ldr	r3, [r4, #4]
  409632:	68e1      	ldr	r1, [r4, #12]
  409634:	68a5      	ldr	r5, [r4, #8]
  409636:	f023 0303 	bic.w	r3, r3, #3
  40963a:	4423      	add	r3, r4
  40963c:	4630      	mov	r0, r6
  40963e:	685a      	ldr	r2, [r3, #4]
  409640:	60e9      	str	r1, [r5, #12]
  409642:	f042 0201 	orr.w	r2, r2, #1
  409646:	608d      	str	r5, [r1, #8]
  409648:	605a      	str	r2, [r3, #4]
  40964a:	f000 fb41 	bl	409cd0 <__malloc_unlock>
  40964e:	3408      	adds	r4, #8
  409650:	4620      	mov	r0, r4
  409652:	b003      	add	sp, #12
  409654:	e8bd 8ff0 	ldmia.w	sp!, {r4, r5, r6, r7, r8, r9, sl, fp, pc}
  409658:	2400      	movs	r4, #0
  40965a:	230c      	movs	r3, #12
  40965c:	4620      	mov	r0, r4
  40965e:	6033      	str	r3, [r6, #0]
  409660:	b003      	add	sp, #12
  409662:	e8bd 8ff0 	ldmia.w	sp!, {r4, r5, r6, r7, r8, r9, sl, fp, pc}
  409666:	2380      	movs	r3, #128	; 0x80
  409668:	f04f 0e40 	mov.w	lr, #64	; 0x40
  40966c:	203f      	movs	r0, #63	; 0x3f
  40966e:	e749      	b.n	409504 <_malloc_r+0x44>
  409670:	4670      	mov	r0, lr
  409672:	e75d      	b.n	409530 <_malloc_r+0x70>
  409674:	4423      	add	r3, r4
  409676:	68e1      	ldr	r1, [r4, #12]
  409678:	685a      	ldr	r2, [r3, #4]
  40967a:	68a5      	ldr	r5, [r4, #8]
  40967c:	f042 0201 	orr.w	r2, r2, #1
  409680:	60e9      	str	r1, [r5, #12]
  409682:	4630      	mov	r0, r6
  409684:	608d      	str	r5, [r1, #8]
  409686:	605a      	str	r2, [r3, #4]
  409688:	f000 fb22 	bl	409cd0 <__malloc_unlock>
  40968c:	3408      	adds	r4, #8
  40968e:	4620      	mov	r0, r4
  409690:	b003      	add	sp, #12
  409692:	e8bd 8ff0 	ldmia.w	sp!, {r4, r5, r6, r7, r8, r9, sl, fp, pc}
  409696:	4423      	add	r3, r4
  409698:	4630      	mov	r0, r6
  40969a:	685a      	ldr	r2, [r3, #4]
  40969c:	f042 0201 	orr.w	r2, r2, #1
  4096a0:	605a      	str	r2, [r3, #4]
  4096a2:	f000 fb15 	bl	409cd0 <__malloc_unlock>
  4096a6:	3408      	adds	r4, #8
  4096a8:	4620      	mov	r0, r4
  4096aa:	b003      	add	sp, #12
  4096ac:	e8bd 8ff0 	ldmia.w	sp!, {r4, r5, r6, r7, r8, r9, sl, fp, pc}
  4096b0:	68bc      	ldr	r4, [r7, #8]
  4096b2:	6863      	ldr	r3, [r4, #4]
  4096b4:	f023 0803 	bic.w	r8, r3, #3
  4096b8:	45a8      	cmp	r8, r5
  4096ba:	d304      	bcc.n	4096c6 <_malloc_r+0x206>
  4096bc:	ebc5 0308 	rsb	r3, r5, r8
  4096c0:	2b0f      	cmp	r3, #15
  4096c2:	f300 808c 	bgt.w	4097de <_malloc_r+0x31e>
  4096c6:	4b55      	ldr	r3, [pc, #340]	; (40981c <_malloc_r+0x35c>)
  4096c8:	f8df 9160 	ldr.w	r9, [pc, #352]	; 40982c <_malloc_r+0x36c>
  4096cc:	681a      	ldr	r2, [r3, #0]
  4096ce:	f8d9 3000 	ldr.w	r3, [r9]
  4096d2:	3301      	adds	r3, #1
  4096d4:	442a      	add	r2, r5
  4096d6:	eb04 0a08 	add.w	sl, r4, r8
  4096da:	f000 8160 	beq.w	40999e <_malloc_r+0x4de>
  4096de:	f502 5280 	add.w	r2, r2, #4096	; 0x1000
  4096e2:	320f      	adds	r2, #15
  4096e4:	f422 627f 	bic.w	r2, r2, #4080	; 0xff0
  4096e8:	f022 020f 	bic.w	r2, r2, #15
  4096ec:	4611      	mov	r1, r2
  4096ee:	4630      	mov	r0, r6
  4096f0:	9201      	str	r2, [sp, #4]
  4096f2:	f000 ffed 	bl	40a6d0 <_sbrk_r>
  4096f6:	f1b0 3fff 	cmp.w	r0, #4294967295
  4096fa:	4683      	mov	fp, r0
  4096fc:	9a01      	ldr	r2, [sp, #4]
  4096fe:	f000 8158 	beq.w	4099b2 <_malloc_r+0x4f2>
  409702:	4582      	cmp	sl, r0
  409704:	f200 80fc 	bhi.w	409900 <_malloc_r+0x440>
  409708:	4b45      	ldr	r3, [pc, #276]	; (409820 <_malloc_r+0x360>)
  40970a:	6819      	ldr	r1, [r3, #0]
  40970c:	45da      	cmp	sl, fp
  40970e:	4411      	add	r1, r2
  409710:	6019      	str	r1, [r3, #0]
  409712:	f000 8153 	beq.w	4099bc <_malloc_r+0x4fc>
  409716:	f8d9 0000 	ldr.w	r0, [r9]
  40971a:	f8df e110 	ldr.w	lr, [pc, #272]	; 40982c <_malloc_r+0x36c>
  40971e:	3001      	adds	r0, #1
  409720:	bf1b      	ittet	ne
  409722:	ebca 0a0b 	rsbne	sl, sl, fp
  409726:	4451      	addne	r1, sl
  409728:	f8ce b000 	streq.w	fp, [lr]
  40972c:	6019      	strne	r1, [r3, #0]
  40972e:	f01b 0107 	ands.w	r1, fp, #7
  409732:	f000 8117 	beq.w	409964 <_malloc_r+0x4a4>
  409736:	f1c1 0008 	rsb	r0, r1, #8
  40973a:	f5c1 5180 	rsb	r1, r1, #4096	; 0x1000
  40973e:	4483      	add	fp, r0
  409740:	3108      	adds	r1, #8
  409742:	445a      	add	r2, fp
  409744:	f3c2 020b 	ubfx	r2, r2, #0, #12
  409748:	ebc2 0901 	rsb	r9, r2, r1
  40974c:	4649      	mov	r1, r9
  40974e:	4630      	mov	r0, r6
  409750:	9301      	str	r3, [sp, #4]
  409752:	f000 ffbd 	bl	40a6d0 <_sbrk_r>
  409756:	1c43      	adds	r3, r0, #1
  409758:	9b01      	ldr	r3, [sp, #4]
  40975a:	f000 813f 	beq.w	4099dc <_malloc_r+0x51c>
  40975e:	ebcb 0200 	rsb	r2, fp, r0
  409762:	444a      	add	r2, r9
  409764:	f042 0201 	orr.w	r2, r2, #1
  409768:	6819      	ldr	r1, [r3, #0]
  40976a:	f8c7 b008 	str.w	fp, [r7, #8]
  40976e:	4449      	add	r1, r9
  409770:	42bc      	cmp	r4, r7
  409772:	f8cb 2004 	str.w	r2, [fp, #4]
  409776:	6019      	str	r1, [r3, #0]
  409778:	f8df 90a4 	ldr.w	r9, [pc, #164]	; 409820 <_malloc_r+0x360>
  40977c:	d016      	beq.n	4097ac <_malloc_r+0x2ec>
  40977e:	f1b8 0f0f 	cmp.w	r8, #15
  409782:	f240 80fd 	bls.w	409980 <_malloc_r+0x4c0>
  409786:	6862      	ldr	r2, [r4, #4]
  409788:	f1a8 030c 	sub.w	r3, r8, #12
  40978c:	f023 0307 	bic.w	r3, r3, #7
  409790:	18e0      	adds	r0, r4, r3
  409792:	f002 0201 	and.w	r2, r2, #1
  409796:	f04f 0e05 	mov.w	lr, #5
  40979a:	431a      	orrs	r2, r3
  40979c:	2b0f      	cmp	r3, #15
  40979e:	6062      	str	r2, [r4, #4]
  4097a0:	f8c0 e004 	str.w	lr, [r0, #4]
  4097a4:	f8c0 e008 	str.w	lr, [r0, #8]
  4097a8:	f200 811c 	bhi.w	4099e4 <_malloc_r+0x524>
  4097ac:	4b1d      	ldr	r3, [pc, #116]	; (409824 <_malloc_r+0x364>)
  4097ae:	68bc      	ldr	r4, [r7, #8]
  4097b0:	681a      	ldr	r2, [r3, #0]
  4097b2:	4291      	cmp	r1, r2
  4097b4:	bf88      	it	hi
  4097b6:	6019      	strhi	r1, [r3, #0]
  4097b8:	4b1b      	ldr	r3, [pc, #108]	; (409828 <_malloc_r+0x368>)
  4097ba:	681a      	ldr	r2, [r3, #0]
  4097bc:	4291      	cmp	r1, r2
  4097be:	6862      	ldr	r2, [r4, #4]
  4097c0:	bf88      	it	hi
  4097c2:	6019      	strhi	r1, [r3, #0]
  4097c4:	f022 0203 	bic.w	r2, r2, #3
  4097c8:	4295      	cmp	r5, r2
  4097ca:	eba2 0305 	sub.w	r3, r2, r5
  4097ce:	d801      	bhi.n	4097d4 <_malloc_r+0x314>
  4097d0:	2b0f      	cmp	r3, #15
  4097d2:	dc04      	bgt.n	4097de <_malloc_r+0x31e>
  4097d4:	4630      	mov	r0, r6
  4097d6:	f000 fa7b 	bl	409cd0 <__malloc_unlock>
  4097da:	2400      	movs	r4, #0
  4097dc:	e738      	b.n	409650 <_malloc_r+0x190>
  4097de:	1962      	adds	r2, r4, r5
  4097e0:	f043 0301 	orr.w	r3, r3, #1
  4097e4:	f045 0501 	orr.w	r5, r5, #1
  4097e8:	6065      	str	r5, [r4, #4]
  4097ea:	4630      	mov	r0, r6
  4097ec:	60ba      	str	r2, [r7, #8]
  4097ee:	6053      	str	r3, [r2, #4]
  4097f0:	f000 fa6e 	bl	409cd0 <__malloc_unlock>
  4097f4:	3408      	adds	r4, #8
  4097f6:	4620      	mov	r0, r4
  4097f8:	b003      	add	sp, #12
  4097fa:	e8bd 8ff0 	ldmia.w	sp!, {r4, r5, r6, r7, r8, r9, sl, fp, pc}
  4097fe:	2b14      	cmp	r3, #20
  409800:	d971      	bls.n	4098e6 <_malloc_r+0x426>
  409802:	2b54      	cmp	r3, #84	; 0x54
  409804:	f200 80a4 	bhi.w	409950 <_malloc_r+0x490>
  409808:	0b28      	lsrs	r0, r5, #12
  40980a:	f100 0e6f 	add.w	lr, r0, #111	; 0x6f
  40980e:	ea4f 034e 	mov.w	r3, lr, lsl #1
  409812:	306e      	adds	r0, #110	; 0x6e
  409814:	e676      	b.n	409504 <_malloc_r+0x44>
  409816:	bf00      	nop
  409818:	204004d0 	.word	0x204004d0
  40981c:	20401548 	.word	0x20401548
  409820:	2040154c 	.word	0x2040154c
  409824:	20401544 	.word	0x20401544
  409828:	20401540 	.word	0x20401540
  40982c:	204008dc 	.word	0x204008dc
  409830:	0a5a      	lsrs	r2, r3, #9
  409832:	2a04      	cmp	r2, #4
  409834:	d95e      	bls.n	4098f4 <_malloc_r+0x434>
  409836:	2a14      	cmp	r2, #20
  409838:	f200 80b3 	bhi.w	4099a2 <_malloc_r+0x4e2>
  40983c:	f102 015c 	add.w	r1, r2, #92	; 0x5c
  409840:	0049      	lsls	r1, r1, #1
  409842:	325b      	adds	r2, #91	; 0x5b
  409844:	eb07 0c81 	add.w	ip, r7, r1, lsl #2
  409848:	f857 1021 	ldr.w	r1, [r7, r1, lsl #2]
  40984c:	f8df 81dc 	ldr.w	r8, [pc, #476]	; 409a2c <_malloc_r+0x56c>
  409850:	f1ac 0c08 	sub.w	ip, ip, #8
  409854:	458c      	cmp	ip, r1
  409856:	f000 8088 	beq.w	40996a <_malloc_r+0x4aa>
  40985a:	684a      	ldr	r2, [r1, #4]
  40985c:	f022 0203 	bic.w	r2, r2, #3
  409860:	4293      	cmp	r3, r2
  409862:	d202      	bcs.n	40986a <_malloc_r+0x3aa>
  409864:	6889      	ldr	r1, [r1, #8]
  409866:	458c      	cmp	ip, r1
  409868:	d1f7      	bne.n	40985a <_malloc_r+0x39a>
  40986a:	f8d1 c00c 	ldr.w	ip, [r1, #12]
  40986e:	687a      	ldr	r2, [r7, #4]
  409870:	f8c4 c00c 	str.w	ip, [r4, #12]
  409874:	60a1      	str	r1, [r4, #8]
  409876:	f8cc 4008 	str.w	r4, [ip, #8]
  40987a:	60cc      	str	r4, [r1, #12]
  40987c:	e688      	b.n	409590 <_malloc_r+0xd0>
  40987e:	1963      	adds	r3, r4, r5
  409880:	f042 0701 	orr.w	r7, r2, #1
  409884:	f045 0501 	orr.w	r5, r5, #1
  409888:	6065      	str	r5, [r4, #4]
  40988a:	4630      	mov	r0, r6
  40988c:	614b      	str	r3, [r1, #20]
  40988e:	610b      	str	r3, [r1, #16]
  409890:	f8c3 e00c 	str.w	lr, [r3, #12]
  409894:	f8c3 e008 	str.w	lr, [r3, #8]
  409898:	605f      	str	r7, [r3, #4]
  40989a:	509a      	str	r2, [r3, r2]
  40989c:	3408      	adds	r4, #8
  40989e:	f000 fa17 	bl	409cd0 <__malloc_unlock>
  4098a2:	e6d5      	b.n	409650 <_malloc_r+0x190>
  4098a4:	684a      	ldr	r2, [r1, #4]
  4098a6:	e673      	b.n	409590 <_malloc_r+0xd0>
  4098a8:	f108 0801 	add.w	r8, r8, #1
  4098ac:	f018 0f03 	tst.w	r8, #3
  4098b0:	f10c 0c08 	add.w	ip, ip, #8
  4098b4:	f47f ae7f 	bne.w	4095b6 <_malloc_r+0xf6>
  4098b8:	e030      	b.n	40991c <_malloc_r+0x45c>
  4098ba:	68dc      	ldr	r4, [r3, #12]
  4098bc:	42a3      	cmp	r3, r4
  4098be:	bf08      	it	eq
  4098c0:	3002      	addeq	r0, #2
  4098c2:	f43f ae35 	beq.w	409530 <_malloc_r+0x70>
  4098c6:	e6b3      	b.n	409630 <_malloc_r+0x170>
  4098c8:	440b      	add	r3, r1
  4098ca:	460c      	mov	r4, r1
  4098cc:	685a      	ldr	r2, [r3, #4]
  4098ce:	68c9      	ldr	r1, [r1, #12]
  4098d0:	f854 5f08 	ldr.w	r5, [r4, #8]!
  4098d4:	f042 0201 	orr.w	r2, r2, #1
  4098d8:	605a      	str	r2, [r3, #4]
  4098da:	4630      	mov	r0, r6
  4098dc:	60e9      	str	r1, [r5, #12]
  4098de:	608d      	str	r5, [r1, #8]
  4098e0:	f000 f9f6 	bl	409cd0 <__malloc_unlock>
  4098e4:	e6b4      	b.n	409650 <_malloc_r+0x190>
  4098e6:	f103 0e5c 	add.w	lr, r3, #92	; 0x5c
  4098ea:	f103 005b 	add.w	r0, r3, #91	; 0x5b
  4098ee:	ea4f 034e 	mov.w	r3, lr, lsl #1
  4098f2:	e607      	b.n	409504 <_malloc_r+0x44>
  4098f4:	099a      	lsrs	r2, r3, #6
  4098f6:	f102 0139 	add.w	r1, r2, #57	; 0x39
  4098fa:	0049      	lsls	r1, r1, #1
  4098fc:	3238      	adds	r2, #56	; 0x38
  4098fe:	e7a1      	b.n	409844 <_malloc_r+0x384>
  409900:	42bc      	cmp	r4, r7
  409902:	4b4a      	ldr	r3, [pc, #296]	; (409a2c <_malloc_r+0x56c>)
  409904:	f43f af00 	beq.w	409708 <_malloc_r+0x248>
  409908:	689c      	ldr	r4, [r3, #8]
  40990a:	6862      	ldr	r2, [r4, #4]
  40990c:	f022 0203 	bic.w	r2, r2, #3
  409910:	e75a      	b.n	4097c8 <_malloc_r+0x308>
  409912:	f859 3908 	ldr.w	r3, [r9], #-8
  409916:	4599      	cmp	r9, r3
  409918:	f040 8082 	bne.w	409a20 <_malloc_r+0x560>
  40991c:	f010 0f03 	tst.w	r0, #3
  409920:	f100 30ff 	add.w	r0, r0, #4294967295
  409924:	d1f5      	bne.n	409912 <_malloc_r+0x452>
  409926:	687b      	ldr	r3, [r7, #4]
  409928:	ea23 0304 	bic.w	r3, r3, r4
  40992c:	607b      	str	r3, [r7, #4]
  40992e:	0064      	lsls	r4, r4, #1
  409930:	429c      	cmp	r4, r3
  409932:	f63f aebd 	bhi.w	4096b0 <_malloc_r+0x1f0>
  409936:	2c00      	cmp	r4, #0
  409938:	f43f aeba 	beq.w	4096b0 <_malloc_r+0x1f0>
  40993c:	421c      	tst	r4, r3
  40993e:	4640      	mov	r0, r8
  409940:	f47f ae35 	bne.w	4095ae <_malloc_r+0xee>
  409944:	0064      	lsls	r4, r4, #1
  409946:	421c      	tst	r4, r3
  409948:	f100 0004 	add.w	r0, r0, #4
  40994c:	d0fa      	beq.n	409944 <_malloc_r+0x484>
  40994e:	e62e      	b.n	4095ae <_malloc_r+0xee>
  409950:	f5b3 7faa 	cmp.w	r3, #340	; 0x154
  409954:	d818      	bhi.n	409988 <_malloc_r+0x4c8>
  409956:	0be8      	lsrs	r0, r5, #15
  409958:	f100 0e78 	add.w	lr, r0, #120	; 0x78
  40995c:	ea4f 034e 	mov.w	r3, lr, lsl #1
  409960:	3077      	adds	r0, #119	; 0x77
  409962:	e5cf      	b.n	409504 <_malloc_r+0x44>
  409964:	f44f 5180 	mov.w	r1, #4096	; 0x1000
  409968:	e6eb      	b.n	409742 <_malloc_r+0x282>
  40996a:	2101      	movs	r1, #1
  40996c:	f8d8 3004 	ldr.w	r3, [r8, #4]
  409970:	1092      	asrs	r2, r2, #2
  409972:	fa01 f202 	lsl.w	r2, r1, r2
  409976:	431a      	orrs	r2, r3
  409978:	f8c8 2004 	str.w	r2, [r8, #4]
  40997c:	4661      	mov	r1, ip
  40997e:	e777      	b.n	409870 <_malloc_r+0x3b0>
  409980:	2301      	movs	r3, #1
  409982:	f8cb 3004 	str.w	r3, [fp, #4]
  409986:	e725      	b.n	4097d4 <_malloc_r+0x314>
  409988:	f240 5254 	movw	r2, #1364	; 0x554
  40998c:	4293      	cmp	r3, r2
  40998e:	d820      	bhi.n	4099d2 <_malloc_r+0x512>
  409990:	0ca8      	lsrs	r0, r5, #18
  409992:	f100 0e7d 	add.w	lr, r0, #125	; 0x7d
  409996:	ea4f 034e 	mov.w	r3, lr, lsl #1
  40999a:	307c      	adds	r0, #124	; 0x7c
  40999c:	e5b2      	b.n	409504 <_malloc_r+0x44>
  40999e:	3210      	adds	r2, #16
  4099a0:	e6a4      	b.n	4096ec <_malloc_r+0x22c>
  4099a2:	2a54      	cmp	r2, #84	; 0x54
  4099a4:	d826      	bhi.n	4099f4 <_malloc_r+0x534>
  4099a6:	0b1a      	lsrs	r2, r3, #12
  4099a8:	f102 016f 	add.w	r1, r2, #111	; 0x6f
  4099ac:	0049      	lsls	r1, r1, #1
  4099ae:	326e      	adds	r2, #110	; 0x6e
  4099b0:	e748      	b.n	409844 <_malloc_r+0x384>
  4099b2:	68bc      	ldr	r4, [r7, #8]
  4099b4:	6862      	ldr	r2, [r4, #4]
  4099b6:	f022 0203 	bic.w	r2, r2, #3
  4099ba:	e705      	b.n	4097c8 <_malloc_r+0x308>
  4099bc:	f3ca 000b 	ubfx	r0, sl, #0, #12
  4099c0:	2800      	cmp	r0, #0
  4099c2:	f47f aea8 	bne.w	409716 <_malloc_r+0x256>
  4099c6:	4442      	add	r2, r8
  4099c8:	68bb      	ldr	r3, [r7, #8]
  4099ca:	f042 0201 	orr.w	r2, r2, #1
  4099ce:	605a      	str	r2, [r3, #4]
  4099d0:	e6ec      	b.n	4097ac <_malloc_r+0x2ec>
  4099d2:	23fe      	movs	r3, #254	; 0xfe
  4099d4:	f04f 0e7f 	mov.w	lr, #127	; 0x7f
  4099d8:	207e      	movs	r0, #126	; 0x7e
  4099da:	e593      	b.n	409504 <_malloc_r+0x44>
  4099dc:	2201      	movs	r2, #1
  4099de:	f04f 0900 	mov.w	r9, #0
  4099e2:	e6c1      	b.n	409768 <_malloc_r+0x2a8>
  4099e4:	f104 0108 	add.w	r1, r4, #8
  4099e8:	4630      	mov	r0, r6
  4099ea:	f7ff fa4b 	bl	408e84 <_free_r>
  4099ee:	f8d9 1000 	ldr.w	r1, [r9]
  4099f2:	e6db      	b.n	4097ac <_malloc_r+0x2ec>
  4099f4:	f5b2 7faa 	cmp.w	r2, #340	; 0x154
  4099f8:	d805      	bhi.n	409a06 <_malloc_r+0x546>
  4099fa:	0bda      	lsrs	r2, r3, #15
  4099fc:	f102 0178 	add.w	r1, r2, #120	; 0x78
  409a00:	0049      	lsls	r1, r1, #1
  409a02:	3277      	adds	r2, #119	; 0x77
  409a04:	e71e      	b.n	409844 <_malloc_r+0x384>
  409a06:	f240 5154 	movw	r1, #1364	; 0x554
  409a0a:	428a      	cmp	r2, r1
  409a0c:	d805      	bhi.n	409a1a <_malloc_r+0x55a>
  409a0e:	0c9a      	lsrs	r2, r3, #18
  409a10:	f102 017d 	add.w	r1, r2, #125	; 0x7d
  409a14:	0049      	lsls	r1, r1, #1
  409a16:	327c      	adds	r2, #124	; 0x7c
  409a18:	e714      	b.n	409844 <_malloc_r+0x384>
  409a1a:	21fe      	movs	r1, #254	; 0xfe
  409a1c:	227e      	movs	r2, #126	; 0x7e
  409a1e:	e711      	b.n	409844 <_malloc_r+0x384>
  409a20:	687b      	ldr	r3, [r7, #4]
  409a22:	e784      	b.n	40992e <_malloc_r+0x46e>
  409a24:	08e8      	lsrs	r0, r5, #3
  409a26:	1c43      	adds	r3, r0, #1
  409a28:	005b      	lsls	r3, r3, #1
  409a2a:	e5f8      	b.n	40961e <_malloc_r+0x15e>
  409a2c:	204004d0 	.word	0x204004d0

00409a30 <memchr>:
  409a30:	f001 01ff 	and.w	r1, r1, #255	; 0xff
  409a34:	2a10      	cmp	r2, #16
  409a36:	db2b      	blt.n	409a90 <memchr+0x60>
  409a38:	f010 0f07 	tst.w	r0, #7
  409a3c:	d008      	beq.n	409a50 <memchr+0x20>
  409a3e:	f810 3b01 	ldrb.w	r3, [r0], #1
  409a42:	3a01      	subs	r2, #1
  409a44:	428b      	cmp	r3, r1
  409a46:	d02d      	beq.n	409aa4 <memchr+0x74>
  409a48:	f010 0f07 	tst.w	r0, #7
  409a4c:	b342      	cbz	r2, 409aa0 <memchr+0x70>
  409a4e:	d1f6      	bne.n	409a3e <memchr+0xe>
  409a50:	b4f0      	push	{r4, r5, r6, r7}
  409a52:	ea41 2101 	orr.w	r1, r1, r1, lsl #8
  409a56:	ea41 4101 	orr.w	r1, r1, r1, lsl #16
  409a5a:	f022 0407 	bic.w	r4, r2, #7
  409a5e:	f07f 0700 	mvns.w	r7, #0
  409a62:	2300      	movs	r3, #0
  409a64:	e8f0 5602 	ldrd	r5, r6, [r0], #8
  409a68:	3c08      	subs	r4, #8
  409a6a:	ea85 0501 	eor.w	r5, r5, r1
  409a6e:	ea86 0601 	eor.w	r6, r6, r1
  409a72:	fa85 f547 	uadd8	r5, r5, r7
  409a76:	faa3 f587 	sel	r5, r3, r7
  409a7a:	fa86 f647 	uadd8	r6, r6, r7
  409a7e:	faa5 f687 	sel	r6, r5, r7
  409a82:	b98e      	cbnz	r6, 409aa8 <memchr+0x78>
  409a84:	d1ee      	bne.n	409a64 <memchr+0x34>
  409a86:	bcf0      	pop	{r4, r5, r6, r7}
  409a88:	f001 01ff 	and.w	r1, r1, #255	; 0xff
  409a8c:	f002 0207 	and.w	r2, r2, #7
  409a90:	b132      	cbz	r2, 409aa0 <memchr+0x70>
  409a92:	f810 3b01 	ldrb.w	r3, [r0], #1
  409a96:	3a01      	subs	r2, #1
  409a98:	ea83 0301 	eor.w	r3, r3, r1
  409a9c:	b113      	cbz	r3, 409aa4 <memchr+0x74>
  409a9e:	d1f8      	bne.n	409a92 <memchr+0x62>
  409aa0:	2000      	movs	r0, #0
  409aa2:	4770      	bx	lr
  409aa4:	3801      	subs	r0, #1
  409aa6:	4770      	bx	lr
  409aa8:	2d00      	cmp	r5, #0
  409aaa:	bf06      	itte	eq
  409aac:	4635      	moveq	r5, r6
  409aae:	3803      	subeq	r0, #3
  409ab0:	3807      	subne	r0, #7
  409ab2:	f015 0f01 	tst.w	r5, #1
  409ab6:	d107      	bne.n	409ac8 <memchr+0x98>
  409ab8:	3001      	adds	r0, #1
  409aba:	f415 7f80 	tst.w	r5, #256	; 0x100
  409abe:	bf02      	ittt	eq
  409ac0:	3001      	addeq	r0, #1
  409ac2:	f415 3fc0 	tsteq.w	r5, #98304	; 0x18000
  409ac6:	3001      	addeq	r0, #1
  409ac8:	bcf0      	pop	{r4, r5, r6, r7}
  409aca:	3801      	subs	r0, #1
  409acc:	4770      	bx	lr
  409ace:	bf00      	nop

00409ad0 <memcpy>:
  409ad0:	4684      	mov	ip, r0
  409ad2:	ea41 0300 	orr.w	r3, r1, r0
  409ad6:	f013 0303 	ands.w	r3, r3, #3
  409ada:	d16d      	bne.n	409bb8 <memcpy+0xe8>
  409adc:	3a40      	subs	r2, #64	; 0x40
  409ade:	d341      	bcc.n	409b64 <memcpy+0x94>
  409ae0:	f851 3b04 	ldr.w	r3, [r1], #4
  409ae4:	f840 3b04 	str.w	r3, [r0], #4
  409ae8:	f851 3b04 	ldr.w	r3, [r1], #4
  409aec:	f840 3b04 	str.w	r3, [r0], #4
  409af0:	f851 3b04 	ldr.w	r3, [r1], #4
  409af4:	f840 3b04 	str.w	r3, [r0], #4
  409af8:	f851 3b04 	ldr.w	r3, [r1], #4
  409afc:	f840 3b04 	str.w	r3, [r0], #4
  409b00:	f851 3b04 	ldr.w	r3, [r1], #4
  409b04:	f840 3b04 	str.w	r3, [r0], #4
  409b08:	f851 3b04 	ldr.w	r3, [r1], #4
  409b0c:	f840 3b04 	str.w	r3, [r0], #4
  409b10:	f851 3b04 	ldr.w	r3, [r1], #4
  409b14:	f840 3b04 	str.w	r3, [r0], #4
  409b18:	f851 3b04 	ldr.w	r3, [r1], #4
  409b1c:	f840 3b04 	str.w	r3, [r0], #4
  409b20:	f851 3b04 	ldr.w	r3, [r1], #4
  409b24:	f840 3b04 	str.w	r3, [r0], #4
  409b28:	f851 3b04 	ldr.w	r3, [r1], #4
  409b2c:	f840 3b04 	str.w	r3, [r0], #4
  409b30:	f851 3b04 	ldr.w	r3, [r1], #4
  409b34:	f840 3b04 	str.w	r3, [r0], #4
  409b38:	f851 3b04 	ldr.w	r3, [r1], #4
  409b3c:	f840 3b04 	str.w	r3, [r0], #4
  409b40:	f851 3b04 	ldr.w	r3, [r1], #4
  409b44:	f840 3b04 	str.w	r3, [r0], #4
  409b48:	f851 3b04 	ldr.w	r3, [r1], #4
  409b4c:	f840 3b04 	str.w	r3, [r0], #4
  409b50:	f851 3b04 	ldr.w	r3, [r1], #4
  409b54:	f840 3b04 	str.w	r3, [r0], #4
  409b58:	f851 3b04 	ldr.w	r3, [r1], #4
  409b5c:	f840 3b04 	str.w	r3, [r0], #4
  409b60:	3a40      	subs	r2, #64	; 0x40
  409b62:	d2bd      	bcs.n	409ae0 <memcpy+0x10>
  409b64:	3230      	adds	r2, #48	; 0x30
  409b66:	d311      	bcc.n	409b8c <memcpy+0xbc>
  409b68:	f851 3b04 	ldr.w	r3, [r1], #4
  409b6c:	f840 3b04 	str.w	r3, [r0], #4
  409b70:	f851 3b04 	ldr.w	r3, [r1], #4
  409b74:	f840 3b04 	str.w	r3, [r0], #4
  409b78:	f851 3b04 	ldr.w	r3, [r1], #4
  409b7c:	f840 3b04 	str.w	r3, [r0], #4
  409b80:	f851 3b04 	ldr.w	r3, [r1], #4
  409b84:	f840 3b04 	str.w	r3, [r0], #4
  409b88:	3a10      	subs	r2, #16
  409b8a:	d2ed      	bcs.n	409b68 <memcpy+0x98>
  409b8c:	320c      	adds	r2, #12
  409b8e:	d305      	bcc.n	409b9c <memcpy+0xcc>
  409b90:	f851 3b04 	ldr.w	r3, [r1], #4
  409b94:	f840 3b04 	str.w	r3, [r0], #4
  409b98:	3a04      	subs	r2, #4
  409b9a:	d2f9      	bcs.n	409b90 <memcpy+0xc0>
  409b9c:	3204      	adds	r2, #4
  409b9e:	d008      	beq.n	409bb2 <memcpy+0xe2>
  409ba0:	07d2      	lsls	r2, r2, #31
  409ba2:	bf1c      	itt	ne
  409ba4:	f811 3b01 	ldrbne.w	r3, [r1], #1
  409ba8:	f800 3b01 	strbne.w	r3, [r0], #1
  409bac:	d301      	bcc.n	409bb2 <memcpy+0xe2>
  409bae:	880b      	ldrh	r3, [r1, #0]
  409bb0:	8003      	strh	r3, [r0, #0]
  409bb2:	4660      	mov	r0, ip
  409bb4:	4770      	bx	lr
  409bb6:	bf00      	nop
  409bb8:	2a08      	cmp	r2, #8
  409bba:	d313      	bcc.n	409be4 <memcpy+0x114>
  409bbc:	078b      	lsls	r3, r1, #30
  409bbe:	d08d      	beq.n	409adc <memcpy+0xc>
  409bc0:	f010 0303 	ands.w	r3, r0, #3
  409bc4:	d08a      	beq.n	409adc <memcpy+0xc>
  409bc6:	f1c3 0304 	rsb	r3, r3, #4
  409bca:	1ad2      	subs	r2, r2, r3
  409bcc:	07db      	lsls	r3, r3, #31
  409bce:	bf1c      	itt	ne
  409bd0:	f811 3b01 	ldrbne.w	r3, [r1], #1
  409bd4:	f800 3b01 	strbne.w	r3, [r0], #1
  409bd8:	d380      	bcc.n	409adc <memcpy+0xc>
  409bda:	f831 3b02 	ldrh.w	r3, [r1], #2
  409bde:	f820 3b02 	strh.w	r3, [r0], #2
  409be2:	e77b      	b.n	409adc <memcpy+0xc>
  409be4:	3a04      	subs	r2, #4
  409be6:	d3d9      	bcc.n	409b9c <memcpy+0xcc>
  409be8:	3a01      	subs	r2, #1
  409bea:	f811 3b01 	ldrb.w	r3, [r1], #1
  409bee:	f800 3b01 	strb.w	r3, [r0], #1
  409bf2:	d2f9      	bcs.n	409be8 <memcpy+0x118>
  409bf4:	780b      	ldrb	r3, [r1, #0]
  409bf6:	7003      	strb	r3, [r0, #0]
  409bf8:	784b      	ldrb	r3, [r1, #1]
  409bfa:	7043      	strb	r3, [r0, #1]
  409bfc:	788b      	ldrb	r3, [r1, #2]
  409bfe:	7083      	strb	r3, [r0, #2]
  409c00:	4660      	mov	r0, ip
  409c02:	4770      	bx	lr

00409c04 <memmove>:
  409c04:	4288      	cmp	r0, r1
  409c06:	b5f0      	push	{r4, r5, r6, r7, lr}
  409c08:	d90d      	bls.n	409c26 <memmove+0x22>
  409c0a:	188b      	adds	r3, r1, r2
  409c0c:	4298      	cmp	r0, r3
  409c0e:	d20a      	bcs.n	409c26 <memmove+0x22>
  409c10:	1881      	adds	r1, r0, r2
  409c12:	2a00      	cmp	r2, #0
  409c14:	d051      	beq.n	409cba <memmove+0xb6>
  409c16:	1a9a      	subs	r2, r3, r2
  409c18:	f813 4d01 	ldrb.w	r4, [r3, #-1]!
  409c1c:	f801 4d01 	strb.w	r4, [r1, #-1]!
  409c20:	4293      	cmp	r3, r2
  409c22:	d1f9      	bne.n	409c18 <memmove+0x14>
  409c24:	bdf0      	pop	{r4, r5, r6, r7, pc}
  409c26:	2a0f      	cmp	r2, #15
  409c28:	d948      	bls.n	409cbc <memmove+0xb8>
  409c2a:	ea41 0300 	orr.w	r3, r1, r0
  409c2e:	079b      	lsls	r3, r3, #30
  409c30:	d146      	bne.n	409cc0 <memmove+0xbc>
  409c32:	f100 0410 	add.w	r4, r0, #16
  409c36:	f101 0310 	add.w	r3, r1, #16
  409c3a:	4615      	mov	r5, r2
  409c3c:	f853 6c10 	ldr.w	r6, [r3, #-16]
  409c40:	f844 6c10 	str.w	r6, [r4, #-16]
  409c44:	f853 6c0c 	ldr.w	r6, [r3, #-12]
  409c48:	f844 6c0c 	str.w	r6, [r4, #-12]
  409c4c:	f853 6c08 	ldr.w	r6, [r3, #-8]
  409c50:	f844 6c08 	str.w	r6, [r4, #-8]
  409c54:	3d10      	subs	r5, #16
  409c56:	f853 6c04 	ldr.w	r6, [r3, #-4]
  409c5a:	f844 6c04 	str.w	r6, [r4, #-4]
  409c5e:	2d0f      	cmp	r5, #15
  409c60:	f103 0310 	add.w	r3, r3, #16
  409c64:	f104 0410 	add.w	r4, r4, #16
  409c68:	d8e8      	bhi.n	409c3c <memmove+0x38>
  409c6a:	f1a2 0310 	sub.w	r3, r2, #16
  409c6e:	f023 030f 	bic.w	r3, r3, #15
  409c72:	f002 0e0f 	and.w	lr, r2, #15
  409c76:	3310      	adds	r3, #16
  409c78:	f1be 0f03 	cmp.w	lr, #3
  409c7c:	4419      	add	r1, r3
  409c7e:	4403      	add	r3, r0
  409c80:	d921      	bls.n	409cc6 <memmove+0xc2>
  409c82:	1f1e      	subs	r6, r3, #4
  409c84:	460d      	mov	r5, r1
  409c86:	4674      	mov	r4, lr
  409c88:	3c04      	subs	r4, #4
  409c8a:	f855 7b04 	ldr.w	r7, [r5], #4
  409c8e:	f846 7f04 	str.w	r7, [r6, #4]!
  409c92:	2c03      	cmp	r4, #3
  409c94:	d8f8      	bhi.n	409c88 <memmove+0x84>
  409c96:	f1ae 0404 	sub.w	r4, lr, #4
  409c9a:	f024 0403 	bic.w	r4, r4, #3
  409c9e:	3404      	adds	r4, #4
  409ca0:	4423      	add	r3, r4
  409ca2:	4421      	add	r1, r4
  409ca4:	f002 0203 	and.w	r2, r2, #3
  409ca8:	b162      	cbz	r2, 409cc4 <memmove+0xc0>
  409caa:	3b01      	subs	r3, #1
  409cac:	440a      	add	r2, r1
  409cae:	f811 4b01 	ldrb.w	r4, [r1], #1
  409cb2:	f803 4f01 	strb.w	r4, [r3, #1]!
  409cb6:	428a      	cmp	r2, r1
  409cb8:	d1f9      	bne.n	409cae <memmove+0xaa>
  409cba:	bdf0      	pop	{r4, r5, r6, r7, pc}
  409cbc:	4603      	mov	r3, r0
  409cbe:	e7f3      	b.n	409ca8 <memmove+0xa4>
  409cc0:	4603      	mov	r3, r0
  409cc2:	e7f2      	b.n	409caa <memmove+0xa6>
  409cc4:	bdf0      	pop	{r4, r5, r6, r7, pc}
  409cc6:	4672      	mov	r2, lr
  409cc8:	e7ee      	b.n	409ca8 <memmove+0xa4>
  409cca:	bf00      	nop

00409ccc <__malloc_lock>:
  409ccc:	4770      	bx	lr
  409cce:	bf00      	nop

00409cd0 <__malloc_unlock>:
  409cd0:	4770      	bx	lr
  409cd2:	bf00      	nop

00409cd4 <_Balloc>:
  409cd4:	6cc3      	ldr	r3, [r0, #76]	; 0x4c
  409cd6:	b570      	push	{r4, r5, r6, lr}
  409cd8:	4605      	mov	r5, r0
  409cda:	460c      	mov	r4, r1
  409cdc:	b14b      	cbz	r3, 409cf2 <_Balloc+0x1e>
  409cde:	f853 0024 	ldr.w	r0, [r3, r4, lsl #2]
  409ce2:	b180      	cbz	r0, 409d06 <_Balloc+0x32>
  409ce4:	6802      	ldr	r2, [r0, #0]
  409ce6:	f843 2024 	str.w	r2, [r3, r4, lsl #2]
  409cea:	2300      	movs	r3, #0
  409cec:	6103      	str	r3, [r0, #16]
  409cee:	60c3      	str	r3, [r0, #12]
  409cf0:	bd70      	pop	{r4, r5, r6, pc}
  409cf2:	2221      	movs	r2, #33	; 0x21
  409cf4:	2104      	movs	r1, #4
  409cf6:	f000 feb7 	bl	40aa68 <_calloc_r>
  409cfa:	64e8      	str	r0, [r5, #76]	; 0x4c
  409cfc:	4603      	mov	r3, r0
  409cfe:	2800      	cmp	r0, #0
  409d00:	d1ed      	bne.n	409cde <_Balloc+0xa>
  409d02:	2000      	movs	r0, #0
  409d04:	bd70      	pop	{r4, r5, r6, pc}
  409d06:	2101      	movs	r1, #1
  409d08:	fa01 f604 	lsl.w	r6, r1, r4
  409d0c:	1d72      	adds	r2, r6, #5
  409d0e:	4628      	mov	r0, r5
  409d10:	0092      	lsls	r2, r2, #2
  409d12:	f000 fea9 	bl	40aa68 <_calloc_r>
  409d16:	2800      	cmp	r0, #0
  409d18:	d0f3      	beq.n	409d02 <_Balloc+0x2e>
  409d1a:	6044      	str	r4, [r0, #4]
  409d1c:	6086      	str	r6, [r0, #8]
  409d1e:	e7e4      	b.n	409cea <_Balloc+0x16>

00409d20 <_Bfree>:
  409d20:	b131      	cbz	r1, 409d30 <_Bfree+0x10>
  409d22:	6cc3      	ldr	r3, [r0, #76]	; 0x4c
  409d24:	684a      	ldr	r2, [r1, #4]
  409d26:	f853 0022 	ldr.w	r0, [r3, r2, lsl #2]
  409d2a:	6008      	str	r0, [r1, #0]
  409d2c:	f843 1022 	str.w	r1, [r3, r2, lsl #2]
  409d30:	4770      	bx	lr
  409d32:	bf00      	nop

00409d34 <__multadd>:
  409d34:	b5f0      	push	{r4, r5, r6, r7, lr}
  409d36:	690c      	ldr	r4, [r1, #16]
  409d38:	b083      	sub	sp, #12
  409d3a:	460d      	mov	r5, r1
  409d3c:	4606      	mov	r6, r0
  409d3e:	f101 0e14 	add.w	lr, r1, #20
  409d42:	2700      	movs	r7, #0
  409d44:	f8de 0000 	ldr.w	r0, [lr]
  409d48:	b281      	uxth	r1, r0
  409d4a:	fb02 3101 	mla	r1, r2, r1, r3
  409d4e:	0c0b      	lsrs	r3, r1, #16
  409d50:	0c00      	lsrs	r0, r0, #16
  409d52:	fb02 3300 	mla	r3, r2, r0, r3
  409d56:	b289      	uxth	r1, r1
  409d58:	3701      	adds	r7, #1
  409d5a:	eb01 4103 	add.w	r1, r1, r3, lsl #16
  409d5e:	42bc      	cmp	r4, r7
  409d60:	f84e 1b04 	str.w	r1, [lr], #4
  409d64:	ea4f 4313 	mov.w	r3, r3, lsr #16
  409d68:	dcec      	bgt.n	409d44 <__multadd+0x10>
  409d6a:	b13b      	cbz	r3, 409d7c <__multadd+0x48>
  409d6c:	68aa      	ldr	r2, [r5, #8]
  409d6e:	4294      	cmp	r4, r2
  409d70:	da07      	bge.n	409d82 <__multadd+0x4e>
  409d72:	eb05 0284 	add.w	r2, r5, r4, lsl #2
  409d76:	3401      	adds	r4, #1
  409d78:	6153      	str	r3, [r2, #20]
  409d7a:	612c      	str	r4, [r5, #16]
  409d7c:	4628      	mov	r0, r5
  409d7e:	b003      	add	sp, #12
  409d80:	bdf0      	pop	{r4, r5, r6, r7, pc}
  409d82:	6869      	ldr	r1, [r5, #4]
  409d84:	9301      	str	r3, [sp, #4]
  409d86:	3101      	adds	r1, #1
  409d88:	4630      	mov	r0, r6
  409d8a:	f7ff ffa3 	bl	409cd4 <_Balloc>
  409d8e:	692a      	ldr	r2, [r5, #16]
  409d90:	3202      	adds	r2, #2
  409d92:	f105 010c 	add.w	r1, r5, #12
  409d96:	4607      	mov	r7, r0
  409d98:	0092      	lsls	r2, r2, #2
  409d9a:	300c      	adds	r0, #12
  409d9c:	f7ff fe98 	bl	409ad0 <memcpy>
  409da0:	6cf2      	ldr	r2, [r6, #76]	; 0x4c
  409da2:	6869      	ldr	r1, [r5, #4]
  409da4:	9b01      	ldr	r3, [sp, #4]
  409da6:	f852 0021 	ldr.w	r0, [r2, r1, lsl #2]
  409daa:	6028      	str	r0, [r5, #0]
  409dac:	f842 5021 	str.w	r5, [r2, r1, lsl #2]
  409db0:	463d      	mov	r5, r7
  409db2:	e7de      	b.n	409d72 <__multadd+0x3e>

00409db4 <__hi0bits>:
  409db4:	0c03      	lsrs	r3, r0, #16
  409db6:	041b      	lsls	r3, r3, #16
  409db8:	b9b3      	cbnz	r3, 409de8 <__hi0bits+0x34>
  409dba:	0400      	lsls	r0, r0, #16
  409dbc:	2310      	movs	r3, #16
  409dbe:	f010 4f7f 	tst.w	r0, #4278190080	; 0xff000000
  409dc2:	bf04      	itt	eq
  409dc4:	0200      	lsleq	r0, r0, #8
  409dc6:	3308      	addeq	r3, #8
  409dc8:	f010 4f70 	tst.w	r0, #4026531840	; 0xf0000000
  409dcc:	bf04      	itt	eq
  409dce:	0100      	lsleq	r0, r0, #4
  409dd0:	3304      	addeq	r3, #4
  409dd2:	f010 4f40 	tst.w	r0, #3221225472	; 0xc0000000
  409dd6:	bf04      	itt	eq
  409dd8:	0080      	lsleq	r0, r0, #2
  409dda:	3302      	addeq	r3, #2
  409ddc:	2800      	cmp	r0, #0
  409dde:	db07      	blt.n	409df0 <__hi0bits+0x3c>
  409de0:	0042      	lsls	r2, r0, #1
  409de2:	d403      	bmi.n	409dec <__hi0bits+0x38>
  409de4:	2020      	movs	r0, #32
  409de6:	4770      	bx	lr
  409de8:	2300      	movs	r3, #0
  409dea:	e7e8      	b.n	409dbe <__hi0bits+0xa>
  409dec:	1c58      	adds	r0, r3, #1
  409dee:	4770      	bx	lr
  409df0:	4618      	mov	r0, r3
  409df2:	4770      	bx	lr

00409df4 <__lo0bits>:
  409df4:	6803      	ldr	r3, [r0, #0]
  409df6:	f013 0207 	ands.w	r2, r3, #7
  409dfa:	d007      	beq.n	409e0c <__lo0bits+0x18>
  409dfc:	07d9      	lsls	r1, r3, #31
  409dfe:	d420      	bmi.n	409e42 <__lo0bits+0x4e>
  409e00:	079a      	lsls	r2, r3, #30
  409e02:	d420      	bmi.n	409e46 <__lo0bits+0x52>
  409e04:	089b      	lsrs	r3, r3, #2
  409e06:	6003      	str	r3, [r0, #0]
  409e08:	2002      	movs	r0, #2
  409e0a:	4770      	bx	lr
  409e0c:	b299      	uxth	r1, r3
  409e0e:	b909      	cbnz	r1, 409e14 <__lo0bits+0x20>
  409e10:	0c1b      	lsrs	r3, r3, #16
  409e12:	2210      	movs	r2, #16
  409e14:	f013 0fff 	tst.w	r3, #255	; 0xff
  409e18:	bf04      	itt	eq
  409e1a:	0a1b      	lsreq	r3, r3, #8
  409e1c:	3208      	addeq	r2, #8
  409e1e:	0719      	lsls	r1, r3, #28
  409e20:	bf04      	itt	eq
  409e22:	091b      	lsreq	r3, r3, #4
  409e24:	3204      	addeq	r2, #4
  409e26:	0799      	lsls	r1, r3, #30
  409e28:	bf04      	itt	eq
  409e2a:	089b      	lsreq	r3, r3, #2
  409e2c:	3202      	addeq	r2, #2
  409e2e:	07d9      	lsls	r1, r3, #31
  409e30:	d404      	bmi.n	409e3c <__lo0bits+0x48>
  409e32:	085b      	lsrs	r3, r3, #1
  409e34:	d101      	bne.n	409e3a <__lo0bits+0x46>
  409e36:	2020      	movs	r0, #32
  409e38:	4770      	bx	lr
  409e3a:	3201      	adds	r2, #1
  409e3c:	6003      	str	r3, [r0, #0]
  409e3e:	4610      	mov	r0, r2
  409e40:	4770      	bx	lr
  409e42:	2000      	movs	r0, #0
  409e44:	4770      	bx	lr
  409e46:	085b      	lsrs	r3, r3, #1
  409e48:	6003      	str	r3, [r0, #0]
  409e4a:	2001      	movs	r0, #1
  409e4c:	4770      	bx	lr
  409e4e:	bf00      	nop

00409e50 <__i2b>:
  409e50:	b510      	push	{r4, lr}
  409e52:	460c      	mov	r4, r1
  409e54:	2101      	movs	r1, #1
  409e56:	f7ff ff3d 	bl	409cd4 <_Balloc>
  409e5a:	2201      	movs	r2, #1
  409e5c:	6144      	str	r4, [r0, #20]
  409e5e:	6102      	str	r2, [r0, #16]
  409e60:	bd10      	pop	{r4, pc}
  409e62:	bf00      	nop

00409e64 <__multiply>:
  409e64:	e92d 4ff0 	stmdb	sp!, {r4, r5, r6, r7, r8, r9, sl, fp, lr}
  409e68:	690d      	ldr	r5, [r1, #16]
  409e6a:	6917      	ldr	r7, [r2, #16]
  409e6c:	42bd      	cmp	r5, r7
  409e6e:	b083      	sub	sp, #12
  409e70:	460c      	mov	r4, r1
  409e72:	4616      	mov	r6, r2
  409e74:	da04      	bge.n	409e80 <__multiply+0x1c>
  409e76:	462a      	mov	r2, r5
  409e78:	4634      	mov	r4, r6
  409e7a:	463d      	mov	r5, r7
  409e7c:	460e      	mov	r6, r1
  409e7e:	4617      	mov	r7, r2
  409e80:	68a3      	ldr	r3, [r4, #8]
  409e82:	6861      	ldr	r1, [r4, #4]
  409e84:	eb05 0807 	add.w	r8, r5, r7
  409e88:	4598      	cmp	r8, r3
  409e8a:	bfc8      	it	gt
  409e8c:	3101      	addgt	r1, #1
  409e8e:	f7ff ff21 	bl	409cd4 <_Balloc>
  409e92:	f100 0c14 	add.w	ip, r0, #20
  409e96:	eb0c 0988 	add.w	r9, ip, r8, lsl #2
  409e9a:	45cc      	cmp	ip, r9
  409e9c:	9000      	str	r0, [sp, #0]
  409e9e:	d205      	bcs.n	409eac <__multiply+0x48>
  409ea0:	4663      	mov	r3, ip
  409ea2:	2100      	movs	r1, #0
  409ea4:	f843 1b04 	str.w	r1, [r3], #4
  409ea8:	4599      	cmp	r9, r3
  409eaa:	d8fb      	bhi.n	409ea4 <__multiply+0x40>
  409eac:	f106 0214 	add.w	r2, r6, #20
  409eb0:	eb02 0a87 	add.w	sl, r2, r7, lsl #2
  409eb4:	f104 0314 	add.w	r3, r4, #20
  409eb8:	4552      	cmp	r2, sl
  409eba:	eb03 0e85 	add.w	lr, r3, r5, lsl #2
  409ebe:	d254      	bcs.n	409f6a <__multiply+0x106>
  409ec0:	f8cd 9004 	str.w	r9, [sp, #4]
  409ec4:	4699      	mov	r9, r3
  409ec6:	f852 3b04 	ldr.w	r3, [r2], #4
  409eca:	fa1f fb83 	uxth.w	fp, r3
  409ece:	f1bb 0f00 	cmp.w	fp, #0
  409ed2:	d020      	beq.n	409f16 <__multiply+0xb2>
  409ed4:	2000      	movs	r0, #0
  409ed6:	464f      	mov	r7, r9
  409ed8:	4666      	mov	r6, ip
  409eda:	4605      	mov	r5, r0
  409edc:	e000      	b.n	409ee0 <__multiply+0x7c>
  409ede:	461e      	mov	r6, r3
  409ee0:	f857 4b04 	ldr.w	r4, [r7], #4
  409ee4:	6830      	ldr	r0, [r6, #0]
  409ee6:	b2a1      	uxth	r1, r4
  409ee8:	b283      	uxth	r3, r0
  409eea:	fb0b 3101 	mla	r1, fp, r1, r3
  409eee:	0c24      	lsrs	r4, r4, #16
  409ef0:	0c00      	lsrs	r0, r0, #16
  409ef2:	194b      	adds	r3, r1, r5
  409ef4:	fb0b 0004 	mla	r0, fp, r4, r0
  409ef8:	eb00 4013 	add.w	r0, r0, r3, lsr #16
  409efc:	b299      	uxth	r1, r3
  409efe:	4633      	mov	r3, r6
  409f00:	ea41 4100 	orr.w	r1, r1, r0, lsl #16
  409f04:	45be      	cmp	lr, r7
  409f06:	ea4f 4510 	mov.w	r5, r0, lsr #16
  409f0a:	f843 1b04 	str.w	r1, [r3], #4
  409f0e:	d8e6      	bhi.n	409ede <__multiply+0x7a>
  409f10:	6075      	str	r5, [r6, #4]
  409f12:	f852 3c04 	ldr.w	r3, [r2, #-4]
  409f16:	ea5f 4b13 	movs.w	fp, r3, lsr #16
  409f1a:	d020      	beq.n	409f5e <__multiply+0xfa>
  409f1c:	f8dc 3000 	ldr.w	r3, [ip]
  409f20:	4667      	mov	r7, ip
  409f22:	4618      	mov	r0, r3
  409f24:	464d      	mov	r5, r9
  409f26:	2100      	movs	r1, #0
  409f28:	e000      	b.n	409f2c <__multiply+0xc8>
  409f2a:	4637      	mov	r7, r6
  409f2c:	882c      	ldrh	r4, [r5, #0]
  409f2e:	0c00      	lsrs	r0, r0, #16
  409f30:	fb0b 0004 	mla	r0, fp, r4, r0
  409f34:	4401      	add	r1, r0
  409f36:	b29c      	uxth	r4, r3
  409f38:	463e      	mov	r6, r7
  409f3a:	ea44 4301 	orr.w	r3, r4, r1, lsl #16
  409f3e:	f846 3b04 	str.w	r3, [r6], #4
  409f42:	6878      	ldr	r0, [r7, #4]
  409f44:	f855 4b04 	ldr.w	r4, [r5], #4
  409f48:	b283      	uxth	r3, r0
  409f4a:	0c24      	lsrs	r4, r4, #16
  409f4c:	fb0b 3404 	mla	r4, fp, r4, r3
  409f50:	eb04 4311 	add.w	r3, r4, r1, lsr #16
  409f54:	45ae      	cmp	lr, r5
  409f56:	ea4f 4113 	mov.w	r1, r3, lsr #16
  409f5a:	d8e6      	bhi.n	409f2a <__multiply+0xc6>
  409f5c:	607b      	str	r3, [r7, #4]
  409f5e:	4592      	cmp	sl, r2
  409f60:	f10c 0c04 	add.w	ip, ip, #4
  409f64:	d8af      	bhi.n	409ec6 <__multiply+0x62>
  409f66:	f8dd 9004 	ldr.w	r9, [sp, #4]
  409f6a:	f1b8 0f00 	cmp.w	r8, #0
  409f6e:	dd0b      	ble.n	409f88 <__multiply+0x124>
  409f70:	f859 3c04 	ldr.w	r3, [r9, #-4]
  409f74:	f1a9 0904 	sub.w	r9, r9, #4
  409f78:	b11b      	cbz	r3, 409f82 <__multiply+0x11e>
  409f7a:	e005      	b.n	409f88 <__multiply+0x124>
  409f7c:	f859 3d04 	ldr.w	r3, [r9, #-4]!
  409f80:	b913      	cbnz	r3, 409f88 <__multiply+0x124>
  409f82:	f1b8 0801 	subs.w	r8, r8, #1
  409f86:	d1f9      	bne.n	409f7c <__multiply+0x118>
  409f88:	9800      	ldr	r0, [sp, #0]
  409f8a:	f8c0 8010 	str.w	r8, [r0, #16]
  409f8e:	b003      	add	sp, #12
  409f90:	e8bd 8ff0 	ldmia.w	sp!, {r4, r5, r6, r7, r8, r9, sl, fp, pc}

00409f94 <__pow5mult>:
  409f94:	f012 0303 	ands.w	r3, r2, #3
  409f98:	e92d 41f0 	stmdb	sp!, {r4, r5, r6, r7, r8, lr}
  409f9c:	4614      	mov	r4, r2
  409f9e:	4607      	mov	r7, r0
  409fa0:	d12e      	bne.n	40a000 <__pow5mult+0x6c>
  409fa2:	460e      	mov	r6, r1
  409fa4:	10a4      	asrs	r4, r4, #2
  409fa6:	d01c      	beq.n	409fe2 <__pow5mult+0x4e>
  409fa8:	6cbd      	ldr	r5, [r7, #72]	; 0x48
  409faa:	b395      	cbz	r5, 40a012 <__pow5mult+0x7e>
  409fac:	07e3      	lsls	r3, r4, #31
  409fae:	f04f 0800 	mov.w	r8, #0
  409fb2:	d406      	bmi.n	409fc2 <__pow5mult+0x2e>
  409fb4:	1064      	asrs	r4, r4, #1
  409fb6:	d014      	beq.n	409fe2 <__pow5mult+0x4e>
  409fb8:	6828      	ldr	r0, [r5, #0]
  409fba:	b1a8      	cbz	r0, 409fe8 <__pow5mult+0x54>
  409fbc:	4605      	mov	r5, r0
  409fbe:	07e3      	lsls	r3, r4, #31
  409fc0:	d5f8      	bpl.n	409fb4 <__pow5mult+0x20>
  409fc2:	462a      	mov	r2, r5
  409fc4:	4631      	mov	r1, r6
  409fc6:	4638      	mov	r0, r7
  409fc8:	f7ff ff4c 	bl	409e64 <__multiply>
  409fcc:	b1b6      	cbz	r6, 409ffc <__pow5mult+0x68>
  409fce:	6872      	ldr	r2, [r6, #4]
  409fd0:	6cfb      	ldr	r3, [r7, #76]	; 0x4c
  409fd2:	1064      	asrs	r4, r4, #1
  409fd4:	f853 1022 	ldr.w	r1, [r3, r2, lsl #2]
  409fd8:	6031      	str	r1, [r6, #0]
  409fda:	f843 6022 	str.w	r6, [r3, r2, lsl #2]
  409fde:	4606      	mov	r6, r0
  409fe0:	d1ea      	bne.n	409fb8 <__pow5mult+0x24>
  409fe2:	4630      	mov	r0, r6
  409fe4:	e8bd 81f0 	ldmia.w	sp!, {r4, r5, r6, r7, r8, pc}
  409fe8:	462a      	mov	r2, r5
  409fea:	4629      	mov	r1, r5
  409fec:	4638      	mov	r0, r7
  409fee:	f7ff ff39 	bl	409e64 <__multiply>
  409ff2:	6028      	str	r0, [r5, #0]
  409ff4:	f8c0 8000 	str.w	r8, [r0]
  409ff8:	4605      	mov	r5, r0
  409ffa:	e7e0      	b.n	409fbe <__pow5mult+0x2a>
  409ffc:	4606      	mov	r6, r0
  409ffe:	e7d9      	b.n	409fb4 <__pow5mult+0x20>
  40a000:	1e5a      	subs	r2, r3, #1
  40a002:	4d0b      	ldr	r5, [pc, #44]	; (40a030 <__pow5mult+0x9c>)
  40a004:	2300      	movs	r3, #0
  40a006:	f855 2022 	ldr.w	r2, [r5, r2, lsl #2]
  40a00a:	f7ff fe93 	bl	409d34 <__multadd>
  40a00e:	4606      	mov	r6, r0
  40a010:	e7c8      	b.n	409fa4 <__pow5mult+0x10>
  40a012:	2101      	movs	r1, #1
  40a014:	4638      	mov	r0, r7
  40a016:	f7ff fe5d 	bl	409cd4 <_Balloc>
  40a01a:	f240 2171 	movw	r1, #625	; 0x271
  40a01e:	2201      	movs	r2, #1
  40a020:	2300      	movs	r3, #0
  40a022:	6141      	str	r1, [r0, #20]
  40a024:	6102      	str	r2, [r0, #16]
  40a026:	4605      	mov	r5, r0
  40a028:	64b8      	str	r0, [r7, #72]	; 0x48
  40a02a:	6003      	str	r3, [r0, #0]
  40a02c:	e7be      	b.n	409fac <__pow5mult+0x18>
  40a02e:	bf00      	nop
  40a030:	0040cc78 	.word	0x0040cc78

0040a034 <__lshift>:
  40a034:	e92d 47f0 	stmdb	sp!, {r4, r5, r6, r7, r8, r9, sl, lr}
  40a038:	4691      	mov	r9, r2
  40a03a:	690a      	ldr	r2, [r1, #16]
  40a03c:	688b      	ldr	r3, [r1, #8]
  40a03e:	ea4f 1469 	mov.w	r4, r9, asr #5
  40a042:	eb04 0802 	add.w	r8, r4, r2
  40a046:	f108 0501 	add.w	r5, r8, #1
  40a04a:	429d      	cmp	r5, r3
  40a04c:	460e      	mov	r6, r1
  40a04e:	4682      	mov	sl, r0
  40a050:	6849      	ldr	r1, [r1, #4]
  40a052:	dd04      	ble.n	40a05e <__lshift+0x2a>
  40a054:	005b      	lsls	r3, r3, #1
  40a056:	429d      	cmp	r5, r3
  40a058:	f101 0101 	add.w	r1, r1, #1
  40a05c:	dcfa      	bgt.n	40a054 <__lshift+0x20>
  40a05e:	4650      	mov	r0, sl
  40a060:	f7ff fe38 	bl	409cd4 <_Balloc>
  40a064:	2c00      	cmp	r4, #0
  40a066:	f100 0214 	add.w	r2, r0, #20
  40a06a:	dd38      	ble.n	40a0de <__lshift+0xaa>
  40a06c:	eb02 0384 	add.w	r3, r2, r4, lsl #2
  40a070:	2100      	movs	r1, #0
  40a072:	f842 1b04 	str.w	r1, [r2], #4
  40a076:	4293      	cmp	r3, r2
  40a078:	d1fb      	bne.n	40a072 <__lshift+0x3e>
  40a07a:	6934      	ldr	r4, [r6, #16]
  40a07c:	f106 0114 	add.w	r1, r6, #20
  40a080:	f019 091f 	ands.w	r9, r9, #31
  40a084:	eb01 0e84 	add.w	lr, r1, r4, lsl #2
  40a088:	d021      	beq.n	40a0ce <__lshift+0x9a>
  40a08a:	f1c9 0220 	rsb	r2, r9, #32
  40a08e:	2400      	movs	r4, #0
  40a090:	680f      	ldr	r7, [r1, #0]
  40a092:	fa07 fc09 	lsl.w	ip, r7, r9
  40a096:	ea4c 0404 	orr.w	r4, ip, r4
  40a09a:	469c      	mov	ip, r3
  40a09c:	f843 4b04 	str.w	r4, [r3], #4
  40a0a0:	f851 4b04 	ldr.w	r4, [r1], #4
  40a0a4:	458e      	cmp	lr, r1
  40a0a6:	fa24 f402 	lsr.w	r4, r4, r2
  40a0aa:	d8f1      	bhi.n	40a090 <__lshift+0x5c>
  40a0ac:	f8cc 4004 	str.w	r4, [ip, #4]
  40a0b0:	b10c      	cbz	r4, 40a0b6 <__lshift+0x82>
  40a0b2:	f108 0502 	add.w	r5, r8, #2
  40a0b6:	f8da 304c 	ldr.w	r3, [sl, #76]	; 0x4c
  40a0ba:	6872      	ldr	r2, [r6, #4]
  40a0bc:	3d01      	subs	r5, #1
  40a0be:	f853 1022 	ldr.w	r1, [r3, r2, lsl #2]
  40a0c2:	6105      	str	r5, [r0, #16]
  40a0c4:	6031      	str	r1, [r6, #0]
  40a0c6:	f843 6022 	str.w	r6, [r3, r2, lsl #2]
  40a0ca:	e8bd 87f0 	ldmia.w	sp!, {r4, r5, r6, r7, r8, r9, sl, pc}
  40a0ce:	3b04      	subs	r3, #4
  40a0d0:	f851 2b04 	ldr.w	r2, [r1], #4
  40a0d4:	f843 2f04 	str.w	r2, [r3, #4]!
  40a0d8:	458e      	cmp	lr, r1
  40a0da:	d8f9      	bhi.n	40a0d0 <__lshift+0x9c>
  40a0dc:	e7eb      	b.n	40a0b6 <__lshift+0x82>
  40a0de:	4613      	mov	r3, r2
  40a0e0:	e7cb      	b.n	40a07a <__lshift+0x46>
  40a0e2:	bf00      	nop

0040a0e4 <__mcmp>:
  40a0e4:	6902      	ldr	r2, [r0, #16]
  40a0e6:	690b      	ldr	r3, [r1, #16]
  40a0e8:	1ad2      	subs	r2, r2, r3
  40a0ea:	d112      	bne.n	40a112 <__mcmp+0x2e>
  40a0ec:	009b      	lsls	r3, r3, #2
  40a0ee:	3014      	adds	r0, #20
  40a0f0:	3114      	adds	r1, #20
  40a0f2:	4419      	add	r1, r3
  40a0f4:	b410      	push	{r4}
  40a0f6:	4403      	add	r3, r0
  40a0f8:	e001      	b.n	40a0fe <__mcmp+0x1a>
  40a0fa:	4298      	cmp	r0, r3
  40a0fc:	d20b      	bcs.n	40a116 <__mcmp+0x32>
  40a0fe:	f853 4d04 	ldr.w	r4, [r3, #-4]!
  40a102:	f851 2d04 	ldr.w	r2, [r1, #-4]!
  40a106:	4294      	cmp	r4, r2
  40a108:	d0f7      	beq.n	40a0fa <__mcmp+0x16>
  40a10a:	d307      	bcc.n	40a11c <__mcmp+0x38>
  40a10c:	2001      	movs	r0, #1
  40a10e:	bc10      	pop	{r4}
  40a110:	4770      	bx	lr
  40a112:	4610      	mov	r0, r2
  40a114:	4770      	bx	lr
  40a116:	2000      	movs	r0, #0
  40a118:	bc10      	pop	{r4}
  40a11a:	4770      	bx	lr
  40a11c:	f04f 30ff 	mov.w	r0, #4294967295
  40a120:	e7f5      	b.n	40a10e <__mcmp+0x2a>
  40a122:	bf00      	nop

0040a124 <__mdiff>:
  40a124:	e92d 43f8 	stmdb	sp!, {r3, r4, r5, r6, r7, r8, r9, lr}
  40a128:	690b      	ldr	r3, [r1, #16]
  40a12a:	460f      	mov	r7, r1
  40a12c:	6911      	ldr	r1, [r2, #16]
  40a12e:	1a5b      	subs	r3, r3, r1
  40a130:	2b00      	cmp	r3, #0
  40a132:	4690      	mov	r8, r2
  40a134:	d117      	bne.n	40a166 <__mdiff+0x42>
  40a136:	0089      	lsls	r1, r1, #2
  40a138:	f107 0214 	add.w	r2, r7, #20
  40a13c:	f108 0514 	add.w	r5, r8, #20
  40a140:	1853      	adds	r3, r2, r1
  40a142:	4429      	add	r1, r5
  40a144:	e001      	b.n	40a14a <__mdiff+0x26>
  40a146:	429a      	cmp	r2, r3
  40a148:	d25e      	bcs.n	40a208 <__mdiff+0xe4>
  40a14a:	f853 6d04 	ldr.w	r6, [r3, #-4]!
  40a14e:	f851 4d04 	ldr.w	r4, [r1, #-4]!
  40a152:	42a6      	cmp	r6, r4
  40a154:	d0f7      	beq.n	40a146 <__mdiff+0x22>
  40a156:	d260      	bcs.n	40a21a <__mdiff+0xf6>
  40a158:	463b      	mov	r3, r7
  40a15a:	4614      	mov	r4, r2
  40a15c:	4647      	mov	r7, r8
  40a15e:	f04f 0901 	mov.w	r9, #1
  40a162:	4698      	mov	r8, r3
  40a164:	e006      	b.n	40a174 <__mdiff+0x50>
  40a166:	db5d      	blt.n	40a224 <__mdiff+0x100>
  40a168:	f107 0514 	add.w	r5, r7, #20
  40a16c:	f102 0414 	add.w	r4, r2, #20
  40a170:	f04f 0900 	mov.w	r9, #0
  40a174:	6879      	ldr	r1, [r7, #4]
  40a176:	f7ff fdad 	bl	409cd4 <_Balloc>
  40a17a:	f8d8 3010 	ldr.w	r3, [r8, #16]
  40a17e:	693e      	ldr	r6, [r7, #16]
  40a180:	f8c0 900c 	str.w	r9, [r0, #12]
  40a184:	eb04 0c83 	add.w	ip, r4, r3, lsl #2
  40a188:	46a6      	mov	lr, r4
  40a18a:	eb05 0786 	add.w	r7, r5, r6, lsl #2
  40a18e:	f100 0414 	add.w	r4, r0, #20
  40a192:	2300      	movs	r3, #0
  40a194:	f85e 1b04 	ldr.w	r1, [lr], #4
  40a198:	f855 8b04 	ldr.w	r8, [r5], #4
  40a19c:	b28a      	uxth	r2, r1
  40a19e:	fa13 f388 	uxtah	r3, r3, r8
  40a1a2:	0c09      	lsrs	r1, r1, #16
  40a1a4:	1a9a      	subs	r2, r3, r2
  40a1a6:	ebc1 4318 	rsb	r3, r1, r8, lsr #16
  40a1aa:	eb03 4322 	add.w	r3, r3, r2, asr #16
  40a1ae:	b292      	uxth	r2, r2
  40a1b0:	ea42 4203 	orr.w	r2, r2, r3, lsl #16
  40a1b4:	45f4      	cmp	ip, lr
  40a1b6:	f844 2b04 	str.w	r2, [r4], #4
  40a1ba:	ea4f 4323 	mov.w	r3, r3, asr #16
  40a1be:	d8e9      	bhi.n	40a194 <__mdiff+0x70>
  40a1c0:	42af      	cmp	r7, r5
  40a1c2:	d917      	bls.n	40a1f4 <__mdiff+0xd0>
  40a1c4:	46a4      	mov	ip, r4
  40a1c6:	4629      	mov	r1, r5
  40a1c8:	f851 eb04 	ldr.w	lr, [r1], #4
  40a1cc:	fa13 f28e 	uxtah	r2, r3, lr
  40a1d0:	1413      	asrs	r3, r2, #16
  40a1d2:	eb03 431e 	add.w	r3, r3, lr, lsr #16
  40a1d6:	b292      	uxth	r2, r2
  40a1d8:	ea42 4203 	orr.w	r2, r2, r3, lsl #16
  40a1dc:	428f      	cmp	r7, r1
  40a1de:	f84c 2b04 	str.w	r2, [ip], #4
  40a1e2:	ea4f 4323 	mov.w	r3, r3, asr #16
  40a1e6:	d8ef      	bhi.n	40a1c8 <__mdiff+0xa4>
  40a1e8:	43ed      	mvns	r5, r5
  40a1ea:	443d      	add	r5, r7
  40a1ec:	f025 0503 	bic.w	r5, r5, #3
  40a1f0:	3504      	adds	r5, #4
  40a1f2:	442c      	add	r4, r5
  40a1f4:	3c04      	subs	r4, #4
  40a1f6:	b922      	cbnz	r2, 40a202 <__mdiff+0xde>
  40a1f8:	f854 3d04 	ldr.w	r3, [r4, #-4]!
  40a1fc:	3e01      	subs	r6, #1
  40a1fe:	2b00      	cmp	r3, #0
  40a200:	d0fa      	beq.n	40a1f8 <__mdiff+0xd4>
  40a202:	6106      	str	r6, [r0, #16]
  40a204:	e8bd 83f8 	ldmia.w	sp!, {r3, r4, r5, r6, r7, r8, r9, pc}
  40a208:	2100      	movs	r1, #0
  40a20a:	f7ff fd63 	bl	409cd4 <_Balloc>
  40a20e:	2201      	movs	r2, #1
  40a210:	2300      	movs	r3, #0
  40a212:	6102      	str	r2, [r0, #16]
  40a214:	6143      	str	r3, [r0, #20]
  40a216:	e8bd 83f8 	ldmia.w	sp!, {r3, r4, r5, r6, r7, r8, r9, pc}
  40a21a:	462c      	mov	r4, r5
  40a21c:	f04f 0900 	mov.w	r9, #0
  40a220:	4615      	mov	r5, r2
  40a222:	e7a7      	b.n	40a174 <__mdiff+0x50>
  40a224:	463b      	mov	r3, r7
  40a226:	f107 0414 	add.w	r4, r7, #20
  40a22a:	f108 0514 	add.w	r5, r8, #20
  40a22e:	4647      	mov	r7, r8
  40a230:	f04f 0901 	mov.w	r9, #1
  40a234:	4698      	mov	r8, r3
  40a236:	e79d      	b.n	40a174 <__mdiff+0x50>

0040a238 <__d2b>:
  40a238:	e92d 41f0 	stmdb	sp!, {r4, r5, r6, r7, r8, lr}
  40a23c:	b082      	sub	sp, #8
  40a23e:	2101      	movs	r1, #1
  40a240:	461c      	mov	r4, r3
  40a242:	f3c3 570a 	ubfx	r7, r3, #20, #11
  40a246:	4615      	mov	r5, r2
  40a248:	9e08      	ldr	r6, [sp, #32]
  40a24a:	f7ff fd43 	bl	409cd4 <_Balloc>
  40a24e:	f3c4 0413 	ubfx	r4, r4, #0, #20
  40a252:	4680      	mov	r8, r0
  40a254:	b10f      	cbz	r7, 40a25a <__d2b+0x22>
  40a256:	f444 1480 	orr.w	r4, r4, #1048576	; 0x100000
  40a25a:	9401      	str	r4, [sp, #4]
  40a25c:	b31d      	cbz	r5, 40a2a6 <__d2b+0x6e>
  40a25e:	a802      	add	r0, sp, #8
  40a260:	f840 5d08 	str.w	r5, [r0, #-8]!
  40a264:	f7ff fdc6 	bl	409df4 <__lo0bits>
  40a268:	2800      	cmp	r0, #0
  40a26a:	d134      	bne.n	40a2d6 <__d2b+0x9e>
  40a26c:	e89d 000c 	ldmia.w	sp, {r2, r3}
  40a270:	f8c8 2014 	str.w	r2, [r8, #20]
  40a274:	2b00      	cmp	r3, #0
  40a276:	bf0c      	ite	eq
  40a278:	2101      	moveq	r1, #1
  40a27a:	2102      	movne	r1, #2
  40a27c:	f8c8 3018 	str.w	r3, [r8, #24]
  40a280:	f8c8 1010 	str.w	r1, [r8, #16]
  40a284:	b9df      	cbnz	r7, 40a2be <__d2b+0x86>
  40a286:	eb08 0381 	add.w	r3, r8, r1, lsl #2
  40a28a:	f2a0 4032 	subw	r0, r0, #1074	; 0x432
  40a28e:	6030      	str	r0, [r6, #0]
  40a290:	6918      	ldr	r0, [r3, #16]
  40a292:	f7ff fd8f 	bl	409db4 <__hi0bits>
  40a296:	9b09      	ldr	r3, [sp, #36]	; 0x24
  40a298:	ebc0 1041 	rsb	r0, r0, r1, lsl #5
  40a29c:	6018      	str	r0, [r3, #0]
  40a29e:	4640      	mov	r0, r8
  40a2a0:	b002      	add	sp, #8
  40a2a2:	e8bd 81f0 	ldmia.w	sp!, {r4, r5, r6, r7, r8, pc}
  40a2a6:	a801      	add	r0, sp, #4
  40a2a8:	f7ff fda4 	bl	409df4 <__lo0bits>
  40a2ac:	9b01      	ldr	r3, [sp, #4]
  40a2ae:	f8c8 3014 	str.w	r3, [r8, #20]
  40a2b2:	2101      	movs	r1, #1
  40a2b4:	3020      	adds	r0, #32
  40a2b6:	f8c8 1010 	str.w	r1, [r8, #16]
  40a2ba:	2f00      	cmp	r7, #0
  40a2bc:	d0e3      	beq.n	40a286 <__d2b+0x4e>
  40a2be:	9b09      	ldr	r3, [sp, #36]	; 0x24
  40a2c0:	f2a7 4733 	subw	r7, r7, #1075	; 0x433
  40a2c4:	4407      	add	r7, r0
  40a2c6:	f1c0 0035 	rsb	r0, r0, #53	; 0x35
  40a2ca:	6037      	str	r7, [r6, #0]
  40a2cc:	6018      	str	r0, [r3, #0]
  40a2ce:	4640      	mov	r0, r8
  40a2d0:	b002      	add	sp, #8
  40a2d2:	e8bd 81f0 	ldmia.w	sp!, {r4, r5, r6, r7, r8, pc}
  40a2d6:	e89d 000c 	ldmia.w	sp, {r2, r3}
  40a2da:	f1c0 0120 	rsb	r1, r0, #32
  40a2de:	fa03 f101 	lsl.w	r1, r3, r1
  40a2e2:	430a      	orrs	r2, r1
  40a2e4:	40c3      	lsrs	r3, r0
  40a2e6:	9301      	str	r3, [sp, #4]
  40a2e8:	f8c8 2014 	str.w	r2, [r8, #20]
  40a2ec:	e7c2      	b.n	40a274 <__d2b+0x3c>
  40a2ee:	bf00      	nop

0040a2f0 <_realloc_r>:
  40a2f0:	e92d 4ff0 	stmdb	sp!, {r4, r5, r6, r7, r8, r9, sl, fp, lr}
  40a2f4:	4617      	mov	r7, r2
  40a2f6:	b083      	sub	sp, #12
  40a2f8:	2900      	cmp	r1, #0
  40a2fa:	f000 80c1 	beq.w	40a480 <_realloc_r+0x190>
  40a2fe:	460e      	mov	r6, r1
  40a300:	4681      	mov	r9, r0
  40a302:	f107 050b 	add.w	r5, r7, #11
  40a306:	f7ff fce1 	bl	409ccc <__malloc_lock>
  40a30a:	f856 ec04 	ldr.w	lr, [r6, #-4]
  40a30e:	2d16      	cmp	r5, #22
  40a310:	f02e 0403 	bic.w	r4, lr, #3
  40a314:	f1a6 0808 	sub.w	r8, r6, #8
  40a318:	d840      	bhi.n	40a39c <_realloc_r+0xac>
  40a31a:	2210      	movs	r2, #16
  40a31c:	4615      	mov	r5, r2
  40a31e:	42af      	cmp	r7, r5
  40a320:	d841      	bhi.n	40a3a6 <_realloc_r+0xb6>
  40a322:	4294      	cmp	r4, r2
  40a324:	da75      	bge.n	40a412 <_realloc_r+0x122>
  40a326:	4bc9      	ldr	r3, [pc, #804]	; (40a64c <_realloc_r+0x35c>)
  40a328:	6899      	ldr	r1, [r3, #8]
  40a32a:	eb08 0004 	add.w	r0, r8, r4
  40a32e:	4288      	cmp	r0, r1
  40a330:	6841      	ldr	r1, [r0, #4]
  40a332:	f000 80d9 	beq.w	40a4e8 <_realloc_r+0x1f8>
  40a336:	f021 0301 	bic.w	r3, r1, #1
  40a33a:	4403      	add	r3, r0
  40a33c:	685b      	ldr	r3, [r3, #4]
  40a33e:	07db      	lsls	r3, r3, #31
  40a340:	d57d      	bpl.n	40a43e <_realloc_r+0x14e>
  40a342:	f01e 0f01 	tst.w	lr, #1
  40a346:	d035      	beq.n	40a3b4 <_realloc_r+0xc4>
  40a348:	4639      	mov	r1, r7
  40a34a:	4648      	mov	r0, r9
  40a34c:	f7ff f8b8 	bl	4094c0 <_malloc_r>
  40a350:	4607      	mov	r7, r0
  40a352:	b1e0      	cbz	r0, 40a38e <_realloc_r+0x9e>
  40a354:	f856 3c04 	ldr.w	r3, [r6, #-4]
  40a358:	f023 0301 	bic.w	r3, r3, #1
  40a35c:	4443      	add	r3, r8
  40a35e:	f1a0 0208 	sub.w	r2, r0, #8
  40a362:	429a      	cmp	r2, r3
  40a364:	f000 8144 	beq.w	40a5f0 <_realloc_r+0x300>
  40a368:	1f22      	subs	r2, r4, #4
  40a36a:	2a24      	cmp	r2, #36	; 0x24
  40a36c:	f200 8131 	bhi.w	40a5d2 <_realloc_r+0x2e2>
  40a370:	2a13      	cmp	r2, #19
  40a372:	f200 8104 	bhi.w	40a57e <_realloc_r+0x28e>
  40a376:	4603      	mov	r3, r0
  40a378:	4632      	mov	r2, r6
  40a37a:	6811      	ldr	r1, [r2, #0]
  40a37c:	6019      	str	r1, [r3, #0]
  40a37e:	6851      	ldr	r1, [r2, #4]
  40a380:	6059      	str	r1, [r3, #4]
  40a382:	6892      	ldr	r2, [r2, #8]
  40a384:	609a      	str	r2, [r3, #8]
  40a386:	4631      	mov	r1, r6
  40a388:	4648      	mov	r0, r9
  40a38a:	f7fe fd7b 	bl	408e84 <_free_r>
  40a38e:	4648      	mov	r0, r9
  40a390:	f7ff fc9e 	bl	409cd0 <__malloc_unlock>
  40a394:	4638      	mov	r0, r7
  40a396:	b003      	add	sp, #12
  40a398:	e8bd 8ff0 	ldmia.w	sp!, {r4, r5, r6, r7, r8, r9, sl, fp, pc}
  40a39c:	f025 0507 	bic.w	r5, r5, #7
  40a3a0:	2d00      	cmp	r5, #0
  40a3a2:	462a      	mov	r2, r5
  40a3a4:	dabb      	bge.n	40a31e <_realloc_r+0x2e>
  40a3a6:	230c      	movs	r3, #12
  40a3a8:	2000      	movs	r0, #0
  40a3aa:	f8c9 3000 	str.w	r3, [r9]
  40a3ae:	b003      	add	sp, #12
  40a3b0:	e8bd 8ff0 	ldmia.w	sp!, {r4, r5, r6, r7, r8, r9, sl, fp, pc}
  40a3b4:	f856 3c08 	ldr.w	r3, [r6, #-8]
  40a3b8:	ebc3 0a08 	rsb	sl, r3, r8
  40a3bc:	f8da 3004 	ldr.w	r3, [sl, #4]
  40a3c0:	f023 0c03 	bic.w	ip, r3, #3
  40a3c4:	eb04 030c 	add.w	r3, r4, ip
  40a3c8:	4293      	cmp	r3, r2
  40a3ca:	dbbd      	blt.n	40a348 <_realloc_r+0x58>
  40a3cc:	4657      	mov	r7, sl
  40a3ce:	f8da 100c 	ldr.w	r1, [sl, #12]
  40a3d2:	f857 0f08 	ldr.w	r0, [r7, #8]!
  40a3d6:	1f22      	subs	r2, r4, #4
  40a3d8:	2a24      	cmp	r2, #36	; 0x24
  40a3da:	60c1      	str	r1, [r0, #12]
  40a3dc:	6088      	str	r0, [r1, #8]
  40a3de:	f200 8117 	bhi.w	40a610 <_realloc_r+0x320>
  40a3e2:	2a13      	cmp	r2, #19
  40a3e4:	f240 8112 	bls.w	40a60c <_realloc_r+0x31c>
  40a3e8:	6831      	ldr	r1, [r6, #0]
  40a3ea:	f8ca 1008 	str.w	r1, [sl, #8]
  40a3ee:	6871      	ldr	r1, [r6, #4]
  40a3f0:	f8ca 100c 	str.w	r1, [sl, #12]
  40a3f4:	2a1b      	cmp	r2, #27
  40a3f6:	f200 812b 	bhi.w	40a650 <_realloc_r+0x360>
  40a3fa:	3608      	adds	r6, #8
  40a3fc:	f10a 0210 	add.w	r2, sl, #16
  40a400:	6831      	ldr	r1, [r6, #0]
  40a402:	6011      	str	r1, [r2, #0]
  40a404:	6871      	ldr	r1, [r6, #4]
  40a406:	6051      	str	r1, [r2, #4]
  40a408:	68b1      	ldr	r1, [r6, #8]
  40a40a:	6091      	str	r1, [r2, #8]
  40a40c:	463e      	mov	r6, r7
  40a40e:	461c      	mov	r4, r3
  40a410:	46d0      	mov	r8, sl
  40a412:	1b63      	subs	r3, r4, r5
  40a414:	2b0f      	cmp	r3, #15
  40a416:	d81d      	bhi.n	40a454 <_realloc_r+0x164>
  40a418:	f8d8 3004 	ldr.w	r3, [r8, #4]
  40a41c:	f003 0301 	and.w	r3, r3, #1
  40a420:	4323      	orrs	r3, r4
  40a422:	4444      	add	r4, r8
  40a424:	f8c8 3004 	str.w	r3, [r8, #4]
  40a428:	6863      	ldr	r3, [r4, #4]
  40a42a:	f043 0301 	orr.w	r3, r3, #1
  40a42e:	6063      	str	r3, [r4, #4]
  40a430:	4648      	mov	r0, r9
  40a432:	f7ff fc4d 	bl	409cd0 <__malloc_unlock>
  40a436:	4630      	mov	r0, r6
  40a438:	b003      	add	sp, #12
  40a43a:	e8bd 8ff0 	ldmia.w	sp!, {r4, r5, r6, r7, r8, r9, sl, fp, pc}
  40a43e:	f021 0103 	bic.w	r1, r1, #3
  40a442:	4421      	add	r1, r4
  40a444:	4291      	cmp	r1, r2
  40a446:	db21      	blt.n	40a48c <_realloc_r+0x19c>
  40a448:	68c3      	ldr	r3, [r0, #12]
  40a44a:	6882      	ldr	r2, [r0, #8]
  40a44c:	460c      	mov	r4, r1
  40a44e:	60d3      	str	r3, [r2, #12]
  40a450:	609a      	str	r2, [r3, #8]
  40a452:	e7de      	b.n	40a412 <_realloc_r+0x122>
  40a454:	f8d8 2004 	ldr.w	r2, [r8, #4]
  40a458:	eb08 0105 	add.w	r1, r8, r5
  40a45c:	f002 0201 	and.w	r2, r2, #1
  40a460:	4315      	orrs	r5, r2
  40a462:	f043 0201 	orr.w	r2, r3, #1
  40a466:	440b      	add	r3, r1
  40a468:	f8c8 5004 	str.w	r5, [r8, #4]
  40a46c:	604a      	str	r2, [r1, #4]
  40a46e:	685a      	ldr	r2, [r3, #4]
  40a470:	f042 0201 	orr.w	r2, r2, #1
  40a474:	3108      	adds	r1, #8
  40a476:	605a      	str	r2, [r3, #4]
  40a478:	4648      	mov	r0, r9
  40a47a:	f7fe fd03 	bl	408e84 <_free_r>
  40a47e:	e7d7      	b.n	40a430 <_realloc_r+0x140>
  40a480:	4611      	mov	r1, r2
  40a482:	b003      	add	sp, #12
  40a484:	e8bd 4ff0 	ldmia.w	sp!, {r4, r5, r6, r7, r8, r9, sl, fp, lr}
  40a488:	f7ff b81a 	b.w	4094c0 <_malloc_r>
  40a48c:	f01e 0f01 	tst.w	lr, #1
  40a490:	f47f af5a 	bne.w	40a348 <_realloc_r+0x58>
  40a494:	f856 3c08 	ldr.w	r3, [r6, #-8]
  40a498:	ebc3 0a08 	rsb	sl, r3, r8
  40a49c:	f8da 3004 	ldr.w	r3, [sl, #4]
  40a4a0:	f023 0c03 	bic.w	ip, r3, #3
  40a4a4:	eb01 0e0c 	add.w	lr, r1, ip
  40a4a8:	4596      	cmp	lr, r2
  40a4aa:	db8b      	blt.n	40a3c4 <_realloc_r+0xd4>
  40a4ac:	68c3      	ldr	r3, [r0, #12]
  40a4ae:	6882      	ldr	r2, [r0, #8]
  40a4b0:	4657      	mov	r7, sl
  40a4b2:	60d3      	str	r3, [r2, #12]
  40a4b4:	609a      	str	r2, [r3, #8]
  40a4b6:	f857 1f08 	ldr.w	r1, [r7, #8]!
  40a4ba:	f8da 300c 	ldr.w	r3, [sl, #12]
  40a4be:	60cb      	str	r3, [r1, #12]
  40a4c0:	1f22      	subs	r2, r4, #4
  40a4c2:	2a24      	cmp	r2, #36	; 0x24
  40a4c4:	6099      	str	r1, [r3, #8]
  40a4c6:	f200 8099 	bhi.w	40a5fc <_realloc_r+0x30c>
  40a4ca:	2a13      	cmp	r2, #19
  40a4cc:	d962      	bls.n	40a594 <_realloc_r+0x2a4>
  40a4ce:	6833      	ldr	r3, [r6, #0]
  40a4d0:	f8ca 3008 	str.w	r3, [sl, #8]
  40a4d4:	6873      	ldr	r3, [r6, #4]
  40a4d6:	f8ca 300c 	str.w	r3, [sl, #12]
  40a4da:	2a1b      	cmp	r2, #27
  40a4dc:	f200 80a0 	bhi.w	40a620 <_realloc_r+0x330>
  40a4e0:	3608      	adds	r6, #8
  40a4e2:	f10a 0310 	add.w	r3, sl, #16
  40a4e6:	e056      	b.n	40a596 <_realloc_r+0x2a6>
  40a4e8:	f021 0b03 	bic.w	fp, r1, #3
  40a4ec:	44a3      	add	fp, r4
  40a4ee:	f105 0010 	add.w	r0, r5, #16
  40a4f2:	4583      	cmp	fp, r0
  40a4f4:	da59      	bge.n	40a5aa <_realloc_r+0x2ba>
  40a4f6:	f01e 0f01 	tst.w	lr, #1
  40a4fa:	f47f af25 	bne.w	40a348 <_realloc_r+0x58>
  40a4fe:	f856 1c08 	ldr.w	r1, [r6, #-8]
  40a502:	ebc1 0a08 	rsb	sl, r1, r8
  40a506:	f8da 1004 	ldr.w	r1, [sl, #4]
  40a50a:	f021 0c03 	bic.w	ip, r1, #3
  40a50e:	44e3      	add	fp, ip
  40a510:	4558      	cmp	r0, fp
  40a512:	f73f af57 	bgt.w	40a3c4 <_realloc_r+0xd4>
  40a516:	4657      	mov	r7, sl
  40a518:	f8da 100c 	ldr.w	r1, [sl, #12]
  40a51c:	f857 0f08 	ldr.w	r0, [r7, #8]!
  40a520:	1f22      	subs	r2, r4, #4
  40a522:	2a24      	cmp	r2, #36	; 0x24
  40a524:	60c1      	str	r1, [r0, #12]
  40a526:	6088      	str	r0, [r1, #8]
  40a528:	f200 80b4 	bhi.w	40a694 <_realloc_r+0x3a4>
  40a52c:	2a13      	cmp	r2, #19
  40a52e:	f240 80a5 	bls.w	40a67c <_realloc_r+0x38c>
  40a532:	6831      	ldr	r1, [r6, #0]
  40a534:	f8ca 1008 	str.w	r1, [sl, #8]
  40a538:	6871      	ldr	r1, [r6, #4]
  40a53a:	f8ca 100c 	str.w	r1, [sl, #12]
  40a53e:	2a1b      	cmp	r2, #27
  40a540:	f200 80af 	bhi.w	40a6a2 <_realloc_r+0x3b2>
  40a544:	3608      	adds	r6, #8
  40a546:	f10a 0210 	add.w	r2, sl, #16
  40a54a:	6831      	ldr	r1, [r6, #0]
  40a54c:	6011      	str	r1, [r2, #0]
  40a54e:	6871      	ldr	r1, [r6, #4]
  40a550:	6051      	str	r1, [r2, #4]
  40a552:	68b1      	ldr	r1, [r6, #8]
  40a554:	6091      	str	r1, [r2, #8]
  40a556:	eb0a 0105 	add.w	r1, sl, r5
  40a55a:	ebc5 020b 	rsb	r2, r5, fp
  40a55e:	f042 0201 	orr.w	r2, r2, #1
  40a562:	6099      	str	r1, [r3, #8]
  40a564:	604a      	str	r2, [r1, #4]
  40a566:	f8da 3004 	ldr.w	r3, [sl, #4]
  40a56a:	f003 0301 	and.w	r3, r3, #1
  40a56e:	431d      	orrs	r5, r3
  40a570:	4648      	mov	r0, r9
  40a572:	f8ca 5004 	str.w	r5, [sl, #4]
  40a576:	f7ff fbab 	bl	409cd0 <__malloc_unlock>
  40a57a:	4638      	mov	r0, r7
  40a57c:	e75c      	b.n	40a438 <_realloc_r+0x148>
  40a57e:	6833      	ldr	r3, [r6, #0]
  40a580:	6003      	str	r3, [r0, #0]
  40a582:	6873      	ldr	r3, [r6, #4]
  40a584:	6043      	str	r3, [r0, #4]
  40a586:	2a1b      	cmp	r2, #27
  40a588:	d827      	bhi.n	40a5da <_realloc_r+0x2ea>
  40a58a:	f100 0308 	add.w	r3, r0, #8
  40a58e:	f106 0208 	add.w	r2, r6, #8
  40a592:	e6f2      	b.n	40a37a <_realloc_r+0x8a>
  40a594:	463b      	mov	r3, r7
  40a596:	6832      	ldr	r2, [r6, #0]
  40a598:	601a      	str	r2, [r3, #0]
  40a59a:	6872      	ldr	r2, [r6, #4]
  40a59c:	605a      	str	r2, [r3, #4]
  40a59e:	68b2      	ldr	r2, [r6, #8]
  40a5a0:	609a      	str	r2, [r3, #8]
  40a5a2:	463e      	mov	r6, r7
  40a5a4:	4674      	mov	r4, lr
  40a5a6:	46d0      	mov	r8, sl
  40a5a8:	e733      	b.n	40a412 <_realloc_r+0x122>
  40a5aa:	eb08 0105 	add.w	r1, r8, r5
  40a5ae:	ebc5 0b0b 	rsb	fp, r5, fp
  40a5b2:	f04b 0201 	orr.w	r2, fp, #1
  40a5b6:	6099      	str	r1, [r3, #8]
  40a5b8:	604a      	str	r2, [r1, #4]
  40a5ba:	f856 3c04 	ldr.w	r3, [r6, #-4]
  40a5be:	f003 0301 	and.w	r3, r3, #1
  40a5c2:	431d      	orrs	r5, r3
  40a5c4:	4648      	mov	r0, r9
  40a5c6:	f846 5c04 	str.w	r5, [r6, #-4]
  40a5ca:	f7ff fb81 	bl	409cd0 <__malloc_unlock>
  40a5ce:	4630      	mov	r0, r6
  40a5d0:	e732      	b.n	40a438 <_realloc_r+0x148>
  40a5d2:	4631      	mov	r1, r6
  40a5d4:	f7ff fb16 	bl	409c04 <memmove>
  40a5d8:	e6d5      	b.n	40a386 <_realloc_r+0x96>
  40a5da:	68b3      	ldr	r3, [r6, #8]
  40a5dc:	6083      	str	r3, [r0, #8]
  40a5de:	68f3      	ldr	r3, [r6, #12]
  40a5e0:	60c3      	str	r3, [r0, #12]
  40a5e2:	2a24      	cmp	r2, #36	; 0x24
  40a5e4:	d028      	beq.n	40a638 <_realloc_r+0x348>
  40a5e6:	f100 0310 	add.w	r3, r0, #16
  40a5ea:	f106 0210 	add.w	r2, r6, #16
  40a5ee:	e6c4      	b.n	40a37a <_realloc_r+0x8a>
  40a5f0:	f850 3c04 	ldr.w	r3, [r0, #-4]
  40a5f4:	f023 0303 	bic.w	r3, r3, #3
  40a5f8:	441c      	add	r4, r3
  40a5fa:	e70a      	b.n	40a412 <_realloc_r+0x122>
  40a5fc:	4631      	mov	r1, r6
  40a5fe:	4638      	mov	r0, r7
  40a600:	4674      	mov	r4, lr
  40a602:	46d0      	mov	r8, sl
  40a604:	f7ff fafe 	bl	409c04 <memmove>
  40a608:	463e      	mov	r6, r7
  40a60a:	e702      	b.n	40a412 <_realloc_r+0x122>
  40a60c:	463a      	mov	r2, r7
  40a60e:	e6f7      	b.n	40a400 <_realloc_r+0x110>
  40a610:	4631      	mov	r1, r6
  40a612:	4638      	mov	r0, r7
  40a614:	461c      	mov	r4, r3
  40a616:	46d0      	mov	r8, sl
  40a618:	f7ff faf4 	bl	409c04 <memmove>
  40a61c:	463e      	mov	r6, r7
  40a61e:	e6f8      	b.n	40a412 <_realloc_r+0x122>
  40a620:	68b3      	ldr	r3, [r6, #8]
  40a622:	f8ca 3010 	str.w	r3, [sl, #16]
  40a626:	68f3      	ldr	r3, [r6, #12]
  40a628:	f8ca 3014 	str.w	r3, [sl, #20]
  40a62c:	2a24      	cmp	r2, #36	; 0x24
  40a62e:	d01b      	beq.n	40a668 <_realloc_r+0x378>
  40a630:	3610      	adds	r6, #16
  40a632:	f10a 0318 	add.w	r3, sl, #24
  40a636:	e7ae      	b.n	40a596 <_realloc_r+0x2a6>
  40a638:	6933      	ldr	r3, [r6, #16]
  40a63a:	6103      	str	r3, [r0, #16]
  40a63c:	6973      	ldr	r3, [r6, #20]
  40a63e:	6143      	str	r3, [r0, #20]
  40a640:	f106 0218 	add.w	r2, r6, #24
  40a644:	f100 0318 	add.w	r3, r0, #24
  40a648:	e697      	b.n	40a37a <_realloc_r+0x8a>
  40a64a:	bf00      	nop
  40a64c:	204004d0 	.word	0x204004d0
  40a650:	68b1      	ldr	r1, [r6, #8]
  40a652:	f8ca 1010 	str.w	r1, [sl, #16]
  40a656:	68f1      	ldr	r1, [r6, #12]
  40a658:	f8ca 1014 	str.w	r1, [sl, #20]
  40a65c:	2a24      	cmp	r2, #36	; 0x24
  40a65e:	d00f      	beq.n	40a680 <_realloc_r+0x390>
  40a660:	3610      	adds	r6, #16
  40a662:	f10a 0218 	add.w	r2, sl, #24
  40a666:	e6cb      	b.n	40a400 <_realloc_r+0x110>
  40a668:	6933      	ldr	r3, [r6, #16]
  40a66a:	f8ca 3018 	str.w	r3, [sl, #24]
  40a66e:	6973      	ldr	r3, [r6, #20]
  40a670:	f8ca 301c 	str.w	r3, [sl, #28]
  40a674:	3618      	adds	r6, #24
  40a676:	f10a 0320 	add.w	r3, sl, #32
  40a67a:	e78c      	b.n	40a596 <_realloc_r+0x2a6>
  40a67c:	463a      	mov	r2, r7
  40a67e:	e764      	b.n	40a54a <_realloc_r+0x25a>
  40a680:	6932      	ldr	r2, [r6, #16]
  40a682:	f8ca 2018 	str.w	r2, [sl, #24]
  40a686:	6972      	ldr	r2, [r6, #20]
  40a688:	f8ca 201c 	str.w	r2, [sl, #28]
  40a68c:	3618      	adds	r6, #24
  40a68e:	f10a 0220 	add.w	r2, sl, #32
  40a692:	e6b5      	b.n	40a400 <_realloc_r+0x110>
  40a694:	4631      	mov	r1, r6
  40a696:	4638      	mov	r0, r7
  40a698:	9301      	str	r3, [sp, #4]
  40a69a:	f7ff fab3 	bl	409c04 <memmove>
  40a69e:	9b01      	ldr	r3, [sp, #4]
  40a6a0:	e759      	b.n	40a556 <_realloc_r+0x266>
  40a6a2:	68b1      	ldr	r1, [r6, #8]
  40a6a4:	f8ca 1010 	str.w	r1, [sl, #16]
  40a6a8:	68f1      	ldr	r1, [r6, #12]
  40a6aa:	f8ca 1014 	str.w	r1, [sl, #20]
  40a6ae:	2a24      	cmp	r2, #36	; 0x24
  40a6b0:	d003      	beq.n	40a6ba <_realloc_r+0x3ca>
  40a6b2:	3610      	adds	r6, #16
  40a6b4:	f10a 0218 	add.w	r2, sl, #24
  40a6b8:	e747      	b.n	40a54a <_realloc_r+0x25a>
  40a6ba:	6932      	ldr	r2, [r6, #16]
  40a6bc:	f8ca 2018 	str.w	r2, [sl, #24]
  40a6c0:	6972      	ldr	r2, [r6, #20]
  40a6c2:	f8ca 201c 	str.w	r2, [sl, #28]
  40a6c6:	3618      	adds	r6, #24
  40a6c8:	f10a 0220 	add.w	r2, sl, #32
  40a6cc:	e73d      	b.n	40a54a <_realloc_r+0x25a>
  40a6ce:	bf00      	nop

0040a6d0 <_sbrk_r>:
  40a6d0:	b538      	push	{r3, r4, r5, lr}
  40a6d2:	4c07      	ldr	r4, [pc, #28]	; (40a6f0 <_sbrk_r+0x20>)
  40a6d4:	2300      	movs	r3, #0
  40a6d6:	4605      	mov	r5, r0
  40a6d8:	4608      	mov	r0, r1
  40a6da:	6023      	str	r3, [r4, #0]
  40a6dc:	f7fa fa2c 	bl	404b38 <_sbrk>
  40a6e0:	1c43      	adds	r3, r0, #1
  40a6e2:	d000      	beq.n	40a6e6 <_sbrk_r+0x16>
  40a6e4:	bd38      	pop	{r3, r4, r5, pc}
  40a6e6:	6823      	ldr	r3, [r4, #0]
  40a6e8:	2b00      	cmp	r3, #0
  40a6ea:	d0fb      	beq.n	40a6e4 <_sbrk_r+0x14>
  40a6ec:	602b      	str	r3, [r5, #0]
  40a6ee:	bd38      	pop	{r3, r4, r5, pc}
  40a6f0:	20401640 	.word	0x20401640

0040a6f4 <__sread>:
  40a6f4:	b510      	push	{r4, lr}
  40a6f6:	460c      	mov	r4, r1
  40a6f8:	f9b1 100e 	ldrsh.w	r1, [r1, #14]
  40a6fc:	f000 fa74 	bl	40abe8 <_read_r>
  40a700:	2800      	cmp	r0, #0
  40a702:	db03      	blt.n	40a70c <__sread+0x18>
  40a704:	6d23      	ldr	r3, [r4, #80]	; 0x50
  40a706:	4403      	add	r3, r0
  40a708:	6523      	str	r3, [r4, #80]	; 0x50
  40a70a:	bd10      	pop	{r4, pc}
  40a70c:	89a3      	ldrh	r3, [r4, #12]
  40a70e:	f423 5380 	bic.w	r3, r3, #4096	; 0x1000
  40a712:	81a3      	strh	r3, [r4, #12]
  40a714:	bd10      	pop	{r4, pc}
  40a716:	bf00      	nop

0040a718 <__swrite>:
  40a718:	e92d 41f0 	stmdb	sp!, {r4, r5, r6, r7, r8, lr}
  40a71c:	4616      	mov	r6, r2
  40a71e:	f9b1 200c 	ldrsh.w	r2, [r1, #12]
  40a722:	461f      	mov	r7, r3
  40a724:	05d3      	lsls	r3, r2, #23
  40a726:	460c      	mov	r4, r1
  40a728:	4605      	mov	r5, r0
  40a72a:	d507      	bpl.n	40a73c <__swrite+0x24>
  40a72c:	2200      	movs	r2, #0
  40a72e:	2302      	movs	r3, #2
  40a730:	f9b1 100e 	ldrsh.w	r1, [r1, #14]
  40a734:	f000 fa42 	bl	40abbc <_lseek_r>
  40a738:	f9b4 200c 	ldrsh.w	r2, [r4, #12]
  40a73c:	f9b4 100e 	ldrsh.w	r1, [r4, #14]
  40a740:	f422 5280 	bic.w	r2, r2, #4096	; 0x1000
  40a744:	81a2      	strh	r2, [r4, #12]
  40a746:	463b      	mov	r3, r7
  40a748:	4632      	mov	r2, r6
  40a74a:	4628      	mov	r0, r5
  40a74c:	e8bd 41f0 	ldmia.w	sp!, {r4, r5, r6, r7, r8, lr}
  40a750:	f000 b922 	b.w	40a998 <_write_r>

0040a754 <__sseek>:
  40a754:	b510      	push	{r4, lr}
  40a756:	460c      	mov	r4, r1
  40a758:	f9b1 100e 	ldrsh.w	r1, [r1, #14]
  40a75c:	f000 fa2e 	bl	40abbc <_lseek_r>
  40a760:	89a3      	ldrh	r3, [r4, #12]
  40a762:	1c42      	adds	r2, r0, #1
  40a764:	bf0e      	itee	eq
  40a766:	f423 5380 	biceq.w	r3, r3, #4096	; 0x1000
  40a76a:	f443 5380 	orrne.w	r3, r3, #4096	; 0x1000
  40a76e:	6520      	strne	r0, [r4, #80]	; 0x50
  40a770:	81a3      	strh	r3, [r4, #12]
  40a772:	bd10      	pop	{r4, pc}

0040a774 <__sclose>:
  40a774:	f9b1 100e 	ldrsh.w	r1, [r1, #14]
  40a778:	f000 b9a6 	b.w	40aac8 <_close_r>

0040a77c <__ssprint_r>:
  40a77c:	e92d 4ff0 	stmdb	sp!, {r4, r5, r6, r7, r8, r9, sl, fp, lr}
  40a780:	6893      	ldr	r3, [r2, #8]
  40a782:	b083      	sub	sp, #12
  40a784:	4690      	mov	r8, r2
  40a786:	2b00      	cmp	r3, #0
  40a788:	d072      	beq.n	40a870 <__ssprint_r+0xf4>
  40a78a:	4683      	mov	fp, r0
  40a78c:	f04f 0900 	mov.w	r9, #0
  40a790:	6816      	ldr	r6, [r2, #0]
  40a792:	6808      	ldr	r0, [r1, #0]
  40a794:	688b      	ldr	r3, [r1, #8]
  40a796:	460d      	mov	r5, r1
  40a798:	464c      	mov	r4, r9
  40a79a:	2c00      	cmp	r4, #0
  40a79c:	d045      	beq.n	40a82a <__ssprint_r+0xae>
  40a79e:	429c      	cmp	r4, r3
  40a7a0:	461f      	mov	r7, r3
  40a7a2:	469a      	mov	sl, r3
  40a7a4:	d346      	bcc.n	40a834 <__ssprint_r+0xb8>
  40a7a6:	89ab      	ldrh	r3, [r5, #12]
  40a7a8:	f413 6f90 	tst.w	r3, #1152	; 0x480
  40a7ac:	d02d      	beq.n	40a80a <__ssprint_r+0x8e>
  40a7ae:	696f      	ldr	r7, [r5, #20]
  40a7b0:	6929      	ldr	r1, [r5, #16]
  40a7b2:	eb07 0747 	add.w	r7, r7, r7, lsl #1
  40a7b6:	ebc1 0a00 	rsb	sl, r1, r0
  40a7ba:	eb07 77d7 	add.w	r7, r7, r7, lsr #31
  40a7be:	1c60      	adds	r0, r4, #1
  40a7c0:	107f      	asrs	r7, r7, #1
  40a7c2:	4450      	add	r0, sl
  40a7c4:	42b8      	cmp	r0, r7
  40a7c6:	463a      	mov	r2, r7
  40a7c8:	bf84      	itt	hi
  40a7ca:	4607      	movhi	r7, r0
  40a7cc:	463a      	movhi	r2, r7
  40a7ce:	055b      	lsls	r3, r3, #21
  40a7d0:	d533      	bpl.n	40a83a <__ssprint_r+0xbe>
  40a7d2:	4611      	mov	r1, r2
  40a7d4:	4658      	mov	r0, fp
  40a7d6:	f7fe fe73 	bl	4094c0 <_malloc_r>
  40a7da:	2800      	cmp	r0, #0
  40a7dc:	d037      	beq.n	40a84e <__ssprint_r+0xd2>
  40a7de:	4652      	mov	r2, sl
  40a7e0:	6929      	ldr	r1, [r5, #16]
  40a7e2:	9001      	str	r0, [sp, #4]
  40a7e4:	f7ff f974 	bl	409ad0 <memcpy>
  40a7e8:	89aa      	ldrh	r2, [r5, #12]
  40a7ea:	9b01      	ldr	r3, [sp, #4]
  40a7ec:	f422 6290 	bic.w	r2, r2, #1152	; 0x480
  40a7f0:	f042 0280 	orr.w	r2, r2, #128	; 0x80
  40a7f4:	81aa      	strh	r2, [r5, #12]
  40a7f6:	ebca 0207 	rsb	r2, sl, r7
  40a7fa:	eb03 000a 	add.w	r0, r3, sl
  40a7fe:	616f      	str	r7, [r5, #20]
  40a800:	612b      	str	r3, [r5, #16]
  40a802:	6028      	str	r0, [r5, #0]
  40a804:	60aa      	str	r2, [r5, #8]
  40a806:	4627      	mov	r7, r4
  40a808:	46a2      	mov	sl, r4
  40a80a:	4652      	mov	r2, sl
  40a80c:	4649      	mov	r1, r9
  40a80e:	f7ff f9f9 	bl	409c04 <memmove>
  40a812:	f8d8 2008 	ldr.w	r2, [r8, #8]
  40a816:	68ab      	ldr	r3, [r5, #8]
  40a818:	6828      	ldr	r0, [r5, #0]
  40a81a:	1bdb      	subs	r3, r3, r7
  40a81c:	4450      	add	r0, sl
  40a81e:	1b14      	subs	r4, r2, r4
  40a820:	60ab      	str	r3, [r5, #8]
  40a822:	6028      	str	r0, [r5, #0]
  40a824:	f8c8 4008 	str.w	r4, [r8, #8]
  40a828:	b314      	cbz	r4, 40a870 <__ssprint_r+0xf4>
  40a82a:	f8d6 9000 	ldr.w	r9, [r6]
  40a82e:	6874      	ldr	r4, [r6, #4]
  40a830:	3608      	adds	r6, #8
  40a832:	e7b2      	b.n	40a79a <__ssprint_r+0x1e>
  40a834:	4627      	mov	r7, r4
  40a836:	46a2      	mov	sl, r4
  40a838:	e7e7      	b.n	40a80a <__ssprint_r+0x8e>
  40a83a:	4658      	mov	r0, fp
  40a83c:	f7ff fd58 	bl	40a2f0 <_realloc_r>
  40a840:	4603      	mov	r3, r0
  40a842:	2800      	cmp	r0, #0
  40a844:	d1d7      	bne.n	40a7f6 <__ssprint_r+0x7a>
  40a846:	6929      	ldr	r1, [r5, #16]
  40a848:	4658      	mov	r0, fp
  40a84a:	f7fe fb1b 	bl	408e84 <_free_r>
  40a84e:	230c      	movs	r3, #12
  40a850:	f8cb 3000 	str.w	r3, [fp]
  40a854:	89ab      	ldrh	r3, [r5, #12]
  40a856:	2200      	movs	r2, #0
  40a858:	f043 0340 	orr.w	r3, r3, #64	; 0x40
  40a85c:	f04f 30ff 	mov.w	r0, #4294967295
  40a860:	81ab      	strh	r3, [r5, #12]
  40a862:	f8c8 2008 	str.w	r2, [r8, #8]
  40a866:	f8c8 2004 	str.w	r2, [r8, #4]
  40a86a:	b003      	add	sp, #12
  40a86c:	e8bd 8ff0 	ldmia.w	sp!, {r4, r5, r6, r7, r8, r9, sl, fp, pc}
  40a870:	2000      	movs	r0, #0
  40a872:	f8c8 0004 	str.w	r0, [r8, #4]
  40a876:	b003      	add	sp, #12
  40a878:	e8bd 8ff0 	ldmia.w	sp!, {r4, r5, r6, r7, r8, r9, sl, fp, pc}

0040a87c <__swbuf_r>:
  40a87c:	b5f8      	push	{r3, r4, r5, r6, r7, lr}
  40a87e:	460e      	mov	r6, r1
  40a880:	4614      	mov	r4, r2
  40a882:	4607      	mov	r7, r0
  40a884:	b110      	cbz	r0, 40a88c <__swbuf_r+0x10>
  40a886:	6b83      	ldr	r3, [r0, #56]	; 0x38
  40a888:	2b00      	cmp	r3, #0
  40a88a:	d04a      	beq.n	40a922 <__swbuf_r+0xa6>
  40a88c:	f9b4 200c 	ldrsh.w	r2, [r4, #12]
  40a890:	69a3      	ldr	r3, [r4, #24]
  40a892:	60a3      	str	r3, [r4, #8]
  40a894:	b291      	uxth	r1, r2
  40a896:	0708      	lsls	r0, r1, #28
  40a898:	d538      	bpl.n	40a90c <__swbuf_r+0x90>
  40a89a:	6923      	ldr	r3, [r4, #16]
  40a89c:	2b00      	cmp	r3, #0
  40a89e:	d035      	beq.n	40a90c <__swbuf_r+0x90>
  40a8a0:	0489      	lsls	r1, r1, #18
  40a8a2:	b2f5      	uxtb	r5, r6
  40a8a4:	d515      	bpl.n	40a8d2 <__swbuf_r+0x56>
  40a8a6:	6822      	ldr	r2, [r4, #0]
  40a8a8:	6961      	ldr	r1, [r4, #20]
  40a8aa:	1ad3      	subs	r3, r2, r3
  40a8ac:	428b      	cmp	r3, r1
  40a8ae:	da1c      	bge.n	40a8ea <__swbuf_r+0x6e>
  40a8b0:	3301      	adds	r3, #1
  40a8b2:	68a1      	ldr	r1, [r4, #8]
  40a8b4:	1c50      	adds	r0, r2, #1
  40a8b6:	3901      	subs	r1, #1
  40a8b8:	60a1      	str	r1, [r4, #8]
  40a8ba:	6020      	str	r0, [r4, #0]
  40a8bc:	7016      	strb	r6, [r2, #0]
  40a8be:	6962      	ldr	r2, [r4, #20]
  40a8c0:	429a      	cmp	r2, r3
  40a8c2:	d01a      	beq.n	40a8fa <__swbuf_r+0x7e>
  40a8c4:	89a3      	ldrh	r3, [r4, #12]
  40a8c6:	07db      	lsls	r3, r3, #31
  40a8c8:	d501      	bpl.n	40a8ce <__swbuf_r+0x52>
  40a8ca:	2d0a      	cmp	r5, #10
  40a8cc:	d015      	beq.n	40a8fa <__swbuf_r+0x7e>
  40a8ce:	4628      	mov	r0, r5
  40a8d0:	bdf8      	pop	{r3, r4, r5, r6, r7, pc}
  40a8d2:	6e61      	ldr	r1, [r4, #100]	; 0x64
  40a8d4:	f442 5200 	orr.w	r2, r2, #8192	; 0x2000
  40a8d8:	f421 5100 	bic.w	r1, r1, #8192	; 0x2000
  40a8dc:	81a2      	strh	r2, [r4, #12]
  40a8de:	6822      	ldr	r2, [r4, #0]
  40a8e0:	6661      	str	r1, [r4, #100]	; 0x64
  40a8e2:	6961      	ldr	r1, [r4, #20]
  40a8e4:	1ad3      	subs	r3, r2, r3
  40a8e6:	428b      	cmp	r3, r1
  40a8e8:	dbe2      	blt.n	40a8b0 <__swbuf_r+0x34>
  40a8ea:	4621      	mov	r1, r4
  40a8ec:	4638      	mov	r0, r7
  40a8ee:	f7fe f96b 	bl	408bc8 <_fflush_r>
  40a8f2:	b940      	cbnz	r0, 40a906 <__swbuf_r+0x8a>
  40a8f4:	6822      	ldr	r2, [r4, #0]
  40a8f6:	2301      	movs	r3, #1
  40a8f8:	e7db      	b.n	40a8b2 <__swbuf_r+0x36>
  40a8fa:	4621      	mov	r1, r4
  40a8fc:	4638      	mov	r0, r7
  40a8fe:	f7fe f963 	bl	408bc8 <_fflush_r>
  40a902:	2800      	cmp	r0, #0
  40a904:	d0e3      	beq.n	40a8ce <__swbuf_r+0x52>
  40a906:	f04f 30ff 	mov.w	r0, #4294967295
  40a90a:	bdf8      	pop	{r3, r4, r5, r6, r7, pc}
  40a90c:	4621      	mov	r1, r4
  40a90e:	4638      	mov	r0, r7
  40a910:	f7fd f882 	bl	407a18 <__swsetup_r>
  40a914:	2800      	cmp	r0, #0
  40a916:	d1f6      	bne.n	40a906 <__swbuf_r+0x8a>
  40a918:	f9b4 200c 	ldrsh.w	r2, [r4, #12]
  40a91c:	6923      	ldr	r3, [r4, #16]
  40a91e:	b291      	uxth	r1, r2
  40a920:	e7be      	b.n	40a8a0 <__swbuf_r+0x24>
  40a922:	f7fe f9e5 	bl	408cf0 <__sinit>
  40a926:	e7b1      	b.n	40a88c <__swbuf_r+0x10>

0040a928 <_wcrtomb_r>:
  40a928:	e92d 41f0 	stmdb	sp!, {r4, r5, r6, r7, r8, lr}
  40a92c:	4605      	mov	r5, r0
  40a92e:	b086      	sub	sp, #24
  40a930:	461e      	mov	r6, r3
  40a932:	460c      	mov	r4, r1
  40a934:	b1a1      	cbz	r1, 40a960 <_wcrtomb_r+0x38>
  40a936:	4b10      	ldr	r3, [pc, #64]	; (40a978 <_wcrtomb_r+0x50>)
  40a938:	4617      	mov	r7, r2
  40a93a:	f8d3 8000 	ldr.w	r8, [r3]
  40a93e:	f7fe fd35 	bl	4093ac <__locale_charset>
  40a942:	9600      	str	r6, [sp, #0]
  40a944:	4603      	mov	r3, r0
  40a946:	463a      	mov	r2, r7
  40a948:	4621      	mov	r1, r4
  40a94a:	4628      	mov	r0, r5
  40a94c:	47c0      	blx	r8
  40a94e:	1c43      	adds	r3, r0, #1
  40a950:	d103      	bne.n	40a95a <_wcrtomb_r+0x32>
  40a952:	2200      	movs	r2, #0
  40a954:	238a      	movs	r3, #138	; 0x8a
  40a956:	6032      	str	r2, [r6, #0]
  40a958:	602b      	str	r3, [r5, #0]
  40a95a:	b006      	add	sp, #24
  40a95c:	e8bd 81f0 	ldmia.w	sp!, {r4, r5, r6, r7, r8, pc}
  40a960:	4b05      	ldr	r3, [pc, #20]	; (40a978 <_wcrtomb_r+0x50>)
  40a962:	681f      	ldr	r7, [r3, #0]
  40a964:	f7fe fd22 	bl	4093ac <__locale_charset>
  40a968:	9600      	str	r6, [sp, #0]
  40a96a:	4603      	mov	r3, r0
  40a96c:	4622      	mov	r2, r4
  40a96e:	a903      	add	r1, sp, #12
  40a970:	4628      	mov	r0, r5
  40a972:	47b8      	blx	r7
  40a974:	e7eb      	b.n	40a94e <_wcrtomb_r+0x26>
  40a976:	bf00      	nop
  40a978:	204008e0 	.word	0x204008e0

0040a97c <__ascii_wctomb>:
  40a97c:	b121      	cbz	r1, 40a988 <__ascii_wctomb+0xc>
  40a97e:	2aff      	cmp	r2, #255	; 0xff
  40a980:	d804      	bhi.n	40a98c <__ascii_wctomb+0x10>
  40a982:	700a      	strb	r2, [r1, #0]
  40a984:	2001      	movs	r0, #1
  40a986:	4770      	bx	lr
  40a988:	4608      	mov	r0, r1
  40a98a:	4770      	bx	lr
  40a98c:	238a      	movs	r3, #138	; 0x8a
  40a98e:	6003      	str	r3, [r0, #0]
  40a990:	f04f 30ff 	mov.w	r0, #4294967295
  40a994:	4770      	bx	lr
  40a996:	bf00      	nop

0040a998 <_write_r>:
  40a998:	b570      	push	{r4, r5, r6, lr}
  40a99a:	460d      	mov	r5, r1
  40a99c:	4c08      	ldr	r4, [pc, #32]	; (40a9c0 <_write_r+0x28>)
  40a99e:	4611      	mov	r1, r2
  40a9a0:	4606      	mov	r6, r0
  40a9a2:	461a      	mov	r2, r3
  40a9a4:	4628      	mov	r0, r5
  40a9a6:	2300      	movs	r3, #0
  40a9a8:	6023      	str	r3, [r4, #0]
  40a9aa:	f7f9 f96f 	bl	403c8c <_write>
  40a9ae:	1c43      	adds	r3, r0, #1
  40a9b0:	d000      	beq.n	40a9b4 <_write_r+0x1c>
  40a9b2:	bd70      	pop	{r4, r5, r6, pc}
  40a9b4:	6823      	ldr	r3, [r4, #0]
  40a9b6:	2b00      	cmp	r3, #0
  40a9b8:	d0fb      	beq.n	40a9b2 <_write_r+0x1a>
  40a9ba:	6033      	str	r3, [r6, #0]
  40a9bc:	bd70      	pop	{r4, r5, r6, pc}
  40a9be:	bf00      	nop
  40a9c0:	20401640 	.word	0x20401640

0040a9c4 <__register_exitproc>:
  40a9c4:	e92d 47f0 	stmdb	sp!, {r4, r5, r6, r7, r8, r9, sl, lr}
  40a9c8:	4c25      	ldr	r4, [pc, #148]	; (40aa60 <__register_exitproc+0x9c>)
  40a9ca:	6825      	ldr	r5, [r4, #0]
  40a9cc:	f8d5 4148 	ldr.w	r4, [r5, #328]	; 0x148
  40a9d0:	4606      	mov	r6, r0
  40a9d2:	4688      	mov	r8, r1
  40a9d4:	4692      	mov	sl, r2
  40a9d6:	4699      	mov	r9, r3
  40a9d8:	b3c4      	cbz	r4, 40aa4c <__register_exitproc+0x88>
  40a9da:	6860      	ldr	r0, [r4, #4]
  40a9dc:	281f      	cmp	r0, #31
  40a9de:	dc17      	bgt.n	40aa10 <__register_exitproc+0x4c>
  40a9e0:	1c43      	adds	r3, r0, #1
  40a9e2:	b176      	cbz	r6, 40aa02 <__register_exitproc+0x3e>
  40a9e4:	eb04 0580 	add.w	r5, r4, r0, lsl #2
  40a9e8:	2201      	movs	r2, #1
  40a9ea:	f8c5 a088 	str.w	sl, [r5, #136]	; 0x88
  40a9ee:	f8d4 1188 	ldr.w	r1, [r4, #392]	; 0x188
  40a9f2:	4082      	lsls	r2, r0
  40a9f4:	4311      	orrs	r1, r2
  40a9f6:	2e02      	cmp	r6, #2
  40a9f8:	f8c4 1188 	str.w	r1, [r4, #392]	; 0x188
  40a9fc:	f8c5 9108 	str.w	r9, [r5, #264]	; 0x108
  40aa00:	d01e      	beq.n	40aa40 <__register_exitproc+0x7c>
  40aa02:	3002      	adds	r0, #2
  40aa04:	6063      	str	r3, [r4, #4]
  40aa06:	f844 8020 	str.w	r8, [r4, r0, lsl #2]
  40aa0a:	2000      	movs	r0, #0
  40aa0c:	e8bd 87f0 	ldmia.w	sp!, {r4, r5, r6, r7, r8, r9, sl, pc}
  40aa10:	4b14      	ldr	r3, [pc, #80]	; (40aa64 <__register_exitproc+0xa0>)
  40aa12:	b303      	cbz	r3, 40aa56 <__register_exitproc+0x92>
  40aa14:	f44f 70c8 	mov.w	r0, #400	; 0x190
  40aa18:	f7fe fd4a 	bl	4094b0 <malloc>
  40aa1c:	4604      	mov	r4, r0
  40aa1e:	b1d0      	cbz	r0, 40aa56 <__register_exitproc+0x92>
  40aa20:	f8d5 3148 	ldr.w	r3, [r5, #328]	; 0x148
  40aa24:	2700      	movs	r7, #0
  40aa26:	e880 0088 	stmia.w	r0, {r3, r7}
  40aa2a:	f8c5 4148 	str.w	r4, [r5, #328]	; 0x148
  40aa2e:	4638      	mov	r0, r7
  40aa30:	2301      	movs	r3, #1
  40aa32:	f8c4 7188 	str.w	r7, [r4, #392]	; 0x188
  40aa36:	f8c4 718c 	str.w	r7, [r4, #396]	; 0x18c
  40aa3a:	2e00      	cmp	r6, #0
  40aa3c:	d0e1      	beq.n	40aa02 <__register_exitproc+0x3e>
  40aa3e:	e7d1      	b.n	40a9e4 <__register_exitproc+0x20>
  40aa40:	f8d4 118c 	ldr.w	r1, [r4, #396]	; 0x18c
  40aa44:	430a      	orrs	r2, r1
  40aa46:	f8c4 218c 	str.w	r2, [r4, #396]	; 0x18c
  40aa4a:	e7da      	b.n	40aa02 <__register_exitproc+0x3e>
  40aa4c:	f505 74a6 	add.w	r4, r5, #332	; 0x14c
  40aa50:	f8c5 4148 	str.w	r4, [r5, #328]	; 0x148
  40aa54:	e7c1      	b.n	40a9da <__register_exitproc+0x16>
  40aa56:	f04f 30ff 	mov.w	r0, #4294967295
  40aa5a:	e8bd 87f0 	ldmia.w	sp!, {r4, r5, r6, r7, r8, r9, sl, pc}
  40aa5e:	bf00      	nop
  40aa60:	0040cae4 	.word	0x0040cae4
  40aa64:	004094b1 	.word	0x004094b1

0040aa68 <_calloc_r>:
  40aa68:	b510      	push	{r4, lr}
  40aa6a:	fb02 f101 	mul.w	r1, r2, r1
  40aa6e:	f7fe fd27 	bl	4094c0 <_malloc_r>
  40aa72:	4604      	mov	r4, r0
  40aa74:	b1d8      	cbz	r0, 40aaae <_calloc_r+0x46>
  40aa76:	f850 2c04 	ldr.w	r2, [r0, #-4]
  40aa7a:	f022 0203 	bic.w	r2, r2, #3
  40aa7e:	3a04      	subs	r2, #4
  40aa80:	2a24      	cmp	r2, #36	; 0x24
  40aa82:	d818      	bhi.n	40aab6 <_calloc_r+0x4e>
  40aa84:	2a13      	cmp	r2, #19
  40aa86:	d914      	bls.n	40aab2 <_calloc_r+0x4a>
  40aa88:	2300      	movs	r3, #0
  40aa8a:	2a1b      	cmp	r2, #27
  40aa8c:	6003      	str	r3, [r0, #0]
  40aa8e:	6043      	str	r3, [r0, #4]
  40aa90:	d916      	bls.n	40aac0 <_calloc_r+0x58>
  40aa92:	2a24      	cmp	r2, #36	; 0x24
  40aa94:	6083      	str	r3, [r0, #8]
  40aa96:	60c3      	str	r3, [r0, #12]
  40aa98:	bf11      	iteee	ne
  40aa9a:	f100 0210 	addne.w	r2, r0, #16
  40aa9e:	6103      	streq	r3, [r0, #16]
  40aaa0:	6143      	streq	r3, [r0, #20]
  40aaa2:	f100 0218 	addeq.w	r2, r0, #24
  40aaa6:	2300      	movs	r3, #0
  40aaa8:	6013      	str	r3, [r2, #0]
  40aaaa:	6053      	str	r3, [r2, #4]
  40aaac:	6093      	str	r3, [r2, #8]
  40aaae:	4620      	mov	r0, r4
  40aab0:	bd10      	pop	{r4, pc}
  40aab2:	4602      	mov	r2, r0
  40aab4:	e7f7      	b.n	40aaa6 <_calloc_r+0x3e>
  40aab6:	2100      	movs	r1, #0
  40aab8:	f7fa fb50 	bl	40515c <memset>
  40aabc:	4620      	mov	r0, r4
  40aabe:	bd10      	pop	{r4, pc}
  40aac0:	f100 0208 	add.w	r2, r0, #8
  40aac4:	e7ef      	b.n	40aaa6 <_calloc_r+0x3e>
  40aac6:	bf00      	nop

0040aac8 <_close_r>:
  40aac8:	b538      	push	{r3, r4, r5, lr}
  40aaca:	4c07      	ldr	r4, [pc, #28]	; (40aae8 <_close_r+0x20>)
  40aacc:	2300      	movs	r3, #0
  40aace:	4605      	mov	r5, r0
  40aad0:	4608      	mov	r0, r1
  40aad2:	6023      	str	r3, [r4, #0]
  40aad4:	f7fa f84a 	bl	404b6c <_close>
  40aad8:	1c43      	adds	r3, r0, #1
  40aada:	d000      	beq.n	40aade <_close_r+0x16>
  40aadc:	bd38      	pop	{r3, r4, r5, pc}
  40aade:	6823      	ldr	r3, [r4, #0]
  40aae0:	2b00      	cmp	r3, #0
  40aae2:	d0fb      	beq.n	40aadc <_close_r+0x14>
  40aae4:	602b      	str	r3, [r5, #0]
  40aae6:	bd38      	pop	{r3, r4, r5, pc}
  40aae8:	20401640 	.word	0x20401640

0040aaec <_fclose_r>:
  40aaec:	2900      	cmp	r1, #0
  40aaee:	d03d      	beq.n	40ab6c <_fclose_r+0x80>
  40aaf0:	b570      	push	{r4, r5, r6, lr}
  40aaf2:	4605      	mov	r5, r0
  40aaf4:	460c      	mov	r4, r1
  40aaf6:	b108      	cbz	r0, 40aafc <_fclose_r+0x10>
  40aaf8:	6b83      	ldr	r3, [r0, #56]	; 0x38
  40aafa:	b37b      	cbz	r3, 40ab5c <_fclose_r+0x70>
  40aafc:	f9b4 300c 	ldrsh.w	r3, [r4, #12]
  40ab00:	b90b      	cbnz	r3, 40ab06 <_fclose_r+0x1a>
  40ab02:	2000      	movs	r0, #0
  40ab04:	bd70      	pop	{r4, r5, r6, pc}
  40ab06:	4621      	mov	r1, r4
  40ab08:	4628      	mov	r0, r5
  40ab0a:	f7fd ffb9 	bl	408a80 <__sflush_r>
  40ab0e:	6ae3      	ldr	r3, [r4, #44]	; 0x2c
  40ab10:	4606      	mov	r6, r0
  40ab12:	b133      	cbz	r3, 40ab22 <_fclose_r+0x36>
  40ab14:	69e1      	ldr	r1, [r4, #28]
  40ab16:	4628      	mov	r0, r5
  40ab18:	4798      	blx	r3
  40ab1a:	2800      	cmp	r0, #0
  40ab1c:	bfb8      	it	lt
  40ab1e:	f04f 36ff 	movlt.w	r6, #4294967295
  40ab22:	89a3      	ldrh	r3, [r4, #12]
  40ab24:	061b      	lsls	r3, r3, #24
  40ab26:	d41c      	bmi.n	40ab62 <_fclose_r+0x76>
  40ab28:	6b21      	ldr	r1, [r4, #48]	; 0x30
  40ab2a:	b141      	cbz	r1, 40ab3e <_fclose_r+0x52>
  40ab2c:	f104 0340 	add.w	r3, r4, #64	; 0x40
  40ab30:	4299      	cmp	r1, r3
  40ab32:	d002      	beq.n	40ab3a <_fclose_r+0x4e>
  40ab34:	4628      	mov	r0, r5
  40ab36:	f7fe f9a5 	bl	408e84 <_free_r>
  40ab3a:	2300      	movs	r3, #0
  40ab3c:	6323      	str	r3, [r4, #48]	; 0x30
  40ab3e:	6c61      	ldr	r1, [r4, #68]	; 0x44
  40ab40:	b121      	cbz	r1, 40ab4c <_fclose_r+0x60>
  40ab42:	4628      	mov	r0, r5
  40ab44:	f7fe f99e 	bl	408e84 <_free_r>
  40ab48:	2300      	movs	r3, #0
  40ab4a:	6463      	str	r3, [r4, #68]	; 0x44
  40ab4c:	f7fe f8d6 	bl	408cfc <__sfp_lock_acquire>
  40ab50:	2300      	movs	r3, #0
  40ab52:	81a3      	strh	r3, [r4, #12]
  40ab54:	f7fe f8d4 	bl	408d00 <__sfp_lock_release>
  40ab58:	4630      	mov	r0, r6
  40ab5a:	bd70      	pop	{r4, r5, r6, pc}
  40ab5c:	f7fe f8c8 	bl	408cf0 <__sinit>
  40ab60:	e7cc      	b.n	40aafc <_fclose_r+0x10>
  40ab62:	6921      	ldr	r1, [r4, #16]
  40ab64:	4628      	mov	r0, r5
  40ab66:	f7fe f98d 	bl	408e84 <_free_r>
  40ab6a:	e7dd      	b.n	40ab28 <_fclose_r+0x3c>
  40ab6c:	2000      	movs	r0, #0
  40ab6e:	4770      	bx	lr

0040ab70 <_fstat_r>:
  40ab70:	b538      	push	{r3, r4, r5, lr}
  40ab72:	460b      	mov	r3, r1
  40ab74:	4c07      	ldr	r4, [pc, #28]	; (40ab94 <_fstat_r+0x24>)
  40ab76:	4605      	mov	r5, r0
  40ab78:	4611      	mov	r1, r2
  40ab7a:	4618      	mov	r0, r3
  40ab7c:	2300      	movs	r3, #0
  40ab7e:	6023      	str	r3, [r4, #0]
  40ab80:	f7f9 fff8 	bl	404b74 <_fstat>
  40ab84:	1c43      	adds	r3, r0, #1
  40ab86:	d000      	beq.n	40ab8a <_fstat_r+0x1a>
  40ab88:	bd38      	pop	{r3, r4, r5, pc}
  40ab8a:	6823      	ldr	r3, [r4, #0]
  40ab8c:	2b00      	cmp	r3, #0
  40ab8e:	d0fb      	beq.n	40ab88 <_fstat_r+0x18>
  40ab90:	602b      	str	r3, [r5, #0]
  40ab92:	bd38      	pop	{r3, r4, r5, pc}
  40ab94:	20401640 	.word	0x20401640

0040ab98 <_isatty_r>:
  40ab98:	b538      	push	{r3, r4, r5, lr}
  40ab9a:	4c07      	ldr	r4, [pc, #28]	; (40abb8 <_isatty_r+0x20>)
  40ab9c:	2300      	movs	r3, #0
  40ab9e:	4605      	mov	r5, r0
  40aba0:	4608      	mov	r0, r1
  40aba2:	6023      	str	r3, [r4, #0]
  40aba4:	f7f9 ffec 	bl	404b80 <_isatty>
  40aba8:	1c43      	adds	r3, r0, #1
  40abaa:	d000      	beq.n	40abae <_isatty_r+0x16>
  40abac:	bd38      	pop	{r3, r4, r5, pc}
  40abae:	6823      	ldr	r3, [r4, #0]
  40abb0:	2b00      	cmp	r3, #0
  40abb2:	d0fb      	beq.n	40abac <_isatty_r+0x14>
  40abb4:	602b      	str	r3, [r5, #0]
  40abb6:	bd38      	pop	{r3, r4, r5, pc}
  40abb8:	20401640 	.word	0x20401640

0040abbc <_lseek_r>:
  40abbc:	b570      	push	{r4, r5, r6, lr}
  40abbe:	460d      	mov	r5, r1
  40abc0:	4c08      	ldr	r4, [pc, #32]	; (40abe4 <_lseek_r+0x28>)
  40abc2:	4611      	mov	r1, r2
  40abc4:	4606      	mov	r6, r0
  40abc6:	461a      	mov	r2, r3
  40abc8:	4628      	mov	r0, r5
  40abca:	2300      	movs	r3, #0
  40abcc:	6023      	str	r3, [r4, #0]
  40abce:	f7f9 ffd9 	bl	404b84 <_lseek>
  40abd2:	1c43      	adds	r3, r0, #1
  40abd4:	d000      	beq.n	40abd8 <_lseek_r+0x1c>
  40abd6:	bd70      	pop	{r4, r5, r6, pc}
  40abd8:	6823      	ldr	r3, [r4, #0]
  40abda:	2b00      	cmp	r3, #0
  40abdc:	d0fb      	beq.n	40abd6 <_lseek_r+0x1a>
  40abde:	6033      	str	r3, [r6, #0]
  40abe0:	bd70      	pop	{r4, r5, r6, pc}
  40abe2:	bf00      	nop
  40abe4:	20401640 	.word	0x20401640

0040abe8 <_read_r>:
  40abe8:	b570      	push	{r4, r5, r6, lr}
  40abea:	460d      	mov	r5, r1
  40abec:	4c08      	ldr	r4, [pc, #32]	; (40ac10 <_read_r+0x28>)
  40abee:	4611      	mov	r1, r2
  40abf0:	4606      	mov	r6, r0
  40abf2:	461a      	mov	r2, r3
  40abf4:	4628      	mov	r0, r5
  40abf6:	2300      	movs	r3, #0
  40abf8:	6023      	str	r3, [r4, #0]
  40abfa:	f7f9 f829 	bl	403c50 <_read>
  40abfe:	1c43      	adds	r3, r0, #1
  40ac00:	d000      	beq.n	40ac04 <_read_r+0x1c>
  40ac02:	bd70      	pop	{r4, r5, r6, pc}
  40ac04:	6823      	ldr	r3, [r4, #0]
  40ac06:	2b00      	cmp	r3, #0
  40ac08:	d0fb      	beq.n	40ac02 <_read_r+0x1a>
  40ac0a:	6033      	str	r3, [r6, #0]
  40ac0c:	bd70      	pop	{r4, r5, r6, pc}
  40ac0e:	bf00      	nop
  40ac10:	20401640 	.word	0x20401640

0040ac14 <__aeabi_drsub>:
  40ac14:	f081 4100 	eor.w	r1, r1, #2147483648	; 0x80000000
  40ac18:	e002      	b.n	40ac20 <__adddf3>
  40ac1a:	bf00      	nop

0040ac1c <__aeabi_dsub>:
  40ac1c:	f083 4300 	eor.w	r3, r3, #2147483648	; 0x80000000

0040ac20 <__adddf3>:
  40ac20:	b530      	push	{r4, r5, lr}
  40ac22:	ea4f 0441 	mov.w	r4, r1, lsl #1
  40ac26:	ea4f 0543 	mov.w	r5, r3, lsl #1
  40ac2a:	ea94 0f05 	teq	r4, r5
  40ac2e:	bf08      	it	eq
  40ac30:	ea90 0f02 	teqeq	r0, r2
  40ac34:	bf1f      	itttt	ne
  40ac36:	ea54 0c00 	orrsne.w	ip, r4, r0
  40ac3a:	ea55 0c02 	orrsne.w	ip, r5, r2
  40ac3e:	ea7f 5c64 	mvnsne.w	ip, r4, asr #21
  40ac42:	ea7f 5c65 	mvnsne.w	ip, r5, asr #21
  40ac46:	f000 80e2 	beq.w	40ae0e <__adddf3+0x1ee>
  40ac4a:	ea4f 5454 	mov.w	r4, r4, lsr #21
  40ac4e:	ebd4 5555 	rsbs	r5, r4, r5, lsr #21
  40ac52:	bfb8      	it	lt
  40ac54:	426d      	neglt	r5, r5
  40ac56:	dd0c      	ble.n	40ac72 <__adddf3+0x52>
  40ac58:	442c      	add	r4, r5
  40ac5a:	ea80 0202 	eor.w	r2, r0, r2
  40ac5e:	ea81 0303 	eor.w	r3, r1, r3
  40ac62:	ea82 0000 	eor.w	r0, r2, r0
  40ac66:	ea83 0101 	eor.w	r1, r3, r1
  40ac6a:	ea80 0202 	eor.w	r2, r0, r2
  40ac6e:	ea81 0303 	eor.w	r3, r1, r3
  40ac72:	2d36      	cmp	r5, #54	; 0x36
  40ac74:	bf88      	it	hi
  40ac76:	bd30      	pophi	{r4, r5, pc}
  40ac78:	f011 4f00 	tst.w	r1, #2147483648	; 0x80000000
  40ac7c:	ea4f 3101 	mov.w	r1, r1, lsl #12
  40ac80:	f44f 1c80 	mov.w	ip, #1048576	; 0x100000
  40ac84:	ea4c 3111 	orr.w	r1, ip, r1, lsr #12
  40ac88:	d002      	beq.n	40ac90 <__adddf3+0x70>
  40ac8a:	4240      	negs	r0, r0
  40ac8c:	eb61 0141 	sbc.w	r1, r1, r1, lsl #1
  40ac90:	f013 4f00 	tst.w	r3, #2147483648	; 0x80000000
  40ac94:	ea4f 3303 	mov.w	r3, r3, lsl #12
  40ac98:	ea4c 3313 	orr.w	r3, ip, r3, lsr #12
  40ac9c:	d002      	beq.n	40aca4 <__adddf3+0x84>
  40ac9e:	4252      	negs	r2, r2
  40aca0:	eb63 0343 	sbc.w	r3, r3, r3, lsl #1
  40aca4:	ea94 0f05 	teq	r4, r5
  40aca8:	f000 80a7 	beq.w	40adfa <__adddf3+0x1da>
  40acac:	f1a4 0401 	sub.w	r4, r4, #1
  40acb0:	f1d5 0e20 	rsbs	lr, r5, #32
  40acb4:	db0d      	blt.n	40acd2 <__adddf3+0xb2>
  40acb6:	fa02 fc0e 	lsl.w	ip, r2, lr
  40acba:	fa22 f205 	lsr.w	r2, r2, r5
  40acbe:	1880      	adds	r0, r0, r2
  40acc0:	f141 0100 	adc.w	r1, r1, #0
  40acc4:	fa03 f20e 	lsl.w	r2, r3, lr
  40acc8:	1880      	adds	r0, r0, r2
  40acca:	fa43 f305 	asr.w	r3, r3, r5
  40acce:	4159      	adcs	r1, r3
  40acd0:	e00e      	b.n	40acf0 <__adddf3+0xd0>
  40acd2:	f1a5 0520 	sub.w	r5, r5, #32
  40acd6:	f10e 0e20 	add.w	lr, lr, #32
  40acda:	2a01      	cmp	r2, #1
  40acdc:	fa03 fc0e 	lsl.w	ip, r3, lr
  40ace0:	bf28      	it	cs
  40ace2:	f04c 0c02 	orrcs.w	ip, ip, #2
  40ace6:	fa43 f305 	asr.w	r3, r3, r5
  40acea:	18c0      	adds	r0, r0, r3
  40acec:	eb51 71e3 	adcs.w	r1, r1, r3, asr #31
  40acf0:	f001 4500 	and.w	r5, r1, #2147483648	; 0x80000000
  40acf4:	d507      	bpl.n	40ad06 <__adddf3+0xe6>
  40acf6:	f04f 0e00 	mov.w	lr, #0
  40acfa:	f1dc 0c00 	rsbs	ip, ip, #0
  40acfe:	eb7e 0000 	sbcs.w	r0, lr, r0
  40ad02:	eb6e 0101 	sbc.w	r1, lr, r1
  40ad06:	f5b1 1f80 	cmp.w	r1, #1048576	; 0x100000
  40ad0a:	d31b      	bcc.n	40ad44 <__adddf3+0x124>
  40ad0c:	f5b1 1f00 	cmp.w	r1, #2097152	; 0x200000
  40ad10:	d30c      	bcc.n	40ad2c <__adddf3+0x10c>
  40ad12:	0849      	lsrs	r1, r1, #1
  40ad14:	ea5f 0030 	movs.w	r0, r0, rrx
  40ad18:	ea4f 0c3c 	mov.w	ip, ip, rrx
  40ad1c:	f104 0401 	add.w	r4, r4, #1
  40ad20:	ea4f 5244 	mov.w	r2, r4, lsl #21
  40ad24:	f512 0f80 	cmn.w	r2, #4194304	; 0x400000
  40ad28:	f080 809a 	bcs.w	40ae60 <__adddf3+0x240>
  40ad2c:	f1bc 4f00 	cmp.w	ip, #2147483648	; 0x80000000
  40ad30:	bf08      	it	eq
  40ad32:	ea5f 0c50 	movseq.w	ip, r0, lsr #1
  40ad36:	f150 0000 	adcs.w	r0, r0, #0
  40ad3a:	eb41 5104 	adc.w	r1, r1, r4, lsl #20
  40ad3e:	ea41 0105 	orr.w	r1, r1, r5
  40ad42:	bd30      	pop	{r4, r5, pc}
  40ad44:	ea5f 0c4c 	movs.w	ip, ip, lsl #1
  40ad48:	4140      	adcs	r0, r0
  40ad4a:	eb41 0101 	adc.w	r1, r1, r1
  40ad4e:	f411 1f80 	tst.w	r1, #1048576	; 0x100000
  40ad52:	f1a4 0401 	sub.w	r4, r4, #1
  40ad56:	d1e9      	bne.n	40ad2c <__adddf3+0x10c>
  40ad58:	f091 0f00 	teq	r1, #0
  40ad5c:	bf04      	itt	eq
  40ad5e:	4601      	moveq	r1, r0
  40ad60:	2000      	moveq	r0, #0
  40ad62:	fab1 f381 	clz	r3, r1
  40ad66:	bf08      	it	eq
  40ad68:	3320      	addeq	r3, #32
  40ad6a:	f1a3 030b 	sub.w	r3, r3, #11
  40ad6e:	f1b3 0220 	subs.w	r2, r3, #32
  40ad72:	da0c      	bge.n	40ad8e <__adddf3+0x16e>
  40ad74:	320c      	adds	r2, #12
  40ad76:	dd08      	ble.n	40ad8a <__adddf3+0x16a>
  40ad78:	f102 0c14 	add.w	ip, r2, #20
  40ad7c:	f1c2 020c 	rsb	r2, r2, #12
  40ad80:	fa01 f00c 	lsl.w	r0, r1, ip
  40ad84:	fa21 f102 	lsr.w	r1, r1, r2
  40ad88:	e00c      	b.n	40ada4 <__adddf3+0x184>
  40ad8a:	f102 0214 	add.w	r2, r2, #20
  40ad8e:	bfd8      	it	le
  40ad90:	f1c2 0c20 	rsble	ip, r2, #32
  40ad94:	fa01 f102 	lsl.w	r1, r1, r2
  40ad98:	fa20 fc0c 	lsr.w	ip, r0, ip
  40ad9c:	bfdc      	itt	le
  40ad9e:	ea41 010c 	orrle.w	r1, r1, ip
  40ada2:	4090      	lslle	r0, r2
  40ada4:	1ae4      	subs	r4, r4, r3
  40ada6:	bfa2      	ittt	ge
  40ada8:	eb01 5104 	addge.w	r1, r1, r4, lsl #20
  40adac:	4329      	orrge	r1, r5
  40adae:	bd30      	popge	{r4, r5, pc}
  40adb0:	ea6f 0404 	mvn.w	r4, r4
  40adb4:	3c1f      	subs	r4, #31
  40adb6:	da1c      	bge.n	40adf2 <__adddf3+0x1d2>
  40adb8:	340c      	adds	r4, #12
  40adba:	dc0e      	bgt.n	40adda <__adddf3+0x1ba>
  40adbc:	f104 0414 	add.w	r4, r4, #20
  40adc0:	f1c4 0220 	rsb	r2, r4, #32
  40adc4:	fa20 f004 	lsr.w	r0, r0, r4
  40adc8:	fa01 f302 	lsl.w	r3, r1, r2
  40adcc:	ea40 0003 	orr.w	r0, r0, r3
  40add0:	fa21 f304 	lsr.w	r3, r1, r4
  40add4:	ea45 0103 	orr.w	r1, r5, r3
  40add8:	bd30      	pop	{r4, r5, pc}
  40adda:	f1c4 040c 	rsb	r4, r4, #12
  40adde:	f1c4 0220 	rsb	r2, r4, #32
  40ade2:	fa20 f002 	lsr.w	r0, r0, r2
  40ade6:	fa01 f304 	lsl.w	r3, r1, r4
  40adea:	ea40 0003 	orr.w	r0, r0, r3
  40adee:	4629      	mov	r1, r5
  40adf0:	bd30      	pop	{r4, r5, pc}
  40adf2:	fa21 f004 	lsr.w	r0, r1, r4
  40adf6:	4629      	mov	r1, r5
  40adf8:	bd30      	pop	{r4, r5, pc}
  40adfa:	f094 0f00 	teq	r4, #0
  40adfe:	f483 1380 	eor.w	r3, r3, #1048576	; 0x100000
  40ae02:	bf06      	itte	eq
  40ae04:	f481 1180 	eoreq.w	r1, r1, #1048576	; 0x100000
  40ae08:	3401      	addeq	r4, #1
  40ae0a:	3d01      	subne	r5, #1
  40ae0c:	e74e      	b.n	40acac <__adddf3+0x8c>
  40ae0e:	ea7f 5c64 	mvns.w	ip, r4, asr #21
  40ae12:	bf18      	it	ne
  40ae14:	ea7f 5c65 	mvnsne.w	ip, r5, asr #21
  40ae18:	d029      	beq.n	40ae6e <__adddf3+0x24e>
  40ae1a:	ea94 0f05 	teq	r4, r5
  40ae1e:	bf08      	it	eq
  40ae20:	ea90 0f02 	teqeq	r0, r2
  40ae24:	d005      	beq.n	40ae32 <__adddf3+0x212>
  40ae26:	ea54 0c00 	orrs.w	ip, r4, r0
  40ae2a:	bf04      	itt	eq
  40ae2c:	4619      	moveq	r1, r3
  40ae2e:	4610      	moveq	r0, r2
  40ae30:	bd30      	pop	{r4, r5, pc}
  40ae32:	ea91 0f03 	teq	r1, r3
  40ae36:	bf1e      	ittt	ne
  40ae38:	2100      	movne	r1, #0
  40ae3a:	2000      	movne	r0, #0
  40ae3c:	bd30      	popne	{r4, r5, pc}
  40ae3e:	ea5f 5c54 	movs.w	ip, r4, lsr #21
  40ae42:	d105      	bne.n	40ae50 <__adddf3+0x230>
  40ae44:	0040      	lsls	r0, r0, #1
  40ae46:	4149      	adcs	r1, r1
  40ae48:	bf28      	it	cs
  40ae4a:	f041 4100 	orrcs.w	r1, r1, #2147483648	; 0x80000000
  40ae4e:	bd30      	pop	{r4, r5, pc}
  40ae50:	f514 0480 	adds.w	r4, r4, #4194304	; 0x400000
  40ae54:	bf3c      	itt	cc
  40ae56:	f501 1180 	addcc.w	r1, r1, #1048576	; 0x100000
  40ae5a:	bd30      	popcc	{r4, r5, pc}
  40ae5c:	f001 4500 	and.w	r5, r1, #2147483648	; 0x80000000
  40ae60:	f045 41fe 	orr.w	r1, r5, #2130706432	; 0x7f000000
  40ae64:	f441 0170 	orr.w	r1, r1, #15728640	; 0xf00000
  40ae68:	f04f 0000 	mov.w	r0, #0
  40ae6c:	bd30      	pop	{r4, r5, pc}
  40ae6e:	ea7f 5c64 	mvns.w	ip, r4, asr #21
  40ae72:	bf1a      	itte	ne
  40ae74:	4619      	movne	r1, r3
  40ae76:	4610      	movne	r0, r2
  40ae78:	ea7f 5c65 	mvnseq.w	ip, r5, asr #21
  40ae7c:	bf1c      	itt	ne
  40ae7e:	460b      	movne	r3, r1
  40ae80:	4602      	movne	r2, r0
  40ae82:	ea50 3401 	orrs.w	r4, r0, r1, lsl #12
  40ae86:	bf06      	itte	eq
  40ae88:	ea52 3503 	orrseq.w	r5, r2, r3, lsl #12
  40ae8c:	ea91 0f03 	teqeq	r1, r3
  40ae90:	f441 2100 	orrne.w	r1, r1, #524288	; 0x80000
  40ae94:	bd30      	pop	{r4, r5, pc}
  40ae96:	bf00      	nop

0040ae98 <__aeabi_ui2d>:
  40ae98:	f090 0f00 	teq	r0, #0
  40ae9c:	bf04      	itt	eq
  40ae9e:	2100      	moveq	r1, #0
  40aea0:	4770      	bxeq	lr
  40aea2:	b530      	push	{r4, r5, lr}
  40aea4:	f44f 6480 	mov.w	r4, #1024	; 0x400
  40aea8:	f104 0432 	add.w	r4, r4, #50	; 0x32
  40aeac:	f04f 0500 	mov.w	r5, #0
  40aeb0:	f04f 0100 	mov.w	r1, #0
  40aeb4:	e750      	b.n	40ad58 <__adddf3+0x138>
  40aeb6:	bf00      	nop

0040aeb8 <__aeabi_i2d>:
  40aeb8:	f090 0f00 	teq	r0, #0
  40aebc:	bf04      	itt	eq
  40aebe:	2100      	moveq	r1, #0
  40aec0:	4770      	bxeq	lr
  40aec2:	b530      	push	{r4, r5, lr}
  40aec4:	f44f 6480 	mov.w	r4, #1024	; 0x400
  40aec8:	f104 0432 	add.w	r4, r4, #50	; 0x32
  40aecc:	f010 4500 	ands.w	r5, r0, #2147483648	; 0x80000000
  40aed0:	bf48      	it	mi
  40aed2:	4240      	negmi	r0, r0
  40aed4:	f04f 0100 	mov.w	r1, #0
  40aed8:	e73e      	b.n	40ad58 <__adddf3+0x138>
  40aeda:	bf00      	nop

0040aedc <__aeabi_f2d>:
  40aedc:	0042      	lsls	r2, r0, #1
  40aede:	ea4f 01e2 	mov.w	r1, r2, asr #3
  40aee2:	ea4f 0131 	mov.w	r1, r1, rrx
  40aee6:	ea4f 7002 	mov.w	r0, r2, lsl #28
  40aeea:	bf1f      	itttt	ne
  40aeec:	f012 437f 	andsne.w	r3, r2, #4278190080	; 0xff000000
  40aef0:	f093 4f7f 	teqne	r3, #4278190080	; 0xff000000
  40aef4:	f081 5160 	eorne.w	r1, r1, #939524096	; 0x38000000
  40aef8:	4770      	bxne	lr
  40aefa:	f092 0f00 	teq	r2, #0
  40aefe:	bf14      	ite	ne
  40af00:	f093 4f7f 	teqne	r3, #4278190080	; 0xff000000
  40af04:	4770      	bxeq	lr
  40af06:	b530      	push	{r4, r5, lr}
  40af08:	f44f 7460 	mov.w	r4, #896	; 0x380
  40af0c:	f001 4500 	and.w	r5, r1, #2147483648	; 0x80000000
  40af10:	f021 4100 	bic.w	r1, r1, #2147483648	; 0x80000000
  40af14:	e720      	b.n	40ad58 <__adddf3+0x138>
  40af16:	bf00      	nop

0040af18 <__aeabi_ul2d>:
  40af18:	ea50 0201 	orrs.w	r2, r0, r1
  40af1c:	bf08      	it	eq
  40af1e:	4770      	bxeq	lr
  40af20:	b530      	push	{r4, r5, lr}
  40af22:	f04f 0500 	mov.w	r5, #0
  40af26:	e00a      	b.n	40af3e <__aeabi_l2d+0x16>

0040af28 <__aeabi_l2d>:
  40af28:	ea50 0201 	orrs.w	r2, r0, r1
  40af2c:	bf08      	it	eq
  40af2e:	4770      	bxeq	lr
  40af30:	b530      	push	{r4, r5, lr}
  40af32:	f011 4500 	ands.w	r5, r1, #2147483648	; 0x80000000
  40af36:	d502      	bpl.n	40af3e <__aeabi_l2d+0x16>
  40af38:	4240      	negs	r0, r0
  40af3a:	eb61 0141 	sbc.w	r1, r1, r1, lsl #1
  40af3e:	f44f 6480 	mov.w	r4, #1024	; 0x400
  40af42:	f104 0432 	add.w	r4, r4, #50	; 0x32
  40af46:	ea5f 5c91 	movs.w	ip, r1, lsr #22
  40af4a:	f43f aedc 	beq.w	40ad06 <__adddf3+0xe6>
  40af4e:	f04f 0203 	mov.w	r2, #3
  40af52:	ea5f 0cdc 	movs.w	ip, ip, lsr #3
  40af56:	bf18      	it	ne
  40af58:	3203      	addne	r2, #3
  40af5a:	ea5f 0cdc 	movs.w	ip, ip, lsr #3
  40af5e:	bf18      	it	ne
  40af60:	3203      	addne	r2, #3
  40af62:	eb02 02dc 	add.w	r2, r2, ip, lsr #3
  40af66:	f1c2 0320 	rsb	r3, r2, #32
  40af6a:	fa00 fc03 	lsl.w	ip, r0, r3
  40af6e:	fa20 f002 	lsr.w	r0, r0, r2
  40af72:	fa01 fe03 	lsl.w	lr, r1, r3
  40af76:	ea40 000e 	orr.w	r0, r0, lr
  40af7a:	fa21 f102 	lsr.w	r1, r1, r2
  40af7e:	4414      	add	r4, r2
  40af80:	e6c1      	b.n	40ad06 <__adddf3+0xe6>
  40af82:	bf00      	nop

0040af84 <__aeabi_dmul>:
  40af84:	b570      	push	{r4, r5, r6, lr}
  40af86:	f04f 0cff 	mov.w	ip, #255	; 0xff
  40af8a:	f44c 6ce0 	orr.w	ip, ip, #1792	; 0x700
  40af8e:	ea1c 5411 	ands.w	r4, ip, r1, lsr #20
  40af92:	bf1d      	ittte	ne
  40af94:	ea1c 5513 	andsne.w	r5, ip, r3, lsr #20
  40af98:	ea94 0f0c 	teqne	r4, ip
  40af9c:	ea95 0f0c 	teqne	r5, ip
  40afa0:	f000 f8de 	bleq	40b160 <__aeabi_dmul+0x1dc>
  40afa4:	442c      	add	r4, r5
  40afa6:	ea81 0603 	eor.w	r6, r1, r3
  40afaa:	ea21 514c 	bic.w	r1, r1, ip, lsl #21
  40afae:	ea23 534c 	bic.w	r3, r3, ip, lsl #21
  40afb2:	ea50 3501 	orrs.w	r5, r0, r1, lsl #12
  40afb6:	bf18      	it	ne
  40afb8:	ea52 3503 	orrsne.w	r5, r2, r3, lsl #12
  40afbc:	f441 1180 	orr.w	r1, r1, #1048576	; 0x100000
  40afc0:	f443 1380 	orr.w	r3, r3, #1048576	; 0x100000
  40afc4:	d038      	beq.n	40b038 <__aeabi_dmul+0xb4>
  40afc6:	fba0 ce02 	umull	ip, lr, r0, r2
  40afca:	f04f 0500 	mov.w	r5, #0
  40afce:	fbe1 e502 	umlal	lr, r5, r1, r2
  40afd2:	f006 4200 	and.w	r2, r6, #2147483648	; 0x80000000
  40afd6:	fbe0 e503 	umlal	lr, r5, r0, r3
  40afda:	f04f 0600 	mov.w	r6, #0
  40afde:	fbe1 5603 	umlal	r5, r6, r1, r3
  40afe2:	f09c 0f00 	teq	ip, #0
  40afe6:	bf18      	it	ne
  40afe8:	f04e 0e01 	orrne.w	lr, lr, #1
  40afec:	f1a4 04ff 	sub.w	r4, r4, #255	; 0xff
  40aff0:	f5b6 7f00 	cmp.w	r6, #512	; 0x200
  40aff4:	f564 7440 	sbc.w	r4, r4, #768	; 0x300
  40aff8:	d204      	bcs.n	40b004 <__aeabi_dmul+0x80>
  40affa:	ea5f 0e4e 	movs.w	lr, lr, lsl #1
  40affe:	416d      	adcs	r5, r5
  40b000:	eb46 0606 	adc.w	r6, r6, r6
  40b004:	ea42 21c6 	orr.w	r1, r2, r6, lsl #11
  40b008:	ea41 5155 	orr.w	r1, r1, r5, lsr #21
  40b00c:	ea4f 20c5 	mov.w	r0, r5, lsl #11
  40b010:	ea40 505e 	orr.w	r0, r0, lr, lsr #21
  40b014:	ea4f 2ece 	mov.w	lr, lr, lsl #11
  40b018:	f1b4 0cfd 	subs.w	ip, r4, #253	; 0xfd
  40b01c:	bf88      	it	hi
  40b01e:	f5bc 6fe0 	cmphi.w	ip, #1792	; 0x700
  40b022:	d81e      	bhi.n	40b062 <__aeabi_dmul+0xde>
  40b024:	f1be 4f00 	cmp.w	lr, #2147483648	; 0x80000000
  40b028:	bf08      	it	eq
  40b02a:	ea5f 0e50 	movseq.w	lr, r0, lsr #1
  40b02e:	f150 0000 	adcs.w	r0, r0, #0
  40b032:	eb41 5104 	adc.w	r1, r1, r4, lsl #20
  40b036:	bd70      	pop	{r4, r5, r6, pc}
  40b038:	f006 4600 	and.w	r6, r6, #2147483648	; 0x80000000
  40b03c:	ea46 0101 	orr.w	r1, r6, r1
  40b040:	ea40 0002 	orr.w	r0, r0, r2
  40b044:	ea81 0103 	eor.w	r1, r1, r3
  40b048:	ebb4 045c 	subs.w	r4, r4, ip, lsr #1
  40b04c:	bfc2      	ittt	gt
  40b04e:	ebd4 050c 	rsbsgt	r5, r4, ip
  40b052:	ea41 5104 	orrgt.w	r1, r1, r4, lsl #20
  40b056:	bd70      	popgt	{r4, r5, r6, pc}
  40b058:	f441 1180 	orr.w	r1, r1, #1048576	; 0x100000
  40b05c:	f04f 0e00 	mov.w	lr, #0
  40b060:	3c01      	subs	r4, #1
  40b062:	f300 80ab 	bgt.w	40b1bc <__aeabi_dmul+0x238>
  40b066:	f114 0f36 	cmn.w	r4, #54	; 0x36
  40b06a:	bfde      	ittt	le
  40b06c:	2000      	movle	r0, #0
  40b06e:	f001 4100 	andle.w	r1, r1, #2147483648	; 0x80000000
  40b072:	bd70      	pople	{r4, r5, r6, pc}
  40b074:	f1c4 0400 	rsb	r4, r4, #0
  40b078:	3c20      	subs	r4, #32
  40b07a:	da35      	bge.n	40b0e8 <__aeabi_dmul+0x164>
  40b07c:	340c      	adds	r4, #12
  40b07e:	dc1b      	bgt.n	40b0b8 <__aeabi_dmul+0x134>
  40b080:	f104 0414 	add.w	r4, r4, #20
  40b084:	f1c4 0520 	rsb	r5, r4, #32
  40b088:	fa00 f305 	lsl.w	r3, r0, r5
  40b08c:	fa20 f004 	lsr.w	r0, r0, r4
  40b090:	fa01 f205 	lsl.w	r2, r1, r5
  40b094:	ea40 0002 	orr.w	r0, r0, r2
  40b098:	f001 4200 	and.w	r2, r1, #2147483648	; 0x80000000
  40b09c:	f021 4100 	bic.w	r1, r1, #2147483648	; 0x80000000
  40b0a0:	eb10 70d3 	adds.w	r0, r0, r3, lsr #31
  40b0a4:	fa21 f604 	lsr.w	r6, r1, r4
  40b0a8:	eb42 0106 	adc.w	r1, r2, r6
  40b0ac:	ea5e 0e43 	orrs.w	lr, lr, r3, lsl #1
  40b0b0:	bf08      	it	eq
  40b0b2:	ea20 70d3 	biceq.w	r0, r0, r3, lsr #31
  40b0b6:	bd70      	pop	{r4, r5, r6, pc}
  40b0b8:	f1c4 040c 	rsb	r4, r4, #12
  40b0bc:	f1c4 0520 	rsb	r5, r4, #32
  40b0c0:	fa00 f304 	lsl.w	r3, r0, r4
  40b0c4:	fa20 f005 	lsr.w	r0, r0, r5
  40b0c8:	fa01 f204 	lsl.w	r2, r1, r4
  40b0cc:	ea40 0002 	orr.w	r0, r0, r2
  40b0d0:	f001 4100 	and.w	r1, r1, #2147483648	; 0x80000000
  40b0d4:	eb10 70d3 	adds.w	r0, r0, r3, lsr #31
  40b0d8:	f141 0100 	adc.w	r1, r1, #0
  40b0dc:	ea5e 0e43 	orrs.w	lr, lr, r3, lsl #1
  40b0e0:	bf08      	it	eq
  40b0e2:	ea20 70d3 	biceq.w	r0, r0, r3, lsr #31
  40b0e6:	bd70      	pop	{r4, r5, r6, pc}
  40b0e8:	f1c4 0520 	rsb	r5, r4, #32
  40b0ec:	fa00 f205 	lsl.w	r2, r0, r5
  40b0f0:	ea4e 0e02 	orr.w	lr, lr, r2
  40b0f4:	fa20 f304 	lsr.w	r3, r0, r4
  40b0f8:	fa01 f205 	lsl.w	r2, r1, r5
  40b0fc:	ea43 0302 	orr.w	r3, r3, r2
  40b100:	fa21 f004 	lsr.w	r0, r1, r4
  40b104:	f001 4100 	and.w	r1, r1, #2147483648	; 0x80000000
  40b108:	fa21 f204 	lsr.w	r2, r1, r4
  40b10c:	ea20 0002 	bic.w	r0, r0, r2
  40b110:	eb00 70d3 	add.w	r0, r0, r3, lsr #31
  40b114:	ea5e 0e43 	orrs.w	lr, lr, r3, lsl #1
  40b118:	bf08      	it	eq
  40b11a:	ea20 70d3 	biceq.w	r0, r0, r3, lsr #31
  40b11e:	bd70      	pop	{r4, r5, r6, pc}
  40b120:	f094 0f00 	teq	r4, #0
  40b124:	d10f      	bne.n	40b146 <__aeabi_dmul+0x1c2>
  40b126:	f001 4600 	and.w	r6, r1, #2147483648	; 0x80000000
  40b12a:	0040      	lsls	r0, r0, #1
  40b12c:	eb41 0101 	adc.w	r1, r1, r1
  40b130:	f411 1f80 	tst.w	r1, #1048576	; 0x100000
  40b134:	bf08      	it	eq
  40b136:	3c01      	subeq	r4, #1
  40b138:	d0f7      	beq.n	40b12a <__aeabi_dmul+0x1a6>
  40b13a:	ea41 0106 	orr.w	r1, r1, r6
  40b13e:	f095 0f00 	teq	r5, #0
  40b142:	bf18      	it	ne
  40b144:	4770      	bxne	lr
  40b146:	f003 4600 	and.w	r6, r3, #2147483648	; 0x80000000
  40b14a:	0052      	lsls	r2, r2, #1
  40b14c:	eb43 0303 	adc.w	r3, r3, r3
  40b150:	f413 1f80 	tst.w	r3, #1048576	; 0x100000
  40b154:	bf08      	it	eq
  40b156:	3d01      	subeq	r5, #1
  40b158:	d0f7      	beq.n	40b14a <__aeabi_dmul+0x1c6>
  40b15a:	ea43 0306 	orr.w	r3, r3, r6
  40b15e:	4770      	bx	lr
  40b160:	ea94 0f0c 	teq	r4, ip
  40b164:	ea0c 5513 	and.w	r5, ip, r3, lsr #20
  40b168:	bf18      	it	ne
  40b16a:	ea95 0f0c 	teqne	r5, ip
  40b16e:	d00c      	beq.n	40b18a <__aeabi_dmul+0x206>
  40b170:	ea50 0641 	orrs.w	r6, r0, r1, lsl #1
  40b174:	bf18      	it	ne
  40b176:	ea52 0643 	orrsne.w	r6, r2, r3, lsl #1
  40b17a:	d1d1      	bne.n	40b120 <__aeabi_dmul+0x19c>
  40b17c:	ea81 0103 	eor.w	r1, r1, r3
  40b180:	f001 4100 	and.w	r1, r1, #2147483648	; 0x80000000
  40b184:	f04f 0000 	mov.w	r0, #0
  40b188:	bd70      	pop	{r4, r5, r6, pc}
  40b18a:	ea50 0641 	orrs.w	r6, r0, r1, lsl #1
  40b18e:	bf06      	itte	eq
  40b190:	4610      	moveq	r0, r2
  40b192:	4619      	moveq	r1, r3
  40b194:	ea52 0643 	orrsne.w	r6, r2, r3, lsl #1
  40b198:	d019      	beq.n	40b1ce <__aeabi_dmul+0x24a>
  40b19a:	ea94 0f0c 	teq	r4, ip
  40b19e:	d102      	bne.n	40b1a6 <__aeabi_dmul+0x222>
  40b1a0:	ea50 3601 	orrs.w	r6, r0, r1, lsl #12
  40b1a4:	d113      	bne.n	40b1ce <__aeabi_dmul+0x24a>
  40b1a6:	ea95 0f0c 	teq	r5, ip
  40b1aa:	d105      	bne.n	40b1b8 <__aeabi_dmul+0x234>
  40b1ac:	ea52 3603 	orrs.w	r6, r2, r3, lsl #12
  40b1b0:	bf1c      	itt	ne
  40b1b2:	4610      	movne	r0, r2
  40b1b4:	4619      	movne	r1, r3
  40b1b6:	d10a      	bne.n	40b1ce <__aeabi_dmul+0x24a>
  40b1b8:	ea81 0103 	eor.w	r1, r1, r3
  40b1bc:	f001 4100 	and.w	r1, r1, #2147483648	; 0x80000000
  40b1c0:	f041 41fe 	orr.w	r1, r1, #2130706432	; 0x7f000000
  40b1c4:	f441 0170 	orr.w	r1, r1, #15728640	; 0xf00000
  40b1c8:	f04f 0000 	mov.w	r0, #0
  40b1cc:	bd70      	pop	{r4, r5, r6, pc}
  40b1ce:	f041 41fe 	orr.w	r1, r1, #2130706432	; 0x7f000000
  40b1d2:	f441 0178 	orr.w	r1, r1, #16252928	; 0xf80000
  40b1d6:	bd70      	pop	{r4, r5, r6, pc}

0040b1d8 <__aeabi_ddiv>:
  40b1d8:	b570      	push	{r4, r5, r6, lr}
  40b1da:	f04f 0cff 	mov.w	ip, #255	; 0xff
  40b1de:	f44c 6ce0 	orr.w	ip, ip, #1792	; 0x700
  40b1e2:	ea1c 5411 	ands.w	r4, ip, r1, lsr #20
  40b1e6:	bf1d      	ittte	ne
  40b1e8:	ea1c 5513 	andsne.w	r5, ip, r3, lsr #20
  40b1ec:	ea94 0f0c 	teqne	r4, ip
  40b1f0:	ea95 0f0c 	teqne	r5, ip
  40b1f4:	f000 f8a7 	bleq	40b346 <__aeabi_ddiv+0x16e>
  40b1f8:	eba4 0405 	sub.w	r4, r4, r5
  40b1fc:	ea81 0e03 	eor.w	lr, r1, r3
  40b200:	ea52 3503 	orrs.w	r5, r2, r3, lsl #12
  40b204:	ea4f 3101 	mov.w	r1, r1, lsl #12
  40b208:	f000 8088 	beq.w	40b31c <__aeabi_ddiv+0x144>
  40b20c:	ea4f 3303 	mov.w	r3, r3, lsl #12
  40b210:	f04f 5580 	mov.w	r5, #268435456	; 0x10000000
  40b214:	ea45 1313 	orr.w	r3, r5, r3, lsr #4
  40b218:	ea43 6312 	orr.w	r3, r3, r2, lsr #24
  40b21c:	ea4f 2202 	mov.w	r2, r2, lsl #8
  40b220:	ea45 1511 	orr.w	r5, r5, r1, lsr #4
  40b224:	ea45 6510 	orr.w	r5, r5, r0, lsr #24
  40b228:	ea4f 2600 	mov.w	r6, r0, lsl #8
  40b22c:	f00e 4100 	and.w	r1, lr, #2147483648	; 0x80000000
  40b230:	429d      	cmp	r5, r3
  40b232:	bf08      	it	eq
  40b234:	4296      	cmpeq	r6, r2
  40b236:	f144 04fd 	adc.w	r4, r4, #253	; 0xfd
  40b23a:	f504 7440 	add.w	r4, r4, #768	; 0x300
  40b23e:	d202      	bcs.n	40b246 <__aeabi_ddiv+0x6e>
  40b240:	085b      	lsrs	r3, r3, #1
  40b242:	ea4f 0232 	mov.w	r2, r2, rrx
  40b246:	1ab6      	subs	r6, r6, r2
  40b248:	eb65 0503 	sbc.w	r5, r5, r3
  40b24c:	085b      	lsrs	r3, r3, #1
  40b24e:	ea4f 0232 	mov.w	r2, r2, rrx
  40b252:	f44f 1080 	mov.w	r0, #1048576	; 0x100000
  40b256:	f44f 2c00 	mov.w	ip, #524288	; 0x80000
  40b25a:	ebb6 0e02 	subs.w	lr, r6, r2
  40b25e:	eb75 0e03 	sbcs.w	lr, r5, r3
  40b262:	bf22      	ittt	cs
  40b264:	1ab6      	subcs	r6, r6, r2
  40b266:	4675      	movcs	r5, lr
  40b268:	ea40 000c 	orrcs.w	r0, r0, ip
  40b26c:	085b      	lsrs	r3, r3, #1
  40b26e:	ea4f 0232 	mov.w	r2, r2, rrx
  40b272:	ebb6 0e02 	subs.w	lr, r6, r2
  40b276:	eb75 0e03 	sbcs.w	lr, r5, r3
  40b27a:	bf22      	ittt	cs
  40b27c:	1ab6      	subcs	r6, r6, r2
  40b27e:	4675      	movcs	r5, lr
  40b280:	ea40 005c 	orrcs.w	r0, r0, ip, lsr #1
  40b284:	085b      	lsrs	r3, r3, #1
  40b286:	ea4f 0232 	mov.w	r2, r2, rrx
  40b28a:	ebb6 0e02 	subs.w	lr, r6, r2
  40b28e:	eb75 0e03 	sbcs.w	lr, r5, r3
  40b292:	bf22      	ittt	cs
  40b294:	1ab6      	subcs	r6, r6, r2
  40b296:	4675      	movcs	r5, lr
  40b298:	ea40 009c 	orrcs.w	r0, r0, ip, lsr #2
  40b29c:	085b      	lsrs	r3, r3, #1
  40b29e:	ea4f 0232 	mov.w	r2, r2, rrx
  40b2a2:	ebb6 0e02 	subs.w	lr, r6, r2
  40b2a6:	eb75 0e03 	sbcs.w	lr, r5, r3
  40b2aa:	bf22      	ittt	cs
  40b2ac:	1ab6      	subcs	r6, r6, r2
  40b2ae:	4675      	movcs	r5, lr
  40b2b0:	ea40 00dc 	orrcs.w	r0, r0, ip, lsr #3
  40b2b4:	ea55 0e06 	orrs.w	lr, r5, r6
  40b2b8:	d018      	beq.n	40b2ec <__aeabi_ddiv+0x114>
  40b2ba:	ea4f 1505 	mov.w	r5, r5, lsl #4
  40b2be:	ea45 7516 	orr.w	r5, r5, r6, lsr #28
  40b2c2:	ea4f 1606 	mov.w	r6, r6, lsl #4
  40b2c6:	ea4f 03c3 	mov.w	r3, r3, lsl #3
  40b2ca:	ea43 7352 	orr.w	r3, r3, r2, lsr #29
  40b2ce:	ea4f 02c2 	mov.w	r2, r2, lsl #3
  40b2d2:	ea5f 1c1c 	movs.w	ip, ip, lsr #4
  40b2d6:	d1c0      	bne.n	40b25a <__aeabi_ddiv+0x82>
  40b2d8:	f411 1f80 	tst.w	r1, #1048576	; 0x100000
  40b2dc:	d10b      	bne.n	40b2f6 <__aeabi_ddiv+0x11e>
  40b2de:	ea41 0100 	orr.w	r1, r1, r0
  40b2e2:	f04f 0000 	mov.w	r0, #0
  40b2e6:	f04f 4c00 	mov.w	ip, #2147483648	; 0x80000000
  40b2ea:	e7b6      	b.n	40b25a <__aeabi_ddiv+0x82>
  40b2ec:	f411 1f80 	tst.w	r1, #1048576	; 0x100000
  40b2f0:	bf04      	itt	eq
  40b2f2:	4301      	orreq	r1, r0
  40b2f4:	2000      	moveq	r0, #0
  40b2f6:	f1b4 0cfd 	subs.w	ip, r4, #253	; 0xfd
  40b2fa:	bf88      	it	hi
  40b2fc:	f5bc 6fe0 	cmphi.w	ip, #1792	; 0x700
  40b300:	f63f aeaf 	bhi.w	40b062 <__aeabi_dmul+0xde>
  40b304:	ebb5 0c03 	subs.w	ip, r5, r3
  40b308:	bf04      	itt	eq
  40b30a:	ebb6 0c02 	subseq.w	ip, r6, r2
  40b30e:	ea5f 0c50 	movseq.w	ip, r0, lsr #1
  40b312:	f150 0000 	adcs.w	r0, r0, #0
  40b316:	eb41 5104 	adc.w	r1, r1, r4, lsl #20
  40b31a:	bd70      	pop	{r4, r5, r6, pc}
  40b31c:	f00e 4e00 	and.w	lr, lr, #2147483648	; 0x80000000
  40b320:	ea4e 3111 	orr.w	r1, lr, r1, lsr #12
  40b324:	eb14 045c 	adds.w	r4, r4, ip, lsr #1
  40b328:	bfc2      	ittt	gt
  40b32a:	ebd4 050c 	rsbsgt	r5, r4, ip
  40b32e:	ea41 5104 	orrgt.w	r1, r1, r4, lsl #20
  40b332:	bd70      	popgt	{r4, r5, r6, pc}
  40b334:	f441 1180 	orr.w	r1, r1, #1048576	; 0x100000
  40b338:	f04f 0e00 	mov.w	lr, #0
  40b33c:	3c01      	subs	r4, #1
  40b33e:	e690      	b.n	40b062 <__aeabi_dmul+0xde>
  40b340:	ea45 0e06 	orr.w	lr, r5, r6
  40b344:	e68d      	b.n	40b062 <__aeabi_dmul+0xde>
  40b346:	ea0c 5513 	and.w	r5, ip, r3, lsr #20
  40b34a:	ea94 0f0c 	teq	r4, ip
  40b34e:	bf08      	it	eq
  40b350:	ea95 0f0c 	teqeq	r5, ip
  40b354:	f43f af3b 	beq.w	40b1ce <__aeabi_dmul+0x24a>
  40b358:	ea94 0f0c 	teq	r4, ip
  40b35c:	d10a      	bne.n	40b374 <__aeabi_ddiv+0x19c>
  40b35e:	ea50 3401 	orrs.w	r4, r0, r1, lsl #12
  40b362:	f47f af34 	bne.w	40b1ce <__aeabi_dmul+0x24a>
  40b366:	ea95 0f0c 	teq	r5, ip
  40b36a:	f47f af25 	bne.w	40b1b8 <__aeabi_dmul+0x234>
  40b36e:	4610      	mov	r0, r2
  40b370:	4619      	mov	r1, r3
  40b372:	e72c      	b.n	40b1ce <__aeabi_dmul+0x24a>
  40b374:	ea95 0f0c 	teq	r5, ip
  40b378:	d106      	bne.n	40b388 <__aeabi_ddiv+0x1b0>
  40b37a:	ea52 3503 	orrs.w	r5, r2, r3, lsl #12
  40b37e:	f43f aefd 	beq.w	40b17c <__aeabi_dmul+0x1f8>
  40b382:	4610      	mov	r0, r2
  40b384:	4619      	mov	r1, r3
  40b386:	e722      	b.n	40b1ce <__aeabi_dmul+0x24a>
  40b388:	ea50 0641 	orrs.w	r6, r0, r1, lsl #1
  40b38c:	bf18      	it	ne
  40b38e:	ea52 0643 	orrsne.w	r6, r2, r3, lsl #1
  40b392:	f47f aec5 	bne.w	40b120 <__aeabi_dmul+0x19c>
  40b396:	ea50 0441 	orrs.w	r4, r0, r1, lsl #1
  40b39a:	f47f af0d 	bne.w	40b1b8 <__aeabi_dmul+0x234>
  40b39e:	ea52 0543 	orrs.w	r5, r2, r3, lsl #1
  40b3a2:	f47f aeeb 	bne.w	40b17c <__aeabi_dmul+0x1f8>
  40b3a6:	e712      	b.n	40b1ce <__aeabi_dmul+0x24a>

0040b3a8 <__gedf2>:
  40b3a8:	f04f 3cff 	mov.w	ip, #4294967295
  40b3ac:	e006      	b.n	40b3bc <__cmpdf2+0x4>
  40b3ae:	bf00      	nop

0040b3b0 <__ledf2>:
  40b3b0:	f04f 0c01 	mov.w	ip, #1
  40b3b4:	e002      	b.n	40b3bc <__cmpdf2+0x4>
  40b3b6:	bf00      	nop

0040b3b8 <__cmpdf2>:
  40b3b8:	f04f 0c01 	mov.w	ip, #1
  40b3bc:	f84d cd04 	str.w	ip, [sp, #-4]!
  40b3c0:	ea4f 0c41 	mov.w	ip, r1, lsl #1
  40b3c4:	ea7f 5c6c 	mvns.w	ip, ip, asr #21
  40b3c8:	ea4f 0c43 	mov.w	ip, r3, lsl #1
  40b3cc:	bf18      	it	ne
  40b3ce:	ea7f 5c6c 	mvnsne.w	ip, ip, asr #21
  40b3d2:	d01b      	beq.n	40b40c <__cmpdf2+0x54>
  40b3d4:	b001      	add	sp, #4
  40b3d6:	ea50 0c41 	orrs.w	ip, r0, r1, lsl #1
  40b3da:	bf0c      	ite	eq
  40b3dc:	ea52 0c43 	orrseq.w	ip, r2, r3, lsl #1
  40b3e0:	ea91 0f03 	teqne	r1, r3
  40b3e4:	bf02      	ittt	eq
  40b3e6:	ea90 0f02 	teqeq	r0, r2
  40b3ea:	2000      	moveq	r0, #0
  40b3ec:	4770      	bxeq	lr
  40b3ee:	f110 0f00 	cmn.w	r0, #0
  40b3f2:	ea91 0f03 	teq	r1, r3
  40b3f6:	bf58      	it	pl
  40b3f8:	4299      	cmppl	r1, r3
  40b3fa:	bf08      	it	eq
  40b3fc:	4290      	cmpeq	r0, r2
  40b3fe:	bf2c      	ite	cs
  40b400:	17d8      	asrcs	r0, r3, #31
  40b402:	ea6f 70e3 	mvncc.w	r0, r3, asr #31
  40b406:	f040 0001 	orr.w	r0, r0, #1
  40b40a:	4770      	bx	lr
  40b40c:	ea4f 0c41 	mov.w	ip, r1, lsl #1
  40b410:	ea7f 5c6c 	mvns.w	ip, ip, asr #21
  40b414:	d102      	bne.n	40b41c <__cmpdf2+0x64>
  40b416:	ea50 3c01 	orrs.w	ip, r0, r1, lsl #12
  40b41a:	d107      	bne.n	40b42c <__cmpdf2+0x74>
  40b41c:	ea4f 0c43 	mov.w	ip, r3, lsl #1
  40b420:	ea7f 5c6c 	mvns.w	ip, ip, asr #21
  40b424:	d1d6      	bne.n	40b3d4 <__cmpdf2+0x1c>
  40b426:	ea52 3c03 	orrs.w	ip, r2, r3, lsl #12
  40b42a:	d0d3      	beq.n	40b3d4 <__cmpdf2+0x1c>
  40b42c:	f85d 0b04 	ldr.w	r0, [sp], #4
  40b430:	4770      	bx	lr
  40b432:	bf00      	nop

0040b434 <__aeabi_cdrcmple>:
  40b434:	4684      	mov	ip, r0
  40b436:	4610      	mov	r0, r2
  40b438:	4662      	mov	r2, ip
  40b43a:	468c      	mov	ip, r1
  40b43c:	4619      	mov	r1, r3
  40b43e:	4663      	mov	r3, ip
  40b440:	e000      	b.n	40b444 <__aeabi_cdcmpeq>
  40b442:	bf00      	nop

0040b444 <__aeabi_cdcmpeq>:
  40b444:	b501      	push	{r0, lr}
  40b446:	f7ff ffb7 	bl	40b3b8 <__cmpdf2>
  40b44a:	2800      	cmp	r0, #0
  40b44c:	bf48      	it	mi
  40b44e:	f110 0f00 	cmnmi.w	r0, #0
  40b452:	bd01      	pop	{r0, pc}

0040b454 <__aeabi_dcmpeq>:
  40b454:	f84d ed08 	str.w	lr, [sp, #-8]!
  40b458:	f7ff fff4 	bl	40b444 <__aeabi_cdcmpeq>
  40b45c:	bf0c      	ite	eq
  40b45e:	2001      	moveq	r0, #1
  40b460:	2000      	movne	r0, #0
  40b462:	f85d fb08 	ldr.w	pc, [sp], #8
  40b466:	bf00      	nop

0040b468 <__aeabi_dcmplt>:
  40b468:	f84d ed08 	str.w	lr, [sp, #-8]!
  40b46c:	f7ff ffea 	bl	40b444 <__aeabi_cdcmpeq>
  40b470:	bf34      	ite	cc
  40b472:	2001      	movcc	r0, #1
  40b474:	2000      	movcs	r0, #0
  40b476:	f85d fb08 	ldr.w	pc, [sp], #8
  40b47a:	bf00      	nop

0040b47c <__aeabi_dcmple>:
  40b47c:	f84d ed08 	str.w	lr, [sp, #-8]!
  40b480:	f7ff ffe0 	bl	40b444 <__aeabi_cdcmpeq>
  40b484:	bf94      	ite	ls
  40b486:	2001      	movls	r0, #1
  40b488:	2000      	movhi	r0, #0
  40b48a:	f85d fb08 	ldr.w	pc, [sp], #8
  40b48e:	bf00      	nop

0040b490 <__aeabi_dcmpge>:
  40b490:	f84d ed08 	str.w	lr, [sp, #-8]!
  40b494:	f7ff ffce 	bl	40b434 <__aeabi_cdrcmple>
  40b498:	bf94      	ite	ls
  40b49a:	2001      	movls	r0, #1
  40b49c:	2000      	movhi	r0, #0
  40b49e:	f85d fb08 	ldr.w	pc, [sp], #8
  40b4a2:	bf00      	nop

0040b4a4 <__aeabi_dcmpgt>:
  40b4a4:	f84d ed08 	str.w	lr, [sp, #-8]!
  40b4a8:	f7ff ffc4 	bl	40b434 <__aeabi_cdrcmple>
  40b4ac:	bf34      	ite	cc
  40b4ae:	2001      	movcc	r0, #1
  40b4b0:	2000      	movcs	r0, #0
  40b4b2:	f85d fb08 	ldr.w	pc, [sp], #8
  40b4b6:	bf00      	nop

0040b4b8 <__aeabi_dcmpun>:
  40b4b8:	ea4f 0c41 	mov.w	ip, r1, lsl #1
  40b4bc:	ea7f 5c6c 	mvns.w	ip, ip, asr #21
  40b4c0:	d102      	bne.n	40b4c8 <__aeabi_dcmpun+0x10>
  40b4c2:	ea50 3c01 	orrs.w	ip, r0, r1, lsl #12
  40b4c6:	d10a      	bne.n	40b4de <__aeabi_dcmpun+0x26>
  40b4c8:	ea4f 0c43 	mov.w	ip, r3, lsl #1
  40b4cc:	ea7f 5c6c 	mvns.w	ip, ip, asr #21
  40b4d0:	d102      	bne.n	40b4d8 <__aeabi_dcmpun+0x20>
  40b4d2:	ea52 3c03 	orrs.w	ip, r2, r3, lsl #12
  40b4d6:	d102      	bne.n	40b4de <__aeabi_dcmpun+0x26>
  40b4d8:	f04f 0000 	mov.w	r0, #0
  40b4dc:	4770      	bx	lr
  40b4de:	f04f 0001 	mov.w	r0, #1
  40b4e2:	4770      	bx	lr

0040b4e4 <__aeabi_d2iz>:
  40b4e4:	ea4f 0241 	mov.w	r2, r1, lsl #1
  40b4e8:	f512 1200 	adds.w	r2, r2, #2097152	; 0x200000
  40b4ec:	d215      	bcs.n	40b51a <__aeabi_d2iz+0x36>
  40b4ee:	d511      	bpl.n	40b514 <__aeabi_d2iz+0x30>
  40b4f0:	f46f 7378 	mvn.w	r3, #992	; 0x3e0
  40b4f4:	ebb3 5262 	subs.w	r2, r3, r2, asr #21
  40b4f8:	d912      	bls.n	40b520 <__aeabi_d2iz+0x3c>
  40b4fa:	ea4f 23c1 	mov.w	r3, r1, lsl #11
  40b4fe:	f043 4300 	orr.w	r3, r3, #2147483648	; 0x80000000
  40b502:	ea43 5350 	orr.w	r3, r3, r0, lsr #21
  40b506:	f011 4f00 	tst.w	r1, #2147483648	; 0x80000000
  40b50a:	fa23 f002 	lsr.w	r0, r3, r2
  40b50e:	bf18      	it	ne
  40b510:	4240      	negne	r0, r0
  40b512:	4770      	bx	lr
  40b514:	f04f 0000 	mov.w	r0, #0
  40b518:	4770      	bx	lr
  40b51a:	ea50 3001 	orrs.w	r0, r0, r1, lsl #12
  40b51e:	d105      	bne.n	40b52c <__aeabi_d2iz+0x48>
  40b520:	f011 4000 	ands.w	r0, r1, #2147483648	; 0x80000000
  40b524:	bf08      	it	eq
  40b526:	f06f 4000 	mvneq.w	r0, #2147483648	; 0x80000000
  40b52a:	4770      	bx	lr
  40b52c:	f04f 0000 	mov.w	r0, #0
  40b530:	4770      	bx	lr
  40b532:	bf00      	nop

0040b534 <__aeabi_uldivmod>:
  40b534:	b953      	cbnz	r3, 40b54c <__aeabi_uldivmod+0x18>
  40b536:	b94a      	cbnz	r2, 40b54c <__aeabi_uldivmod+0x18>
  40b538:	2900      	cmp	r1, #0
  40b53a:	bf08      	it	eq
  40b53c:	2800      	cmpeq	r0, #0
  40b53e:	bf1c      	itt	ne
  40b540:	f04f 31ff 	movne.w	r1, #4294967295
  40b544:	f04f 30ff 	movne.w	r0, #4294967295
  40b548:	f000 b97e 	b.w	40b848 <__aeabi_idiv0>
  40b54c:	f1ad 0c08 	sub.w	ip, sp, #8
  40b550:	e96d ce04 	strd	ip, lr, [sp, #-16]!
  40b554:	f000 f806 	bl	40b564 <__udivmoddi4>
  40b558:	f8dd e004 	ldr.w	lr, [sp, #4]
  40b55c:	e9dd 2302 	ldrd	r2, r3, [sp, #8]
  40b560:	b004      	add	sp, #16
  40b562:	4770      	bx	lr

0040b564 <__udivmoddi4>:
  40b564:	e92d 47f0 	stmdb	sp!, {r4, r5, r6, r7, r8, r9, sl, lr}
  40b568:	468c      	mov	ip, r1
  40b56a:	460e      	mov	r6, r1
  40b56c:	4604      	mov	r4, r0
  40b56e:	9d08      	ldr	r5, [sp, #32]
  40b570:	2b00      	cmp	r3, #0
  40b572:	d150      	bne.n	40b616 <__udivmoddi4+0xb2>
  40b574:	428a      	cmp	r2, r1
  40b576:	4617      	mov	r7, r2
  40b578:	d96c      	bls.n	40b654 <__udivmoddi4+0xf0>
  40b57a:	fab2 fe82 	clz	lr, r2
  40b57e:	f1be 0f00 	cmp.w	lr, #0
  40b582:	d00b      	beq.n	40b59c <__udivmoddi4+0x38>
  40b584:	f1ce 0420 	rsb	r4, lr, #32
  40b588:	fa20 f404 	lsr.w	r4, r0, r4
  40b58c:	fa01 f60e 	lsl.w	r6, r1, lr
  40b590:	ea44 0c06 	orr.w	ip, r4, r6
  40b594:	fa02 f70e 	lsl.w	r7, r2, lr
  40b598:	fa00 f40e 	lsl.w	r4, r0, lr
  40b59c:	ea4f 4917 	mov.w	r9, r7, lsr #16
  40b5a0:	0c22      	lsrs	r2, r4, #16
  40b5a2:	fbbc f0f9 	udiv	r0, ip, r9
  40b5a6:	fa1f f887 	uxth.w	r8, r7
  40b5aa:	fb09 c610 	mls	r6, r9, r0, ip
  40b5ae:	ea42 4606 	orr.w	r6, r2, r6, lsl #16
  40b5b2:	fb00 f308 	mul.w	r3, r0, r8
  40b5b6:	42b3      	cmp	r3, r6
  40b5b8:	d909      	bls.n	40b5ce <__udivmoddi4+0x6a>
  40b5ba:	19f6      	adds	r6, r6, r7
  40b5bc:	f100 32ff 	add.w	r2, r0, #4294967295
  40b5c0:	f080 8122 	bcs.w	40b808 <__udivmoddi4+0x2a4>
  40b5c4:	42b3      	cmp	r3, r6
  40b5c6:	f240 811f 	bls.w	40b808 <__udivmoddi4+0x2a4>
  40b5ca:	3802      	subs	r0, #2
  40b5cc:	443e      	add	r6, r7
  40b5ce:	1af6      	subs	r6, r6, r3
  40b5d0:	b2a2      	uxth	r2, r4
  40b5d2:	fbb6 f3f9 	udiv	r3, r6, r9
  40b5d6:	fb09 6613 	mls	r6, r9, r3, r6
  40b5da:	ea42 4406 	orr.w	r4, r2, r6, lsl #16
  40b5de:	fb03 f808 	mul.w	r8, r3, r8
  40b5e2:	45a0      	cmp	r8, r4
  40b5e4:	d909      	bls.n	40b5fa <__udivmoddi4+0x96>
  40b5e6:	19e4      	adds	r4, r4, r7
  40b5e8:	f103 32ff 	add.w	r2, r3, #4294967295
  40b5ec:	f080 810a 	bcs.w	40b804 <__udivmoddi4+0x2a0>
  40b5f0:	45a0      	cmp	r8, r4
  40b5f2:	f240 8107 	bls.w	40b804 <__udivmoddi4+0x2a0>
  40b5f6:	3b02      	subs	r3, #2
  40b5f8:	443c      	add	r4, r7
  40b5fa:	ebc8 0404 	rsb	r4, r8, r4
  40b5fe:	ea43 4000 	orr.w	r0, r3, r0, lsl #16
  40b602:	2100      	movs	r1, #0
  40b604:	2d00      	cmp	r5, #0
  40b606:	d062      	beq.n	40b6ce <__udivmoddi4+0x16a>
  40b608:	fa24 f40e 	lsr.w	r4, r4, lr
  40b60c:	2300      	movs	r3, #0
  40b60e:	602c      	str	r4, [r5, #0]
  40b610:	606b      	str	r3, [r5, #4]
  40b612:	e8bd 87f0 	ldmia.w	sp!, {r4, r5, r6, r7, r8, r9, sl, pc}
  40b616:	428b      	cmp	r3, r1
  40b618:	d907      	bls.n	40b62a <__udivmoddi4+0xc6>
  40b61a:	2d00      	cmp	r5, #0
  40b61c:	d055      	beq.n	40b6ca <__udivmoddi4+0x166>
  40b61e:	2100      	movs	r1, #0
  40b620:	e885 0041 	stmia.w	r5, {r0, r6}
  40b624:	4608      	mov	r0, r1
  40b626:	e8bd 87f0 	ldmia.w	sp!, {r4, r5, r6, r7, r8, r9, sl, pc}
  40b62a:	fab3 f183 	clz	r1, r3
  40b62e:	2900      	cmp	r1, #0
  40b630:	f040 8090 	bne.w	40b754 <__udivmoddi4+0x1f0>
  40b634:	42b3      	cmp	r3, r6
  40b636:	d302      	bcc.n	40b63e <__udivmoddi4+0xda>
  40b638:	4282      	cmp	r2, r0
  40b63a:	f200 80f8 	bhi.w	40b82e <__udivmoddi4+0x2ca>
  40b63e:	1a84      	subs	r4, r0, r2
  40b640:	eb66 0603 	sbc.w	r6, r6, r3
  40b644:	2001      	movs	r0, #1
  40b646:	46b4      	mov	ip, r6
  40b648:	2d00      	cmp	r5, #0
  40b64a:	d040      	beq.n	40b6ce <__udivmoddi4+0x16a>
  40b64c:	e885 1010 	stmia.w	r5, {r4, ip}
  40b650:	e8bd 87f0 	ldmia.w	sp!, {r4, r5, r6, r7, r8, r9, sl, pc}
  40b654:	b912      	cbnz	r2, 40b65c <__udivmoddi4+0xf8>
  40b656:	2701      	movs	r7, #1
  40b658:	fbb7 f7f2 	udiv	r7, r7, r2
  40b65c:	fab7 fe87 	clz	lr, r7
  40b660:	f1be 0f00 	cmp.w	lr, #0
  40b664:	d135      	bne.n	40b6d2 <__udivmoddi4+0x16e>
  40b666:	1bf3      	subs	r3, r6, r7
  40b668:	ea4f 4817 	mov.w	r8, r7, lsr #16
  40b66c:	fa1f fc87 	uxth.w	ip, r7
  40b670:	2101      	movs	r1, #1
  40b672:	fbb3 f0f8 	udiv	r0, r3, r8
  40b676:	0c22      	lsrs	r2, r4, #16
  40b678:	fb08 3610 	mls	r6, r8, r0, r3
  40b67c:	ea42 4606 	orr.w	r6, r2, r6, lsl #16
  40b680:	fb0c f300 	mul.w	r3, ip, r0
  40b684:	42b3      	cmp	r3, r6
  40b686:	d907      	bls.n	40b698 <__udivmoddi4+0x134>
  40b688:	19f6      	adds	r6, r6, r7
  40b68a:	f100 32ff 	add.w	r2, r0, #4294967295
  40b68e:	d202      	bcs.n	40b696 <__udivmoddi4+0x132>
  40b690:	42b3      	cmp	r3, r6
  40b692:	f200 80ce 	bhi.w	40b832 <__udivmoddi4+0x2ce>
  40b696:	4610      	mov	r0, r2
  40b698:	1af6      	subs	r6, r6, r3
  40b69a:	b2a2      	uxth	r2, r4
  40b69c:	fbb6 f3f8 	udiv	r3, r6, r8
  40b6a0:	fb08 6613 	mls	r6, r8, r3, r6
  40b6a4:	ea42 4406 	orr.w	r4, r2, r6, lsl #16
  40b6a8:	fb0c fc03 	mul.w	ip, ip, r3
  40b6ac:	45a4      	cmp	ip, r4
  40b6ae:	d907      	bls.n	40b6c0 <__udivmoddi4+0x15c>
  40b6b0:	19e4      	adds	r4, r4, r7
  40b6b2:	f103 32ff 	add.w	r2, r3, #4294967295
  40b6b6:	d202      	bcs.n	40b6be <__udivmoddi4+0x15a>
  40b6b8:	45a4      	cmp	ip, r4
  40b6ba:	f200 80b5 	bhi.w	40b828 <__udivmoddi4+0x2c4>
  40b6be:	4613      	mov	r3, r2
  40b6c0:	ebcc 0404 	rsb	r4, ip, r4
  40b6c4:	ea43 4000 	orr.w	r0, r3, r0, lsl #16
  40b6c8:	e79c      	b.n	40b604 <__udivmoddi4+0xa0>
  40b6ca:	4629      	mov	r1, r5
  40b6cc:	4628      	mov	r0, r5
  40b6ce:	e8bd 87f0 	ldmia.w	sp!, {r4, r5, r6, r7, r8, r9, sl, pc}
  40b6d2:	f1ce 0120 	rsb	r1, lr, #32
  40b6d6:	fa06 f30e 	lsl.w	r3, r6, lr
  40b6da:	fa07 f70e 	lsl.w	r7, r7, lr
  40b6de:	fa20 f901 	lsr.w	r9, r0, r1
  40b6e2:	ea4f 4817 	mov.w	r8, r7, lsr #16
  40b6e6:	40ce      	lsrs	r6, r1
  40b6e8:	ea49 0903 	orr.w	r9, r9, r3
  40b6ec:	fbb6 faf8 	udiv	sl, r6, r8
  40b6f0:	ea4f 4419 	mov.w	r4, r9, lsr #16
  40b6f4:	fb08 661a 	mls	r6, r8, sl, r6
  40b6f8:	fa1f fc87 	uxth.w	ip, r7
  40b6fc:	ea44 4306 	orr.w	r3, r4, r6, lsl #16
  40b700:	fb0a f20c 	mul.w	r2, sl, ip
  40b704:	429a      	cmp	r2, r3
  40b706:	fa00 f40e 	lsl.w	r4, r0, lr
  40b70a:	d90a      	bls.n	40b722 <__udivmoddi4+0x1be>
  40b70c:	19db      	adds	r3, r3, r7
  40b70e:	f10a 31ff 	add.w	r1, sl, #4294967295
  40b712:	f080 8087 	bcs.w	40b824 <__udivmoddi4+0x2c0>
  40b716:	429a      	cmp	r2, r3
  40b718:	f240 8084 	bls.w	40b824 <__udivmoddi4+0x2c0>
  40b71c:	f1aa 0a02 	sub.w	sl, sl, #2
  40b720:	443b      	add	r3, r7
  40b722:	1a9b      	subs	r3, r3, r2
  40b724:	fa1f f989 	uxth.w	r9, r9
  40b728:	fbb3 f1f8 	udiv	r1, r3, r8
  40b72c:	fb08 3311 	mls	r3, r8, r1, r3
  40b730:	ea49 4303 	orr.w	r3, r9, r3, lsl #16
  40b734:	fb01 f60c 	mul.w	r6, r1, ip
  40b738:	429e      	cmp	r6, r3
  40b73a:	d907      	bls.n	40b74c <__udivmoddi4+0x1e8>
  40b73c:	19db      	adds	r3, r3, r7
  40b73e:	f101 32ff 	add.w	r2, r1, #4294967295
  40b742:	d26b      	bcs.n	40b81c <__udivmoddi4+0x2b8>
  40b744:	429e      	cmp	r6, r3
  40b746:	d969      	bls.n	40b81c <__udivmoddi4+0x2b8>
  40b748:	3902      	subs	r1, #2
  40b74a:	443b      	add	r3, r7
  40b74c:	1b9b      	subs	r3, r3, r6
  40b74e:	ea41 410a 	orr.w	r1, r1, sl, lsl #16
  40b752:	e78e      	b.n	40b672 <__udivmoddi4+0x10e>
  40b754:	f1c1 0e20 	rsb	lr, r1, #32
  40b758:	fa22 f40e 	lsr.w	r4, r2, lr
  40b75c:	408b      	lsls	r3, r1
  40b75e:	4323      	orrs	r3, r4
  40b760:	fa20 f70e 	lsr.w	r7, r0, lr
  40b764:	fa06 f401 	lsl.w	r4, r6, r1
  40b768:	ea4f 4c13 	mov.w	ip, r3, lsr #16
  40b76c:	fa26 f60e 	lsr.w	r6, r6, lr
  40b770:	433c      	orrs	r4, r7
  40b772:	fbb6 f9fc 	udiv	r9, r6, ip
  40b776:	0c27      	lsrs	r7, r4, #16
  40b778:	fb0c 6619 	mls	r6, ip, r9, r6
  40b77c:	fa1f f883 	uxth.w	r8, r3
  40b780:	ea47 4606 	orr.w	r6, r7, r6, lsl #16
  40b784:	fb09 f708 	mul.w	r7, r9, r8
  40b788:	42b7      	cmp	r7, r6
  40b78a:	fa02 f201 	lsl.w	r2, r2, r1
  40b78e:	fa00 fa01 	lsl.w	sl, r0, r1
  40b792:	d908      	bls.n	40b7a6 <__udivmoddi4+0x242>
  40b794:	18f6      	adds	r6, r6, r3
  40b796:	f109 30ff 	add.w	r0, r9, #4294967295
  40b79a:	d241      	bcs.n	40b820 <__udivmoddi4+0x2bc>
  40b79c:	42b7      	cmp	r7, r6
  40b79e:	d93f      	bls.n	40b820 <__udivmoddi4+0x2bc>
  40b7a0:	f1a9 0902 	sub.w	r9, r9, #2
  40b7a4:	441e      	add	r6, r3
  40b7a6:	1bf6      	subs	r6, r6, r7
  40b7a8:	b2a0      	uxth	r0, r4
  40b7aa:	fbb6 f4fc 	udiv	r4, r6, ip
  40b7ae:	fb0c 6614 	mls	r6, ip, r4, r6
  40b7b2:	ea40 4706 	orr.w	r7, r0, r6, lsl #16
  40b7b6:	fb04 f808 	mul.w	r8, r4, r8
  40b7ba:	45b8      	cmp	r8, r7
  40b7bc:	d907      	bls.n	40b7ce <__udivmoddi4+0x26a>
  40b7be:	18ff      	adds	r7, r7, r3
  40b7c0:	f104 30ff 	add.w	r0, r4, #4294967295
  40b7c4:	d228      	bcs.n	40b818 <__udivmoddi4+0x2b4>
  40b7c6:	45b8      	cmp	r8, r7
  40b7c8:	d926      	bls.n	40b818 <__udivmoddi4+0x2b4>
  40b7ca:	3c02      	subs	r4, #2
  40b7cc:	441f      	add	r7, r3
  40b7ce:	ea44 4009 	orr.w	r0, r4, r9, lsl #16
  40b7d2:	ebc8 0707 	rsb	r7, r8, r7
  40b7d6:	fba0 8902 	umull	r8, r9, r0, r2
  40b7da:	454f      	cmp	r7, r9
  40b7dc:	4644      	mov	r4, r8
  40b7de:	464e      	mov	r6, r9
  40b7e0:	d314      	bcc.n	40b80c <__udivmoddi4+0x2a8>
  40b7e2:	d029      	beq.n	40b838 <__udivmoddi4+0x2d4>
  40b7e4:	b365      	cbz	r5, 40b840 <__udivmoddi4+0x2dc>
  40b7e6:	ebba 0304 	subs.w	r3, sl, r4
  40b7ea:	eb67 0706 	sbc.w	r7, r7, r6
  40b7ee:	fa07 fe0e 	lsl.w	lr, r7, lr
  40b7f2:	40cb      	lsrs	r3, r1
  40b7f4:	40cf      	lsrs	r7, r1
  40b7f6:	ea4e 0303 	orr.w	r3, lr, r3
  40b7fa:	e885 0088 	stmia.w	r5, {r3, r7}
  40b7fe:	2100      	movs	r1, #0
  40b800:	e8bd 87f0 	ldmia.w	sp!, {r4, r5, r6, r7, r8, r9, sl, pc}
  40b804:	4613      	mov	r3, r2
  40b806:	e6f8      	b.n	40b5fa <__udivmoddi4+0x96>
  40b808:	4610      	mov	r0, r2
  40b80a:	e6e0      	b.n	40b5ce <__udivmoddi4+0x6a>
  40b80c:	ebb8 0402 	subs.w	r4, r8, r2
  40b810:	eb69 0603 	sbc.w	r6, r9, r3
  40b814:	3801      	subs	r0, #1
  40b816:	e7e5      	b.n	40b7e4 <__udivmoddi4+0x280>
  40b818:	4604      	mov	r4, r0
  40b81a:	e7d8      	b.n	40b7ce <__udivmoddi4+0x26a>
  40b81c:	4611      	mov	r1, r2
  40b81e:	e795      	b.n	40b74c <__udivmoddi4+0x1e8>
  40b820:	4681      	mov	r9, r0
  40b822:	e7c0      	b.n	40b7a6 <__udivmoddi4+0x242>
  40b824:	468a      	mov	sl, r1
  40b826:	e77c      	b.n	40b722 <__udivmoddi4+0x1be>
  40b828:	3b02      	subs	r3, #2
  40b82a:	443c      	add	r4, r7
  40b82c:	e748      	b.n	40b6c0 <__udivmoddi4+0x15c>
  40b82e:	4608      	mov	r0, r1
  40b830:	e70a      	b.n	40b648 <__udivmoddi4+0xe4>
  40b832:	3802      	subs	r0, #2
  40b834:	443e      	add	r6, r7
  40b836:	e72f      	b.n	40b698 <__udivmoddi4+0x134>
  40b838:	45c2      	cmp	sl, r8
  40b83a:	d3e7      	bcc.n	40b80c <__udivmoddi4+0x2a8>
  40b83c:	463e      	mov	r6, r7
  40b83e:	e7d1      	b.n	40b7e4 <__udivmoddi4+0x280>
  40b840:	4629      	mov	r1, r5
  40b842:	e8bd 87f0 	ldmia.w	sp!, {r4, r5, r6, r7, r8, r9, sl, pc}
  40b846:	bf00      	nop

0040b848 <__aeabi_idiv0>:
  40b848:	4770      	bx	lr
  40b84a:	bf00      	nop

0040b84c <sd_trans_multipliers>:
  40b84c:	0000 0000 000a 0000 000c 0000 000d 0000     ................
  40b85c:	000f 0000 0014 0000 0019 0000 001e 0000     ................
  40b86c:	0023 0000 0028 0000 002d 0000 0032 0000     #...(...-...2...
  40b87c:	0037 0000 003c 0000 0046 0000 0050 0000     7...<...F...P...

0040b88c <sd_mmc_trans_units>:
  40b88c:	000a 0000 0064 0000 03e8 0000 2710 0000     ....d........'..
	...

0040b8a8 <mmc_trans_multipliers>:
  40b8a8:	0000 0000 000a 0000 000c 0000 000d 0000     ................
  40b8b8:	000f 0000 0014 0000 001a 0000 001e 0000     ................
  40b8c8:	0023 0000 0028 0000 002d 0000 0034 0000     #...(...-...4...
  40b8d8:	0037 0000 003c 0000 0046 0000 0050 0000     7...<...F...P...

0040b8e8 <__FUNCTION__.10333>:
  40b8e8:	6d6e 625f 7375 695f 636f 6c74 0000 0000     nm_bus_ioctl....
  40b8f8:	4128 5050 2829 5245 2952 255b 5d73 255b     (APP)(ERR)[%s][%
  40b908:	5d64 0000 6e49 6176 696c 2064 4f49 5443     d]..Invalid IOCT
  40b918:	204c 6f63 6d6d 6e61 2164 000a               L command!..

0040b924 <__FUNCTION__.8784>:
  40b924:	6968 5f66 7369 0072                         hif_isr.

0040b92c <__FUNCTION__.8805>:
  40b92c:	6968 5f66 6572 6563 7669 0065 4828 4649     hif_receive.(HIF
  40b93c:	4629 6961 206c 6f74 7720 6b61 7075 7420     )Fail to wakup t
  40b94c:	6568 6320 6968 0a70 0000 0000 6828 6669     he chip.....(hif
  40b95c:	2029 4957 4946 485f 534f 5f54 4352 5f56     ) WIFI_HOST_RCV_
  40b96c:	5443 4c52 315f 6220 7375 6620 6961 0a6c     CTRL_1 bus fail.
  40b97c:	0000 0000 6828 6669 2029 6461 7264 7365     ....(hif) addres
  40b98c:	2073 7562 2073 6166 6c69 000a 6828 6669     s bus fail..(hif
  40b99c:	2029 6f43 7272 7075 6574 2064 6170 6b63     ) Corrupted pack
  40b9ac:	7465 5320 7a69 2065 203d 7525 3c20 204c     et Size = %u <L 
  40b9bc:	203d 7525 202c 2047 203d 7525 202c 504f     = %u, G = %u, OP
  40b9cc:	3d20 2520 3230 3e58 000a 0000 6828 6669      = %02X>....(hif
  40b9dc:	2029 6e69 6176 696c 2064 7267 756f 2070     ) invalid group 
  40b9ec:	4449 000a 6828 6669 2029 6f68 7473 6120     ID..(hif) host a
  40b9fc:	7070 6420 6469 276e 2074 6573 2074 5852     pp didn't set RX
  40ba0c:	4420 6e6f 0a65 0000 6828 6669 2029 7257      Done...(hif) Wr
  40ba1c:	6e6f 2067 6953 657a 000a 0000 6828 6669     ong Size....(hif
  40ba2c:	2029 6146 736c 2065 6e69 6574 7272 7075     ) False interrup
  40ba3c:	2074 6c25 0078 0000 6828 6669 2029 6146     t %lx...(hif) Fa
  40ba4c:	6c69 7420 206f 6552 6461 6920 746e 7265     il to Read inter
  40ba5c:	7572 7470 7220 6765 000a 0000 6828 6669     rupt reg....(hif
  40ba6c:	2029 4146 4c49 7420 206f 6177 656b 7075     ) FAIL to wakeup
  40ba7c:	7420 6568 6320 6968 0a70 0000 4828 4649      the chip...(HIF
  40ba8c:	2029 6146 6c69 7420 206f 6168 646e 656c     ) Fail to handle
  40ba9c:	6920 746e 7265 7572 7470 2520 2064 7274      interrupt %d tr
  40baac:	2079 6741 6961 2e6e 0a2e 0000 6820 6669     y Again..... hif
  40babc:	725f 6365 6965 6576 203a 6e49 6176 696c     _receive: Invali
  40bacc:	2064 7261 7567 656d 746e 000a 5041 2050     d argument..APP 
  40badc:	6552 7571 7365 6574 2064 6953 657a 6920     Requested Size i
  40baec:	2073 616c 6772 7265 7420 6168 206e 6874     s larger than th
  40bafc:	2065 6572 6963 6576 2064 7562 6666 7265     e recived buffer
  40bb0c:	7320 7a69 2065 253c 3e64 253c 3e64 000a      size <%d><%d>..
  40bb1c:	5041 2050 6552 7571 7365 6574 2064 6441     APP Requested Ad
  40bb2c:	7264 7365 2073 6562 6f79 646e 7420 6568     dress beyond the
  40bb3c:	7220 6365 7669 6465 6220 6675 6566 2072      recived buffer 
  40bb4c:	6461 7264 7365 2073 6e61 2064 656c 676e     address and leng
  40bb5c:	6874 000a 5247 2070 203f 6425 000a 0000     th..GRp ? %d....

0040bb6c <__FUNCTION__.8820>:
  40bb6c:	6968 5f66 6572 6967 7473 7265 635f 0062     hif_register_cb.

0040bb7c <__FUNCTION__.8774>:
  40bb7c:	6968 5f66 6573 646e 0000 0000               hif_send....

0040bb88 <__FUNCTION__.8790>:
  40bb88:	6968 5f66 6168 646e 656c 695f 7273 0000     hif_handle_isr..

0040bb98 <__FUNCTION__.8799>:
  40bb98:	326d 5f6d 6977 6966 635f 6e6f 656e 7463     m2m_wifi_connect
  40bba8:	735f 0063                                   _sc.

0040bbac <__FUNCTION__.8747>:
  40bbac:	326d 5f6d 6977 6966 635f 0062 4128 5050     m2m_wifi_cb.(APP
  40bbbc:	2829 4e49 4f46 0029 6f43 666e 696c 7463     )(INFO).Conflict
  40bbcc:	6465 4920 2050 2022 7525 252e 2e75 7525     ed IP " %u.%u.%u
  40bbdc:	252e 2075 2022 000a 4552 2051 6f4e 2074     .%u " ..REQ Not 
  40bbec:	6564 6966 656e 2064 6425 000a 4e49 4156     defined %d..INVA
  40bbfc:	494c 2044 4f50 4e49 4554 0a52 0000 0000     LID POINTER.....
  40bc0c:	4e49 4156 494c 2044 5353 4449 000a 0000     INVALID SSID....
  40bc1c:	4e49 4156 494c 2044 4843 000a 4e49 4156     INVALID CH..INVA
  40bc2c:	494c 2044 4844 5043 5320 5245 4556 2052     LID DHCP SERVER 
  40bc3c:	5049 000a 4e49 4156 494c 2044 454b 2059     IP..INVALID KEY 
  40bc4c:	4e49 4544 0a58 0000 4e49 4156 494c 2044     INDEX...INVALID 
  40bc5c:	454b 2059 4953 455a 000a 0000 4e49 4156     KEY SIZE....INVA
  40bc6c:	494c 2044 4557 2050 454b 0a59 0000 0000     LID WEP KEY.....
  40bc7c:	4e49 4156 494c 2044 5541 4854 4e45 4954     INVALID AUTHENTI
  40bc8c:	4143 4954 4e4f 4d20 444f 0a45 0000 0000     CATION MODE.....
  40bc9c:	6946 6d72 6177 6572 7620 7265 2020 3a20     Firmware ver   :
  40bcac:	2520 2e75 7525 252e 0a75 0000 694d 206e      %u.%u.%u...Min 
  40bcbc:	7264 7669 7265 7620 7265 3a20 2520 2e75     driver ver : %u.
  40bccc:	7525 252e 0a75 0000 7543 7272 6420 6972     %u.%u...Curr dri
  40bcdc:	6576 2072 6576 3a72 2520 2e75 7525 252e     ver ver: %u.%u.%
  40bcec:	0a75 0000 694d 6d73 7461 6863 4620 7269     u...Mismatch Fir
  40bcfc:	616d 7277 2065 6556 7372 6f69 0a6e 0000     mawre Version...
  40bd0c:	654b 2079 7369 6e20 746f 7620 6c61 6469     Key is not valid
  40bd1c:	000a 0000 6e49 6176 696c 2064 654b 0a79     ....Invalid Key.
  40bd2c:	0000 0000 5353 4449 4c20 4e45 4920 564e     ....SSID LEN INV
  40bd3c:	4c41 4449 000a 0000 4843 4920 564e 4c41     ALID....CH INVAL
  40bd4c:	4449 000a 6e49 6176 696c 2064 6557 2070     ID..Invalid Wep 
  40bd5c:	656b 2079 6e69 6564 2078 6425 000a 0000     key index %d....
  40bd6c:	6e49 6176 696c 2064 6557 2070 656b 2079     Invalid Wep key 
  40bd7c:	656c 676e 6874 2520 0a64 0000 6e49 6f63     length %d...Inco
  40bd8c:	7272 6365 2074 5350 204b 656b 2079 656c     rrect PSK key le
  40bd9c:	676e 6874 000a 0000 6e75 6564 6966 656e     ngth....undefine
  40bdac:	2064 6573 2063 7974 6570 000a 4e49 4156     d sec type..INVA
  40bdbc:	494c 2044 6f4e 6f20 2066 6373 6e61 7320     LID No of scan s
  40bdcc:	6f6c 7374 0a21 0000 4e49 4156 494c 2044     lots!...INVALID 
  40bddc:	6373 6e61 7320 6f6c 2074 6974 656d 0a21     scan slot time!.
  40bdec:	0000 0000 4e49 4156 494c 2044 6f4e 6f20     ....INVALID No o
  40bdfc:	2066 7270 626f 2065 6572 7571 7365 7374     f probe requests
  40be0c:	7020 7265 7320 6163 206e 6c73 746f 000a      per scan slot..
  40be1c:	4e49 4156 494c 2044 5352 4953 7420 7268     INVALID RSSI thr
  40be2c:	7365 6f68 646c 2520 2064 000a 505f 5f53     eshold %d .._PS_
  40be3c:	4553 5652 5245 205f 7369 6e20 746f 6420     SERVER_ is not d
  40be4c:	6665 6e69 6465 000a 694c 7473 6e65 6320     efined..Listen c
  40be5c:	6168 6e6e 6c65 7320 6f68 6c75 2064 6e6f     hannel should on
  40be6c:	796c 6220 2065 2c31 3620 6f20 2072 3131     ly be 1, 6 or 11
  40be7c:	000a 0000 4f50 4557 2052 4153 4556 2520     ....POWER SAVE %
  40be8c:	0a64 0000 4e49 4156 494c 2044 4f44 414d     d...INVALID DOMA
  40be9c:	4e49 4e20 4d41 0a45 0000 0000 5250 474e     IN NAME.....PRNG
  40beac:	4220 6675 6566 2072 7865 6563 6465 6465      Buffer exceeded
  40bebc:	6d20 7861 6d69 6d75 7320 7a69 2065 6425      maximum size %d
  40becc:	6f20 2072 554e 4c4c 4220 6675 6566 0a72      or NULL Buffer.
  40bedc:	0000 0000                                   ....

0040bee0 <__FUNCTION__.8771>:
  40bee0:	326d 5f6d 6977 6966 695f 696e 0074 0000     m2m_wifi_init...

0040bef0 <__FUNCTION__.8678>:
  40bef0:	6863 7069 645f 6965 696e 0074               chip_deinit.

0040befc <__FUNCTION__.8584>:
  40befc:	6d6e 635f 6b6c 656c 7373 775f 6b61 0065     nm_clkless_wake.
  40bf0c:	7542 2073 7265 6f72 2072 3128 2e29 5720     Bus error (1). W
  40bf1c:	6b61 2065 7075 6620 6961 656c 0a64 0000     ake up failed...
  40bf2c:	7542 2073 7265 6f72 2072 3228 2e29 5720     Bus error (2). W
  40bf3c:	6b61 2065 7075 6620 6961 656c 0a64 0000     ake up failed...
  40bf4c:	6c63 636f 736b 7320 6974 6c6c 4f20 4646     clocks still OFF
  40bf5c:	202e 6157 656b 7520 2070 6166 6c69 6465     . Wake up failed
  40bf6c:	000a 0000 6e5b 696d 7320 6174 7472 3a5d     ....[nmi start]:
  40bf7c:	6620 6961 206c 6572 6461 7220 6765 3020      fail read reg 0
  40bf8c:	3178 3131 2038 2e2e 0a2e 0000 6572 3a67     x1118 ......reg:
  40bf9c:	7825 2f20 2520 2078 000a 0000 6166 6c69     %x / %x ....fail
  40bfac:	6465 7420 206f 6564 692d 696e 6974 6c61     ed to de-initial
  40bfbc:	7a69 0a65 0000 0000 7245 6f72 2072 6877     ize.....Error wh
  40bfcc:	6c69 2065 7277 7469 6e69 2067 6572 0a67     ile writing reg.
  40bfdc:	0000 0000 7245 6f72 2072 6877 6c69 2065     ....Error while 
  40bfec:	6572 6461 6e69 2067 6572 0a67 0000 0000     reading reg.....
  40bffc:	705b 6c75 756c 5f70 7463 6c72 3a5d 6620     [pullup_ctrl]: f
  40c00c:	6961 656c 2064 6f74 7220 6165 0a64 0000     ailed to read...
  40c01c:	705b 6c75 756c 5f70 7463 6c72 3a5d 6620     [pullup_ctrl]: f
  40c02c:	6961 656c 2064 6f74 7720 6972 6574 000a     ailed to write..
  40c03c:	6e5b 696d 7320 6174 7472 3a5d 6620 6961     [nmi start]: fai
  40c04c:	206c 6e69 7469 6220 7375 000a 6843 7069     l init bus..Chip
  40c05c:	4920 2044 6c25 0a78 0000 0000 6166 6c69      ID %lx.....fail
  40c06c:	6465 7420 206f 6e65 6261 656c 6920 746e     ed to enable int
  40c07c:	7265 7572 7470 2e73 0a2e 0000 6e5b 696d     errupts.....[nmi
  40c08c:	7320 6f74 5d70 203a 6863 7069 645f 6965      stop]: chip_dei
  40c09c:	696e 2074 6166 6c69 000a 0000 6e5b 696d     nit fail....[nmi
  40c0ac:	7320 6f74 5d70 203a 5053 2049 6c66 7361      stop]: SPI flas
  40c0bc:	2068 6964 6173 6c62 2065 6166 6c69 000a     h disable fail..
  40c0cc:	6e5b 696d 7320 6f74 5d70 203a 6166 6c69     [nmi stop]: fail
  40c0dc:	6920 696e 2074 7562 0a73 0000                init bus...

0040c0e8 <__FUNCTION__.8665>:
  40c0e8:	6d6e 645f 7672 695f 696e 0074               nm_drv_init.

0040c0f4 <__FUNCTION__.8672>:
  40c0f4:	6d6e 645f 7672 645f 6965 696e 0074 0000     nm_drv_deinit...

0040c104 <__FUNCTION__.8073>:
  40c104:	7073 5f69 6164 6174 725f 6165 0064 0000     spi_data_read...

0040c114 <crc7_syndrome_table>:
  40c114:	0900 1b12 2d24 3f36 4148 535a 656c 777e     ....$-6?HAZSle~w
  40c124:	1019 020b 343d 262f 5851 4a43 7c75 6e67     ....=4/&QXCJu|gn
  40c134:	3b32 2920 1f16 0d04 737a 6168 575e 454c     2; )....zsha^WLE
  40c144:	222b 3039 060f 141d 6a63 7871 4e47 5c55     +"90....cjqxGNU\
  40c154:	6d64 7f76 4940 5b52 252c 373e 0108 131a     dmv.@IR[,%>7....
  40c164:	747d 666f 5059 424b 3c35 2e27 1811 0a03     }tofYPKB5<'.....
  40c174:	5f56 4d44 7b72 6960 171e 050c 333a 2128     V_DMr{`i....:3(!
  40c184:	464f 545d 626b 7079 0e07 1c15 2a23 3831     OF]Tkbyp....#*18
  40c194:	4841 5a53 6c65 7e77 0009 121b 242d 363f     AHSZelw~....-$?6
  40c1a4:	5158 434a 757c 676e 1910 0b02 3d34 2f26     XQJC|ung....4=&/
  40c1b4:	7a73 6861 5e57 4c45 323b 2029 161f 040d     szahW^EL;2) ....
  40c1c4:	636a 7178 474e 555c 2b22 3930 0f06 1d14     jcxqNG\U"+09....
  40c1d4:	2c25 3e37 0801 1a13 646d 767f 4049 525b     %,7>....md.vI@[R
  40c1e4:	353c 272e 1118 030a 7d74 6f66 5950 4b42     <5.'....t}foPYBK
  40c1f4:	1e17 0c05 3a33 2821 565f 444d 727b 6069     ....3:!(_VMD{ri`
  40c204:	070e 151c 232a 3138 4f46 5d54 6b62 7970     ....*#81FOT]bkpy

0040c214 <__FUNCTION__.8140>:
  40c214:	6d6e 735f 6970 695f 696e 0074               nm_spi_init.

0040c220 <__FUNCTION__.8088>:
  40c220:	7073 5f69 6164 6174 775f 6972 6574 0000     spi_data_write..

0040c230 <__FUNCTION__.8123>:
  40c230:	6d6e 735f 6970 725f 6165 0064 6e5b 696d     nm_spi_read.[nmi
  40c240:	7320 6970 3a5d 4620 6961 656c 2064 6d63      spi]: Failed cm
  40c250:	2064 6572 7073 6e6f 6573 7220 6165 2c64     d response read,
  40c260:	6220 7375 6520 7272 726f 2e2e 0a2e 0000      bus error......
  40c270:	6e5b 696d 7320 6970 3a5d 4620 6961 656c     [nmi spi]: Faile
  40c280:	2064 6164 6174 7220 7365 6f70 736e 2065     d data response 
  40c290:	6572 6461 202c 7562 2073 7265 6f72 2e72     read, bus error.
  40c2a0:	2e2e 000a 6e5b 696d 7320 6970 3a5d 4620     ....[nmi spi]: F
  40c2b0:	6961 656c 2064 6164 6174 7220 7365 6f70     ailed data respo
  40c2c0:	736e 2065 6572 6461 2e2e 282e 3025 7832     nse read...(%02x
  40c2d0:	0a29 0000 6e5b 696d 7320 6970 3a5d 4620     )...[nmi spi]: F
  40c2e0:	6961 656c 2064 6164 6174 6220 6f6c 6b63     ailed data block
  40c2f0:	7220 6165 2c64 6220 7375 6520 7272 726f      read, bus error
  40c300:	2e2e 0a2e 0000 0000 6e5b 696d 7320 6970     ........[nmi spi
  40c310:	3a5d 4620 6961 656c 2064 6164 6174 6220     ]: Failed data b
  40c320:	6f6c 6b63 6320 6372 7220 6165 2c64 6220     lock crc read, b
  40c330:	7375 6520 7272 726f 2e2e 0a2e 0000 0000     us error........
  40c340:	6e5b 696d 7320 6970 3a5d 4620 6961 656c     [nmi spi]: Faile
  40c350:	2064 6d63 2064 7277 7469 2c65 6220 7375     d cmd write, bus
  40c360:	6520 7272 726f 2e2e 0a2e 0000 6e5b 696d      error......[nmi
  40c370:	7320 6970 3a5d 4620 6961 656c 2064 6d63      spi]: Failed cm
  40c380:	2c64 7720 6972 6574 7220 6765 2820 3025     d, write reg (%0
  40c390:	7838 2e29 2e2e 000a 6e5b 696d 7320 6970     8x).....[nmi spi
  40c3a0:	3a5d 4620 6961 656c 2064 6d63 2064 6572     ]: Failed cmd re
  40c3b0:	7073 6e6f 6573 202c 7277 7469 2065 6572     sponse, write re
  40c3c0:	2067 2528 3830 2978 2e2e 0a2e 0000 0000     g (%08x)........
  40c3d0:	6e5b 696d 7320 6970 3a5d 4620 6961 656c     [nmi spi]: Faile
  40c3e0:	2064 6d63 2c64 7220 6165 2064 6572 2067     d cmd, read reg 
  40c3f0:	2528 3830 2978 2e2e 0a2e 0000 6e5b 696d     (%08x)......[nmi
  40c400:	7320 6970 3a5d 4620 6961 656c 2064 6d63      spi]: Failed cm
  40c410:	2064 6572 7073 6e6f 6573 202c 6572 6461     d response, read
  40c420:	7220 6765 2820 3025 7838 2e29 2e2e 000a      reg (%08x).....
  40c430:	6e5b 696d 7320 6970 3a5d 4620 6961 656c     [nmi spi]: Faile
  40c440:	2064 6164 6174 7220 6165 2e64 2e2e 000a     d data read.....
  40c450:	6e5b 696d 7320 6970 3a5d 4620 6961 656c     [nmi spi]: Faile
  40c460:	2064 6e69 6574 6e72 6c61 7220 6165 2064     d internal read 
  40c470:	7270 746f 636f 6c6f 7720 7469 2068 5243     protocol with CR
  40c480:	2043 6e6f 202c 6572 7974 6972 676e 7720     C on, retyring w
  40c490:	7469 2068 5243 2043 666f 2e66 2e2e 000a     ith CRC off.....
  40c4a0:	6e5b 696d 7320 6970 3a5d 4620 6961 656c     [nmi spi]: Faile
  40c4b0:	2064 6e69 6574 6e72 6c61 7220 6165 2064     d internal read 
  40c4c0:	7270 746f 636f 6c6f 2e2e 0a2e 0000 0000     protocol........
  40c4d0:	6e5b 696d 7320 6970 3a5d 4620 6961 656c     [nmi spi]: Faile
  40c4e0:	2064 6e69 6574 6e72 6c61 7720 6972 6574     d internal write
  40c4f0:	7020 6f72 6f74 6f63 206c 6572 2e67 2e2e      protocol reg...
  40c500:	000a 0000 6e5b 696d 7320 6970 3a5d 4620     ....[nmi spi]: F
  40c510:	6961 206c 6d63 2064 6572 6461 6320 6968     ail cmd read chi
  40c520:	2070 6469 2e2e 0a2e 0000 0000 6e5b 696d     p id........[nmi
  40c530:	7320 6970 3a5d 4620 6961 656c 2064 6d63      spi]: Failed cm
  40c540:	2c64 7220 6165 2064 6c62 636f 206b 2528     d, read block (%
  40c550:	3830 2978 2e2e 0a2e 0000 0000 6e5b 696d     08x)........[nmi
  40c560:	7320 6970 3a5d 4620 6961 656c 2064 6d63      spi]: Failed cm
  40c570:	2064 6572 7073 6e6f 6573 202c 6572 6461     d response, read
  40c580:	6220 6f6c 6b63 2820 3025 7838 2e29 2e2e      block (%08x)...
  40c590:	000a 0000 6e5b 696d 7320 6970 3a5d 4620     ....[nmi spi]: F
  40c5a0:	6961 656c 2064 6c62 636f 206b 6164 6174     ailed block data
  40c5b0:	7220 6165 2e64 2e2e 000a 0000 6e5b 696d      read.......[nmi
  40c5c0:	7320 6970 3a5d 4620 6961 656c 2064 6d63      spi]: Failed cm
  40c5d0:	2c64 7720 6972 6574 6220 6f6c 6b63 2820     d, write block (
  40c5e0:	3025 7838 2e29 2e2e 000a 0000 6e5b 696d     %08x).......[nmi
  40c5f0:	7320 6970 5d20 203a 6146 6c69 6465 6320      spi ]: Failed c
  40c600:	646d 7220 7365 6f70 736e 2c65 7720 6972     md response, wri
  40c610:	6574 6220 6f6c 6b63 2820 3025 7838 2e29     te block (%08x).
  40c620:	2e2e 000a 6e5b 696d 7320 6970 3a5d 4620     ....[nmi spi]: F
  40c630:	6961 656c 2064 6164 6174 6220 6f6c 6b63     ailed data block
  40c640:	6320 646d 7720 6972 6574 202c 7562 2073      cmd write, bus 
  40c650:	7265 6f72 2e72 2e2e 000a 0000 6e5b 696d     error.......[nmi
  40c660:	7320 6970 3a5d 4620 6961 656c 2064 6164      spi]: Failed da
  40c670:	6174 6220 6f6c 6b63 7720 6972 6574 202c     ta block write, 
  40c680:	7562 2073 7265 6f72 2e72 2e2e 000a 0000     bus error.......
  40c690:	6e5b 696d 7320 6970 3a5d 4620 6961 656c     [nmi spi]: Faile
  40c6a0:	2064 6164 6174 6220 6f6c 6b63 6320 6372     d data block crc
  40c6b0:	7720 6972 6574 202c 7562 2073 7265 6f72      write, bus erro
  40c6c0:	2e72 2e2e 000a 0000 6e5b 696d 7320 6970     r.......[nmi spi
  40c6d0:	3a5d 4620 6961 656c 2064 6c62 636f 206b     ]: Failed block 
  40c6e0:	6164 6174 7720 6972 6574 2e2e 0a2e 0000     data write......

0040c6f0 <__FUNCTION__.8098>:
  40c6f0:	7073 5f69 7277 7469 5f65 6572 0067 0000     spi_write_reg...

0040c700 <__FUNCTION__.8049>:
  40c700:	7073 5f69 6d63 0064                         spi_cmd.

0040c708 <__FUNCTION__.8106>:
  40c708:	6d6e 735f 6970 775f 6972 6574 0000 0000     nm_spi_write....

0040c718 <__FUNCTION__.8057>:
  40c718:	7073 5f69 6d63 5f64 7372 0070               spi_cmd_rsp.

0040c724 <__FUNCTION__.8115>:
  40c724:	7073 5f69 6572 6461 725f 6765 0000 0000     spi_read_reg....
  40c734:	4528 5252 2952 7543 7272 6e65 2074 253c     (ERRR)Current <%
  40c744:	3e64 000a 4e53 2049 7845 6563 6465 2073     d>..SNI Exceeds 
  40c754:	614d 2078 654c 676e 6874 000a 6e55 6e6b     Max Length..Unkn
  40c764:	776f 206e 5353 204c 6f53 6b63 7465 4f20     own SSL Socket O
  40c774:	7470 6f69 206e 6425 000a 0000 6f4e 2074     ption %d....Not 
  40c784:	5353 204c 6f53 6b63 7465 000a 4820 5454     SSL Socket.. HTT
  40c794:	2f50 2e31 0d31 200a 6341 6563 7470 203a     P/1.1.. Accept: 
  40c7a4:	2f2a 0d2a 0d0a 000a 4547 2054 732f 6174     */*.....GET /sta
  40c7b4:	6974 2f63 6574 7478 742f 7365 6574 742e     tic/text/teste.t
  40c7c4:	7478 0000 7325 7325 0000 0000 6f73 6b63     xt..%s%s....sock
  40c7d4:	7465 635f 3a62 6320 6e6f 656e 7463 7320     et_cb: connect s
  40c7e4:	6375 6563 7373 0d21 000a 0000 6f73 6b63     uccess!.....sock
  40c7f4:	7465 635f 3a62 6320 6e6f 656e 7463 6520     et_cb: connect e
  40c804:	7272 726f 0d21 000a 6f73 6b63 7465 635f     rror!...socket_c
  40c814:	3a62 7320 6e65 2064 7573 6363 7365 2173     b: send success!
  40c824:	0a0d 0000 2d20 2d2d 2d2d 2d2d 2d2d 202d     .... ---------- 
  40c834:	200a 6e43 2074 203a 6425 0a20 2d20 2d2d     . Cnt : %d . ---
  40c844:	2d2d 2d2d 2d2d 2d2d 000a 0000 7325 0d20     --------....%s .
  40c854:	000a 0000 6f73 6b63 7465 635f 3a62 7220     ....socket_cb: r
  40c864:	6365 2076 7265 6f72 2172 0a0d 0000 0000     ecv error!......
  40c874:	6977 6966 635f 3a62 4d20 4d32 575f 4649     wifi_cb: M2M_WIF
  40c884:	5f49 4552 5053 435f 4e4f 535f 4154 4554     I_RESP_CON_STATE
  40c894:	435f 4148 474e 4445 203a 4f43 4e4e 4345     _CHANGED: CONNEC
  40c8a4:	4554 0d44 000a 0000 6977 6966 635f 3a62     TED.....wifi_cb:
  40c8b4:	4d20 4d32 575f 4649 5f49 4552 5053 435f      M2M_WIFI_RESP_C
  40c8c4:	4e4f 535f 4154 4554 435f 4148 474e 4445     ON_STATE_CHANGED
  40c8d4:	203a 4944 4353 4e4f 454e 5443 4445 0a0d     : DISCONNECTED..
  40c8e4:	0000 0000 3231 3433 3635 3837 0000 0000     ....12345678....
  40c8f4:	5069 6f68 656e 0000 6977 6966 635f 3a62     iPhone..wifi_cb:
  40c904:	4d20 4d32 575f 4649 5f49 4552 5f51 4844      M2M_WIFI_REQ_DH
  40c914:	5043 435f 4e4f 3a46 4920 2050 7369 2520     CP_CONF: IP is %
  40c924:	2e75 7525 252e 2e75 7525 0a0d 0000 0000     u.%u.%u.%u......
  40c934:	2d2d 5720 4e49 3143 3035 2030 4354 2050     -- WINC1500 TCP 
  40c944:	6573 7672 7265 6520 6178 706d 656c 2d20     server example -
  40c954:	0d2d 2d0a 202d 4153 454d 3037 582d 4c50     -..-- SAME70-XPL
  40c964:	2044 2d2d 0a0d 2d2d 4320 6d6f 6970 656c     D --..-- Compile
  40c974:	3a64 4d20 7961 2020 2038 3032 3731 3120     d: May  8 2017 1
  40c984:	3a39 3231 313a 2032 2d2d 0a0d 0000 0000     9:12:12 --......
  40c994:	616d 6e69 203a 326d 5f6d 6977 6966 695f     main: m2m_wifi_i
  40c9a4:	696e 2074 6163 6c6c 6520 7272 726f 2821     nit call error!(
  40c9b4:	6425 0d29 000a 0000 0a0c 2d0d 202d 4453     %d)........-- SD
  40c9c4:	4d2f 434d 532f 4944 204f 6143 6472 4520     /MMC/SDIO Card E
  40c9d4:	6178 706d 656c 6f20 206e 6146 4674 2073     xample on FatFs 
  40c9e4:	2d2d 0d0a 0000 0000 6c50 6165 6573 7020     --......Please p
  40c9f4:	756c 2067 6e61 5320 2c44 4d20 434d 6f20     lug an SD, MMC o
  40ca04:	2072 4453 4f49 6320 7261 2064 6e69 7320     r SDIO card in s
  40ca14:	6f6c 2e74 0d0a 0000 6143 6472 6920 736e     lot.....Card ins
  40ca24:	6174 6c6c 4620 4941 0a4c 000d 6c50 6165     tall FAIL...Plea
  40ca34:	6573 7520 706e 756c 2067 6e61 2064 6572     se unplug and re
  40ca44:	702d 756c 2067 6874 2065 6163 6472 0a2e     -plug the card..
  40ca54:	000d 0000 6f4d 6e75 2074 6964 6b73 2820     ....Mount disk (
  40ca64:	5f66 6f6d 6e75 2974 2e2e 0d2e 000a 0000     f_mount)........
  40ca74:	616d 6e69 203a 6166 6c69 6465 7420 206f     main: failed to 
  40ca84:	7263 6165 6574 5420 5043 6320 696c 6e65     create TCP clien
  40ca94:	2074 6f73 6b63 7465 6520 7272 726f 0d21     t socket error!.
  40caa4:	000a 0000 616d 6e69 203a 6166 6c69 6465     ....main: failed
  40cab4:	7420 206f 6f63 6e6e 6365 2074 6f73 6b63      to connect sock
  40cac4:	7465 6520 7272 726f 0d21 000a 6f43 656e     et error!...Cone
  40cad4:	7463 6461 206f 2021 000a 0000 0043 0000     ctado ! ....C...

0040cae4 <_global_impure_ptr>:
  40cae4:	0048 2040                                   H.@ 

0040cae8 <zeroes.7035>:
  40cae8:	3030 3030 3030 3030 3030 3030 3030 3030     0000000000000000
  40caf8:	4e49 0046 6e69 0066 414e 004e 616e 006e     INF.inf.NAN.nan.
  40cb08:	3130 3332 3534 3736 3938 4241 4443 4645     0123456789ABCDEF
  40cb18:	0000 0000 3130 3332 3534 3736 3938 6261     ....0123456789ab
  40cb28:	6463 6665 0000 0000 6e28 6c75 296c 0000     cdef....(null)..
  40cb38:	0030 0000                                   0...

0040cb3c <blanks.7034>:
  40cb3c:	2020 2020 2020 2020 2020 2020 2020 2020                     

0040cb4c <zeroes.6993>:
  40cb4c:	3030 3030 3030 3030 3030 3030 3030 3030     0000000000000000

0040cb5c <blanks.6992>:
  40cb5c:	2020 2020 2020 2020 2020 2020 2020 2020                     
  40cb6c:	6e49 6966 696e 7974 0000 0000 614e 004e     Infinity....NaN.
  40cb7c:	4f50 4953 0058 0000 002e 0000               POSIX.......

0040cb88 <__mprec_tens>:
  40cb88:	0000 0000 0000 3ff0 0000 0000 0000 4024     .......?......$@
  40cb98:	0000 0000 0000 4059 0000 0000 4000 408f     ......Y@.....@.@
  40cba8:	0000 0000 8800 40c3 0000 0000 6a00 40f8     .......@.....j.@
  40cbb8:	0000 0000 8480 412e 0000 0000 12d0 4163     .......A......cA
  40cbc8:	0000 0000 d784 4197 0000 0000 cd65 41cd     .......A....e..A
  40cbd8:	0000 2000 a05f 4202 0000 e800 4876 4237     ... _..B....vH7B
  40cbe8:	0000 a200 1a94 426d 0000 e540 309c 42a2     ......mB..@..0.B
  40cbf8:	0000 1e90 bcc4 42d6 0000 2634 6bf5 430c     .......B..4&.k.C
  40cc08:	8000 37e0 c379 4341 a000 85d8 3457 4376     ...7y.AC....W4vC
  40cc18:	c800 674e c16d 43ab 3d00 6091 58e4 43e1     ..Ngm..C.=.`.X.C
  40cc28:	8c40 78b5 af1d 4415 ef50 d6e2 1ae4 444b     @..x...DP.....KD
  40cc38:	d592 064d f0cf 4480 4af6 c7e1 2d02 44b5     ..M....D.J...-.D
  40cc48:	9db4 79d9 7843 44ea                         ...yCx.D

0040cc50 <__mprec_bigtens>:
  40cc50:	8000 37e0 c379 4341 6e17 b505 b8b5 4693     ...7y.AC.n.....F
  40cc60:	f9f5 e93f 4f03 4d38 1d32 f930 7748 5a82     ..?..O8M2.0.Hw.Z
  40cc70:	bf3c 7f73 4fdd 7515                         <.s..O.u

0040cc78 <p05.5373>:
  40cc78:	0005 0000 0019 0000 007d 0000               ........}...

0040cc84 <_init>:
  40cc84:	b5f8      	push	{r3, r4, r5, r6, r7, lr}
  40cc86:	bf00      	nop
  40cc88:	bcf8      	pop	{r3, r4, r5, r6, r7}
  40cc8a:	bc08      	pop	{r3}
  40cc8c:	469e      	mov	lr, r3
  40cc8e:	4770      	bx	lr

0040cc90 <__init_array_start>:
  40cc90:	00407ae1 	.word	0x00407ae1

0040cc94 <__frame_dummy_init_array_entry>:
  40cc94:	00400165                                e.@.

0040cc98 <_fini>:
  40cc98:	b5f8      	push	{r3, r4, r5, r6, r7, lr}
  40cc9a:	bf00      	nop
  40cc9c:	bcf8      	pop	{r3, r4, r5, r6, r7}
  40cc9e:	bc08      	pop	{r3}
  40cca0:	469e      	mov	lr, r3
  40cca2:	4770      	bx	lr

0040cca4 <__fini_array_start>:
  40cca4:	00400141 	.word	0x00400141

Disassembly of section .relocate:

20400000 <portable_delay_cycles>:
20400000:	f3bf 8f5f 	dmb	sy
20400004:	3801      	subs	r0, #1
20400006:	d1fb      	bne.n	20400000 <portable_delay_cycles>
20400008:	4770      	bx	lr
2040000a:	bf00      	nop

2040000c <sd_mmc_cards>:
	...
20400014:	0050 0000 0000 0000 0000 0000 0000 0000     P...............
	...

20400030 <egstrNmBusCapabilities>:
20400030:	1000 0000                                   ....

20400034 <clk_status_reg_adr>:
20400034:	000f 0000                                   ....

20400038 <g_interrupt_enabled>:
20400038:	0001 0000                                   ....

2040003c <SystemCoreClock>:
2040003c:	0900 003d                                   ..=.

20400040 <tcp_client_socket>:
20400040:	00ff 0000 0000 0000                         ........

20400048 <impure_data>:
20400048:	0000 0000 0334 2040 039c 2040 0404 2040     ....4.@ ..@ ..@ 
	...
2040007c:	cae0 0040 0000 0000 0000 0000 0000 0000     ..@.............
	...
204000f0:	0001 0000 0000 0000 330e abcd 1234 e66d     .........3..4.m.
20400100:	deec 0005 000b 0000 0000 0000 0000 0000     ................
	...

20400470 <_impure_ptr>:
20400470:	0048 2040                                   H.@ 

20400474 <lconv>:
20400474:	cb84 0040 c870 0040 c870 0040 c870 0040     ..@.p.@.p.@.p.@.
20400484:	c870 0040 c870 0040 c870 0040 c870 0040     p.@.p.@.p.@.p.@.
20400494:	c870 0040 c870 0040 ffff ffff ffff ffff     p.@.p.@.........
204004a4:	ffff ffff ffff 0000                         ........

204004ac <lc_ctype_charset>:
204004ac:	5341 4943 0049 0000 0000 0000 0000 0000     ASCII...........
	...

204004cc <__mb_cur_max>:
204004cc:	0001 0000                                   ....

204004d0 <__malloc_av_>:
	...
204004d8:	04d0 2040 04d0 2040 04d8 2040 04d8 2040     ..@ ..@ ..@ ..@ 
204004e8:	04e0 2040 04e0 2040 04e8 2040 04e8 2040     ..@ ..@ ..@ ..@ 
204004f8:	04f0 2040 04f0 2040 04f8 2040 04f8 2040     ..@ ..@ ..@ ..@ 
20400508:	0500 2040 0500 2040 0508 2040 0508 2040     ..@ ..@ ..@ ..@ 
20400518:	0510 2040 0510 2040 0518 2040 0518 2040     ..@ ..@ ..@ ..@ 
20400528:	0520 2040 0520 2040 0528 2040 0528 2040      .@  .@ (.@ (.@ 
20400538:	0530 2040 0530 2040 0538 2040 0538 2040     0.@ 0.@ 8.@ 8.@ 
20400548:	0540 2040 0540 2040 0548 2040 0548 2040     @.@ @.@ H.@ H.@ 
20400558:	0550 2040 0550 2040 0558 2040 0558 2040     P.@ P.@ X.@ X.@ 
20400568:	0560 2040 0560 2040 0568 2040 0568 2040     `.@ `.@ h.@ h.@ 
20400578:	0570 2040 0570 2040 0578 2040 0578 2040     p.@ p.@ x.@ x.@ 
20400588:	0580 2040 0580 2040 0588 2040 0588 2040     ..@ ..@ ..@ ..@ 
20400598:	0590 2040 0590 2040 0598 2040 0598 2040     ..@ ..@ ..@ ..@ 
204005a8:	05a0 2040 05a0 2040 05a8 2040 05a8 2040     ..@ ..@ ..@ ..@ 
204005b8:	05b0 2040 05b0 2040 05b8 2040 05b8 2040     ..@ ..@ ..@ ..@ 
204005c8:	05c0 2040 05c0 2040 05c8 2040 05c8 2040     ..@ ..@ ..@ ..@ 
204005d8:	05d0 2040 05d0 2040 05d8 2040 05d8 2040     ..@ ..@ ..@ ..@ 
204005e8:	05e0 2040 05e0 2040 05e8 2040 05e8 2040     ..@ ..@ ..@ ..@ 
204005f8:	05f0 2040 05f0 2040 05f8 2040 05f8 2040     ..@ ..@ ..@ ..@ 
20400608:	0600 2040 0600 2040 0608 2040 0608 2040     ..@ ..@ ..@ ..@ 
20400618:	0610 2040 0610 2040 0618 2040 0618 2040     ..@ ..@ ..@ ..@ 
20400628:	0620 2040 0620 2040 0628 2040 0628 2040      .@  .@ (.@ (.@ 
20400638:	0630 2040 0630 2040 0638 2040 0638 2040     0.@ 0.@ 8.@ 8.@ 
20400648:	0640 2040 0640 2040 0648 2040 0648 2040     @.@ @.@ H.@ H.@ 
20400658:	0650 2040 0650 2040 0658 2040 0658 2040     P.@ P.@ X.@ X.@ 
20400668:	0660 2040 0660 2040 0668 2040 0668 2040     `.@ `.@ h.@ h.@ 
20400678:	0670 2040 0670 2040 0678 2040 0678 2040     p.@ p.@ x.@ x.@ 
20400688:	0680 2040 0680 2040 0688 2040 0688 2040     ..@ ..@ ..@ ..@ 
20400698:	0690 2040 0690 2040 0698 2040 0698 2040     ..@ ..@ ..@ ..@ 
204006a8:	06a0 2040 06a0 2040 06a8 2040 06a8 2040     ..@ ..@ ..@ ..@ 
204006b8:	06b0 2040 06b0 2040 06b8 2040 06b8 2040     ..@ ..@ ..@ ..@ 
204006c8:	06c0 2040 06c0 2040 06c8 2040 06c8 2040     ..@ ..@ ..@ ..@ 
204006d8:	06d0 2040 06d0 2040 06d8 2040 06d8 2040     ..@ ..@ ..@ ..@ 
204006e8:	06e0 2040 06e0 2040 06e8 2040 06e8 2040     ..@ ..@ ..@ ..@ 
204006f8:	06f0 2040 06f0 2040 06f8 2040 06f8 2040     ..@ ..@ ..@ ..@ 
20400708:	0700 2040 0700 2040 0708 2040 0708 2040     ..@ ..@ ..@ ..@ 
20400718:	0710 2040 0710 2040 0718 2040 0718 2040     ..@ ..@ ..@ ..@ 
20400728:	0720 2040 0720 2040 0728 2040 0728 2040      .@  .@ (.@ (.@ 
20400738:	0730 2040 0730 2040 0738 2040 0738 2040     0.@ 0.@ 8.@ 8.@ 
20400748:	0740 2040 0740 2040 0748 2040 0748 2040     @.@ @.@ H.@ H.@ 
20400758:	0750 2040 0750 2040 0758 2040 0758 2040     P.@ P.@ X.@ X.@ 
20400768:	0760 2040 0760 2040 0768 2040 0768 2040     `.@ `.@ h.@ h.@ 
20400778:	0770 2040 0770 2040 0778 2040 0778 2040     p.@ p.@ x.@ x.@ 
20400788:	0780 2040 0780 2040 0788 2040 0788 2040     ..@ ..@ ..@ ..@ 
20400798:	0790 2040 0790 2040 0798 2040 0798 2040     ..@ ..@ ..@ ..@ 
204007a8:	07a0 2040 07a0 2040 07a8 2040 07a8 2040     ..@ ..@ ..@ ..@ 
204007b8:	07b0 2040 07b0 2040 07b8 2040 07b8 2040     ..@ ..@ ..@ ..@ 
204007c8:	07c0 2040 07c0 2040 07c8 2040 07c8 2040     ..@ ..@ ..@ ..@ 
204007d8:	07d0 2040 07d0 2040 07d8 2040 07d8 2040     ..@ ..@ ..@ ..@ 
204007e8:	07e0 2040 07e0 2040 07e8 2040 07e8 2040     ..@ ..@ ..@ ..@ 
204007f8:	07f0 2040 07f0 2040 07f8 2040 07f8 2040     ..@ ..@ ..@ ..@ 
20400808:	0800 2040 0800 2040 0808 2040 0808 2040     ..@ ..@ ..@ ..@ 
20400818:	0810 2040 0810 2040 0818 2040 0818 2040     ..@ ..@ ..@ ..@ 
20400828:	0820 2040 0820 2040 0828 2040 0828 2040      .@  .@ (.@ (.@ 
20400838:	0830 2040 0830 2040 0838 2040 0838 2040     0.@ 0.@ 8.@ 8.@ 
20400848:	0840 2040 0840 2040 0848 2040 0848 2040     @.@ @.@ H.@ H.@ 
20400858:	0850 2040 0850 2040 0858 2040 0858 2040     P.@ P.@ X.@ X.@ 
20400868:	0860 2040 0860 2040 0868 2040 0868 2040     `.@ `.@ h.@ h.@ 
20400878:	0870 2040 0870 2040 0878 2040 0878 2040     p.@ p.@ x.@ x.@ 
20400888:	0880 2040 0880 2040 0888 2040 0888 2040     ..@ ..@ ..@ ..@ 
20400898:	0890 2040 0890 2040 0898 2040 0898 2040     ..@ ..@ ..@ ..@ 
204008a8:	08a0 2040 08a0 2040 08a8 2040 08a8 2040     ..@ ..@ ..@ ..@ 
204008b8:	08b0 2040 08b0 2040 08b8 2040 08b8 2040     ..@ ..@ ..@ ..@ 
204008c8:	08c0 2040 08c0 2040 08c8 2040 08c8 2040     ..@ ..@ ..@ ..@ 

204008d8 <__malloc_trim_threshold>:
204008d8:	0000 0002                                   ....

204008dc <__malloc_sbrk_base>:
204008dc:	ffff ffff                                   ....

204008e0 <__wctomb>:
204008e0:	a97d 0040                                   }.@.
